
../output/Fibonacci:     file format elf64-x86-64


Disassembly of section .init:

0000000000400dc0 <_init>:
  400dc0:	48 83 ec 08          	sub    $0x8,%rsp
  400dc4:	e8 3f 02 00 00       	callq  401008 <call_gmon_start>
  400dc9:	48 83 c4 08          	add    $0x8,%rsp
  400dcd:	c3                   	retq   

Disassembly of section .plt:

0000000000400dd0 <_ZNSs6appendEPKcm@plt-0x10>:
  400dd0:	ff 35 62 54 20 00    	pushq  0x205462(%rip)        # 606238 <_GLOBAL_OFFSET_TABLE_+0x8>
  400dd6:	ff 25 64 54 20 00    	jmpq   *0x205464(%rip)        # 606240 <_GLOBAL_OFFSET_TABLE_+0x10>
  400ddc:	0f 1f 40 00          	nopl   0x0(%rax)

0000000000400de0 <_ZNSs6appendEPKcm@plt>:
  400de0:	ff 25 62 54 20 00    	jmpq   *0x205462(%rip)        # 606248 <_GLOBAL_OFFSET_TABLE_+0x18>
  400de6:	68 00 00 00 00       	pushq  $0x0
  400deb:	e9 e0 ff ff ff       	jmpq   400dd0 <_init+0x10>

0000000000400df0 <_ZNSolsEi@plt>:
  400df0:	ff 25 5a 54 20 00    	jmpq   *0x20545a(%rip)        # 606250 <_GLOBAL_OFFSET_TABLE_+0x20>
  400df6:	68 01 00 00 00       	pushq  $0x1
  400dfb:	e9 d0 ff ff ff       	jmpq   400dd0 <_init+0x10>

0000000000400e00 <_ZSt16__throw_bad_castv@plt>:
  400e00:	ff 25 52 54 20 00    	jmpq   *0x205452(%rip)        # 606258 <_GLOBAL_OFFSET_TABLE_+0x28>
  400e06:	68 02 00 00 00       	pushq  $0x2
  400e0b:	e9 c0 ff ff ff       	jmpq   400dd0 <_init+0x10>

0000000000400e10 <_ZdlPv@plt>:
  400e10:	ff 25 4a 54 20 00    	jmpq   *0x20544a(%rip)        # 606260 <_GLOBAL_OFFSET_TABLE_+0x30>
  400e16:	68 03 00 00 00       	pushq  $0x3
  400e1b:	e9 b0 ff ff ff       	jmpq   400dd0 <_init+0x10>

0000000000400e20 <_ZNKSt5ctypeIcE13_M_widen_initEv@plt>:
  400e20:	ff 25 42 54 20 00    	jmpq   *0x205442(%rip)        # 606268 <_GLOBAL_OFFSET_TABLE_+0x38>
  400e26:	68 04 00 00 00       	pushq  $0x4
  400e2b:	e9 a0 ff ff ff       	jmpq   400dd0 <_init+0x10>

0000000000400e30 <_ZNSt8ios_base4InitC1Ev@plt>:
  400e30:	ff 25 3a 54 20 00    	jmpq   *0x20543a(%rip)        # 606270 <_GLOBAL_OFFSET_TABLE_+0x40>
  400e36:	68 05 00 00 00       	pushq  $0x5
  400e3b:	e9 90 ff ff ff       	jmpq   400dd0 <_init+0x10>

0000000000400e40 <__libc_start_main@plt>:
  400e40:	ff 25 32 54 20 00    	jmpq   *0x205432(%rip)        # 606278 <_GLOBAL_OFFSET_TABLE_+0x48>
  400e46:	68 06 00 00 00       	pushq  $0x6
  400e4b:	e9 80 ff ff ff       	jmpq   400dd0 <_init+0x10>

0000000000400e50 <_ZNSsC1ERKSs@plt>:
  400e50:	ff 25 2a 54 20 00    	jmpq   *0x20542a(%rip)        # 606280 <_GLOBAL_OFFSET_TABLE_+0x50>
  400e56:	68 07 00 00 00       	pushq  $0x7
  400e5b:	e9 70 ff ff ff       	jmpq   400dd0 <_init+0x10>

0000000000400e60 <__cxa_atexit@plt>:
  400e60:	ff 25 22 54 20 00    	jmpq   *0x205422(%rip)        # 606288 <_GLOBAL_OFFSET_TABLE_+0x58>
  400e66:	68 08 00 00 00       	pushq  $0x8
  400e6b:	e9 60 ff ff ff       	jmpq   400dd0 <_init+0x10>

0000000000400e70 <_ZNSt8ios_base4InitD1Ev@plt>:
  400e70:	ff 25 1a 54 20 00    	jmpq   *0x20541a(%rip)        # 606290 <_GLOBAL_OFFSET_TABLE_+0x60>
  400e76:	68 09 00 00 00       	pushq  $0x9
  400e7b:	e9 50 ff ff ff       	jmpq   400dd0 <_init+0x10>

0000000000400e80 <_ZNSsD1Ev@plt>:
  400e80:	ff 25 12 54 20 00    	jmpq   *0x205412(%rip)        # 606298 <_GLOBAL_OFFSET_TABLE_+0x68>
  400e86:	68 0a 00 00 00       	pushq  $0xa
  400e8b:	e9 40 ff ff ff       	jmpq   400dd0 <_init+0x10>

0000000000400e90 <strlen@plt>:
  400e90:	ff 25 0a 54 20 00    	jmpq   *0x20540a(%rip)        # 6062a0 <_GLOBAL_OFFSET_TABLE_+0x70>
  400e96:	68 0b 00 00 00       	pushq  $0xb
  400e9b:	e9 30 ff ff ff       	jmpq   400dd0 <_init+0x10>

0000000000400ea0 <_ZNSs4_Rep10_M_destroyERKSaIcE@plt>:
  400ea0:	ff 25 02 54 20 00    	jmpq   *0x205402(%rip)        # 6062a8 <_GLOBAL_OFFSET_TABLE_+0x78>
  400ea6:	68 0c 00 00 00       	pushq  $0xc
  400eab:	e9 20 ff ff ff       	jmpq   400dd0 <_init+0x10>

0000000000400eb0 <_ZSt18_Rb_tree_incrementPKSt18_Rb_tree_node_base@plt>:
  400eb0:	ff 25 fa 53 20 00    	jmpq   *0x2053fa(%rip)        # 6062b0 <_GLOBAL_OFFSET_TABLE_+0x80>
  400eb6:	68 0d 00 00 00       	pushq  $0xd
  400ebb:	e9 10 ff ff ff       	jmpq   400dd0 <_init+0x10>

0000000000400ec0 <pow@plt>:
  400ec0:	ff 25 f2 53 20 00    	jmpq   *0x2053f2(%rip)        # 6062b8 <_GLOBAL_OFFSET_TABLE_+0x88>
  400ec6:	68 0e 00 00 00       	pushq  $0xe
  400ecb:	e9 00 ff ff ff       	jmpq   400dd0 <_init+0x10>

0000000000400ed0 <_ZNSsC1EPKcRKSaIcE@plt>:
  400ed0:	ff 25 ea 53 20 00    	jmpq   *0x2053ea(%rip)        # 6062c0 <_GLOBAL_OFFSET_TABLE_+0x90>
  400ed6:	68 0f 00 00 00       	pushq  $0xf
  400edb:	e9 f0 fe ff ff       	jmpq   400dd0 <_init+0x10>

0000000000400ee0 <_ZNSt6chrono12system_clock3nowEv@plt>:
  400ee0:	ff 25 e2 53 20 00    	jmpq   *0x2053e2(%rip)        # 6062c8 <_GLOBAL_OFFSET_TABLE_+0x98>
  400ee6:	68 10 00 00 00       	pushq  $0x10
  400eeb:	e9 e0 fe ff ff       	jmpq   400dd0 <_init+0x10>

0000000000400ef0 <_ZNSo9_M_insertIyEERSoT_@plt>:
  400ef0:	ff 25 da 53 20 00    	jmpq   *0x2053da(%rip)        # 6062d0 <_GLOBAL_OFFSET_TABLE_+0xa0>
  400ef6:	68 11 00 00 00       	pushq  $0x11
  400efb:	e9 d0 fe ff ff       	jmpq   400dd0 <_init+0x10>

0000000000400f00 <_ZSt16__ostream_insertIcSt11char_traitsIcEERSt13basic_ostreamIT_T0_ES6_PKS3_l@plt>:
  400f00:	ff 25 d2 53 20 00    	jmpq   *0x2053d2(%rip)        # 6062d8 <_GLOBAL_OFFSET_TABLE_+0xa8>
  400f06:	68 12 00 00 00       	pushq  $0x12
  400f0b:	e9 c0 fe ff ff       	jmpq   400dd0 <_init+0x10>

0000000000400f10 <_ZSt29_Rb_tree_insert_and_rebalancebPSt18_Rb_tree_node_baseS0_RS_@plt>:
  400f10:	ff 25 ca 53 20 00    	jmpq   *0x2053ca(%rip)        # 6062e0 <_GLOBAL_OFFSET_TABLE_+0xb0>
  400f16:	68 13 00 00 00       	pushq  $0x13
  400f1b:	e9 b0 fe ff ff       	jmpq   400dd0 <_init+0x10>

0000000000400f20 <_ZNSo5flushEv@plt>:
  400f20:	ff 25 c2 53 20 00    	jmpq   *0x2053c2(%rip)        # 6062e8 <_GLOBAL_OFFSET_TABLE_+0xb8>
  400f26:	68 14 00 00 00       	pushq  $0x14
  400f2b:	e9 a0 fe ff ff       	jmpq   400dd0 <_init+0x10>

0000000000400f30 <_ZNSt9basic_iosIcSt11char_traitsIcEE5clearESt12_Ios_Iostate@plt>:
  400f30:	ff 25 ba 53 20 00    	jmpq   *0x2053ba(%rip)        # 6062f0 <_GLOBAL_OFFSET_TABLE_+0xc0>
  400f36:	68 15 00 00 00       	pushq  $0x15
  400f3b:	e9 90 fe ff ff       	jmpq   400dd0 <_init+0x10>

0000000000400f40 <_ZNSo9_M_insertImEERSoT_@plt>:
  400f40:	ff 25 b2 53 20 00    	jmpq   *0x2053b2(%rip)        # 6062f8 <_GLOBAL_OFFSET_TABLE_+0xc8>
  400f46:	68 16 00 00 00       	pushq  $0x16
  400f4b:	e9 80 fe ff ff       	jmpq   400dd0 <_init+0x10>

0000000000400f50 <_ZNSo9_M_insertIdEERSoT_@plt>:
  400f50:	ff 25 aa 53 20 00    	jmpq   *0x2053aa(%rip)        # 606300 <_GLOBAL_OFFSET_TABLE_+0xd0>
  400f56:	68 17 00 00 00       	pushq  $0x17
  400f5b:	e9 70 fe ff ff       	jmpq   400dd0 <_init+0x10>

0000000000400f60 <_ZSt17__throw_bad_allocv@plt>:
  400f60:	ff 25 a2 53 20 00    	jmpq   *0x2053a2(%rip)        # 606308 <_GLOBAL_OFFSET_TABLE_+0xd8>
  400f66:	68 18 00 00 00       	pushq  $0x18
  400f6b:	e9 60 fe ff ff       	jmpq   400dd0 <_init+0x10>

0000000000400f70 <__gxx_personality_v0@plt>:
  400f70:	ff 25 9a 53 20 00    	jmpq   *0x20539a(%rip)        # 606310 <_GLOBAL_OFFSET_TABLE_+0xe0>
  400f76:	68 19 00 00 00       	pushq  $0x19
  400f7b:	e9 50 fe ff ff       	jmpq   400dd0 <_init+0x10>

0000000000400f80 <_Znwm@plt>:
  400f80:	ff 25 92 53 20 00    	jmpq   *0x205392(%rip)        # 606318 <_GLOBAL_OFFSET_TABLE_+0xe8>
  400f86:	68 1a 00 00 00       	pushq  $0x1a
  400f8b:	e9 40 fe ff ff       	jmpq   400dd0 <_init+0x10>

0000000000400f90 <_Unwind_Resume@plt>:
  400f90:	ff 25 8a 53 20 00    	jmpq   *0x20538a(%rip)        # 606320 <_GLOBAL_OFFSET_TABLE_+0xf0>
  400f96:	68 1b 00 00 00       	pushq  $0x1b
  400f9b:	e9 30 fe ff ff       	jmpq   400dd0 <_init+0x10>

0000000000400fa0 <_ZNSo3putEc@plt>:
  400fa0:	ff 25 82 53 20 00    	jmpq   *0x205382(%rip)        # 606328 <_GLOBAL_OFFSET_TABLE_+0xf8>
  400fa6:	68 1c 00 00 00       	pushq  $0x1c
  400fab:	e9 20 fe ff ff       	jmpq   400dd0 <_init+0x10>

0000000000400fb0 <_ZNSo9_M_insertIxEERSoT_@plt>:
  400fb0:	ff 25 7a 53 20 00    	jmpq   *0x20537a(%rip)        # 606330 <_GLOBAL_OFFSET_TABLE_+0x100>
  400fb6:	68 1d 00 00 00       	pushq  $0x1d
  400fbb:	e9 10 fe ff ff       	jmpq   400dd0 <_init+0x10>

Disassembly of section .text:

0000000000400fc0 <_ZN9__gnu_cxxL27__exchange_and_add_dispatchEPii.constprop.84>:
  400fc0:	b8 00 00 00 00       	mov    $0x0,%eax
  400fc5:	48 85 c0             	test   %rax,%rax
  400fc8:	74 08                	je     400fd2 <_ZN9__gnu_cxxL27__exchange_and_add_dispatchEPii.constprop.84+0x12>
  400fca:	83 c8 ff             	or     $0xffffffffffffffff,%eax
  400fcd:	f0 0f c1 07          	lock xadd %eax,(%rdi)
  400fd1:	c3                   	retq   
  400fd2:	8b 07                	mov    (%rdi),%eax
  400fd4:	8d 50 ff             	lea    -0x1(%rax),%edx
  400fd7:	89 17                	mov    %edx,(%rdi)
  400fd9:	c3                   	retq   
  400fda:	90                   	nop
  400fdb:	90                   	nop

0000000000400fdc <_start>:
  400fdc:	31 ed                	xor    %ebp,%ebp
  400fde:	49 89 d1             	mov    %rdx,%r9
  400fe1:	5e                   	pop    %rsi
  400fe2:	48 89 e2             	mov    %rsp,%rdx
  400fe5:	48 83 e4 f0          	and    $0xfffffffffffffff0,%rsp
  400fe9:	50                   	push   %rax
  400fea:	54                   	push   %rsp
  400feb:	49 c7 c0 b0 4c 40 00 	mov    $0x404cb0,%r8
  400ff2:	48 c7 c1 c0 4c 40 00 	mov    $0x404cc0,%rcx
  400ff9:	48 c7 c7 40 1f 40 00 	mov    $0x401f40,%rdi
  401000:	e8 3b fe ff ff       	callq  400e40 <__libc_start_main@plt>
  401005:	f4                   	hlt    
  401006:	90                   	nop
  401007:	90                   	nop

0000000000401008 <call_gmon_start>:
  401008:	48 83 ec 08          	sub    $0x8,%rsp
  40100c:	48 8b 05 15 52 20 00 	mov    0x205215(%rip),%rax        # 606228 <_DYNAMIC+0x200>
  401013:	48 85 c0             	test   %rax,%rax
  401016:	74 02                	je     40101a <call_gmon_start+0x12>
  401018:	ff d0                	callq  *%rax
  40101a:	48 83 c4 08          	add    $0x8,%rsp
  40101e:	c3                   	retq   
  40101f:	90                   	nop

0000000000401020 <deregister_tm_clones>:
  401020:	b8 47 63 60 00       	mov    $0x606347,%eax
  401025:	55                   	push   %rbp
  401026:	48 2d 40 63 60 00    	sub    $0x606340,%rax
  40102c:	48 83 f8 0e          	cmp    $0xe,%rax
  401030:	48 89 e5             	mov    %rsp,%rbp
  401033:	77 02                	ja     401037 <deregister_tm_clones+0x17>
  401035:	5d                   	pop    %rbp
  401036:	c3                   	retq   
  401037:	b8 00 00 00 00       	mov    $0x0,%eax
  40103c:	48 85 c0             	test   %rax,%rax
  40103f:	74 f4                	je     401035 <deregister_tm_clones+0x15>
  401041:	5d                   	pop    %rbp
  401042:	bf 40 63 60 00       	mov    $0x606340,%edi
  401047:	ff e0                	jmpq   *%rax
  401049:	0f 1f 80 00 00 00 00 	nopl   0x0(%rax)

0000000000401050 <register_tm_clones>:
  401050:	b8 40 63 60 00       	mov    $0x606340,%eax
  401055:	55                   	push   %rbp
  401056:	48 2d 40 63 60 00    	sub    $0x606340,%rax
  40105c:	48 c1 f8 03          	sar    $0x3,%rax
  401060:	48 89 e5             	mov    %rsp,%rbp
  401063:	48 89 c2             	mov    %rax,%rdx
  401066:	48 c1 ea 3f          	shr    $0x3f,%rdx
  40106a:	48 01 d0             	add    %rdx,%rax
  40106d:	48 89 c6             	mov    %rax,%rsi
  401070:	48 d1 fe             	sar    %rsi
  401073:	75 02                	jne    401077 <register_tm_clones+0x27>
  401075:	5d                   	pop    %rbp
  401076:	c3                   	retq   
  401077:	ba 00 00 00 00       	mov    $0x0,%edx
  40107c:	48 85 d2             	test   %rdx,%rdx
  40107f:	74 f4                	je     401075 <register_tm_clones+0x25>
  401081:	5d                   	pop    %rbp
  401082:	bf 40 63 60 00       	mov    $0x606340,%edi
  401087:	ff e2                	jmpq   *%rdx
  401089:	0f 1f 80 00 00 00 00 	nopl   0x0(%rax)

0000000000401090 <__do_global_dtors_aux>:
  401090:	80 3d e9 53 20 00 00 	cmpb   $0x0,0x2053e9(%rip)        # 606480 <completed.6070>
  401097:	75 11                	jne    4010aa <__do_global_dtors_aux+0x1a>
  401099:	55                   	push   %rbp
  40109a:	48 89 e5             	mov    %rsp,%rbp
  40109d:	e8 7e ff ff ff       	callq  401020 <deregister_tm_clones>
  4010a2:	5d                   	pop    %rbp
  4010a3:	c6 05 d6 53 20 00 01 	movb   $0x1,0x2053d6(%rip)        # 606480 <completed.6070>
  4010aa:	f3 c3                	repz retq 
  4010ac:	0f 1f 40 00          	nopl   0x0(%rax)

00000000004010b0 <frame_dummy>:
  4010b0:	48 83 3d 68 4f 20 00 	cmpq   $0x0,0x204f68(%rip)        # 606020 <__JCR_END__>
  4010b7:	00 
  4010b8:	74 1b                	je     4010d5 <frame_dummy+0x25>
  4010ba:	b8 00 00 00 00       	mov    $0x0,%eax
  4010bf:	48 85 c0             	test   %rax,%rax
  4010c2:	74 11                	je     4010d5 <frame_dummy+0x25>
  4010c4:	55                   	push   %rbp
  4010c5:	bf 20 60 60 00       	mov    $0x606020,%edi
  4010ca:	48 89 e5             	mov    %rsp,%rbp
  4010cd:	ff d0                	callq  *%rax
  4010cf:	5d                   	pop    %rbp
  4010d0:	e9 7b ff ff ff       	jmpq   401050 <register_tm_clones>
  4010d5:	e9 76 ff ff ff       	jmpq   401050 <register_tm_clones>
  4010da:	90                   	nop
  4010db:	90                   	nop
  4010dc:	90                   	nop
  4010dd:	90                   	nop
  4010de:	90                   	nop
  4010df:	90                   	nop

00000000004010e0 <_ZStlsISt11char_traitsIcEERSt13basic_ostreamIcT_ES5_PKc.part.1>:
  4010e0:	48 83 ec 08          	sub    $0x8,%rsp
  4010e4:	48 8b 07             	mov    (%rdi),%rax
  4010e7:	48 03 78 e8          	add    -0x18(%rax),%rdi
  4010eb:	8b 77 20             	mov    0x20(%rdi),%esi
  4010ee:	83 ce 01             	or     $0x1,%esi
  4010f1:	e8 3a fe ff ff       	callq  400f30 <_ZNSt9basic_iosIcSt11char_traitsIcEE5clearESt12_Ios_Iostate@plt>
  4010f6:	48 83 c4 08          	add    $0x8,%rsp
  4010fa:	c3                   	retq   
  4010fb:	0f 1f 44 00 00       	nopl   0x0(%rax,%rax,1)

0000000000401100 <_Z14CompareResultsv>:
  401100:	41 56                	push   %r14
  401102:	bf 40 63 60 00       	mov    $0x606340,%edi
  401107:	41 55                	push   %r13
  401109:	41 54                	push   %r12
  40110b:	55                   	push   %rbp
  40110c:	53                   	push   %rbx
  40110d:	48 83 ec 30          	sub    $0x30,%rsp
  401111:	48 8b 35 70 53 20 00 	mov    0x205370(%rip),%rsi        # 606488 <_ZL10BeginTitle>
  401118:	48 8b 56 e8          	mov    -0x18(%rsi),%rdx
  40111c:	e8 df fd ff ff       	callq  400f00 <_ZSt16__ostream_insertIcSt11char_traitsIcEERSt13basic_ostreamIT_T0_ES6_PKS3_l@plt>
  401121:	ba 3d 00 00 00       	mov    $0x3d,%edx
  401126:	be 70 4d 40 00       	mov    $0x404d70,%esi
  40112b:	48 89 c7             	mov    %rax,%rdi
  40112e:	48 89 c3             	mov    %rax,%rbx
  401131:	e8 ca fd ff ff       	callq  400f00 <_ZSt16__ostream_insertIcSt11char_traitsIcEERSt13basic_ostreamIT_T0_ES6_PKS3_l@plt>
  401136:	48 8b 35 53 53 20 00 	mov    0x205353(%rip),%rsi        # 606490 <_ZL8EndTitle>
  40113d:	48 89 df             	mov    %rbx,%rdi
  401140:	48 8b 56 e8          	mov    -0x18(%rsi),%rdx
  401144:	e8 b7 fd ff ff       	callq  400f00 <_ZSt16__ostream_insertIcSt11char_traitsIcEERSt13basic_ostreamIT_T0_ES6_PKS3_l@plt>
  401149:	48 89 c5             	mov    %rax,%rbp
  40114c:	48 8b 00             	mov    (%rax),%rax
  40114f:	48 8b 40 e8          	mov    -0x18(%rax),%rax
  401153:	48 8b 9c 05 f0 00 00 	mov    0xf0(%rbp,%rax,1),%rbx
  40115a:	00 
  40115b:	48 85 db             	test   %rbx,%rbx
  40115e:	0f 84 1b 07 00 00    	je     40187f <_Z14CompareResultsv+0x77f>
  401164:	80 7b 38 00          	cmpb   $0x0,0x38(%rbx)
  401168:	0f 84 84 06 00 00    	je     4017f2 <_Z14CompareResultsv+0x6f2>
  40116e:	0f b6 43 43          	movzbl 0x43(%rbx),%eax
  401172:	0f be f0             	movsbl %al,%esi
  401175:	48 89 ef             	mov    %rbp,%rdi
  401178:	bb 00 4f 40 00       	mov    $0x404f00,%ebx
  40117d:	e8 1e fe ff ff       	callq  400fa0 <_ZNSo3putEc@plt>
  401182:	48 89 c7             	mov    %rax,%rdi
  401185:	e8 96 fd ff ff       	callq  400f20 <_ZNSo5flushEv@plt>
  40118a:	ba 02 00 00 00       	mov    $0x2,%edx
  40118f:	be 96 55 40 00       	mov    $0x405596,%esi
  401194:	bf 40 63 60 00       	mov    $0x606340,%edi
  401199:	48 c7 04 24 f0 1b 40 	movq   $0x401bf0,(%rsp)
  4011a0:	00 
  4011a1:	48 c7 44 24 08 40 1c 	movq   $0x401c40,0x8(%rsp)
  4011a8:	40 00 
  4011aa:	48 c7 44 24 10 50 1b 	movq   $0x401b50,0x10(%rsp)
  4011b1:	40 00 
  4011b3:	48 c7 44 24 18 00 4c 	movq   $0x404c00,0x18(%rsp)
  4011ba:	40 00 
  4011bc:	48 c7 44 24 20 70 1b 	movq   $0x401b70,0x20(%rsp)
  4011c3:	40 00 
  4011c5:	e8 36 fd ff ff       	callq  400f00 <_ZSt16__ostream_insertIcSt11char_traitsIcEERSt13basic_ostreamIT_T0_ES6_PKS3_l@plt>
  4011ca:	48 8b 05 6f 51 20 00 	mov    0x20516f(%rip),%rax        # 606340 <__TMC_END__>
  4011d1:	48 8b 2b             	mov    (%rbx),%rbp
  4011d4:	48 8b 40 e8          	mov    -0x18(%rax),%rax
  4011d8:	48 85 ed             	test   %rbp,%rbp
  4011db:	48 c7 80 50 63 60 00 	movq   $0x25,0x606350(%rax)
  4011e2:	25 00 00 00 
  4011e6:	0f 84 f7 05 00 00    	je     4017e3 <_Z14CompareResultsv+0x6e3>
  4011ec:	48 89 ef             	mov    %rbp,%rdi
  4011ef:	e8 9c fc ff ff       	callq  400e90 <strlen@plt>
  4011f4:	48 89 ee             	mov    %rbp,%rsi
  4011f7:	48 89 c2             	mov    %rax,%rdx
  4011fa:	bf 40 63 60 00       	mov    $0x606340,%edi
  4011ff:	e8 fc fc ff ff       	callq  400f00 <_ZSt16__ostream_insertIcSt11char_traitsIcEERSt13basic_ostreamIT_T0_ES6_PKS3_l@plt>
  401204:	48 83 c3 08          	add    $0x8,%rbx
  401208:	48 81 fb 28 4f 40 00 	cmp    $0x404f28,%rbx
  40120f:	75 b9                	jne    4011ca <_Z14CompareResultsv+0xca>
  401211:	48 8b 05 28 51 20 00 	mov    0x205128(%rip),%rax        # 606340 <__TMC_END__>
  401218:	48 8b 40 e8          	mov    -0x18(%rax),%rax
  40121c:	48 8b 98 30 64 60 00 	mov    0x606430(%rax),%rbx
  401223:	48 85 db             	test   %rbx,%rbx
  401226:	0f 84 53 06 00 00    	je     40187f <_Z14CompareResultsv+0x77f>
  40122c:	80 7b 38 00          	cmpb   $0x0,0x38(%rbx)
  401230:	0f 84 0c 06 00 00    	je     401842 <_Z14CompareResultsv+0x742>
  401236:	0f b6 43 43          	movzbl 0x43(%rbx),%eax
  40123a:	0f be f0             	movsbl %al,%esi
  40123d:	bf 40 63 60 00       	mov    $0x606340,%edi
  401242:	31 ed                	xor    %ebp,%ebp
  401244:	e8 57 fd ff ff       	callq  400fa0 <_ZNSo3putEc@plt>
  401249:	48 89 c7             	mov    %rax,%rdi
  40124c:	41 bd a0 64 60 00    	mov    $0x6064a0,%r13d
  401252:	e8 c9 fc ff ff       	callq  400f20 <_ZNSo5flushEv@plt>
  401257:	bf 28 00 00 00       	mov    $0x28,%edi
  40125c:	e8 1f fd ff ff       	callq  400f80 <_Znwm@plt>
  401261:	48 89 c3             	mov    %rax,%rbx
  401264:	48 c7 00 00 00 00 00 	movq   $0x0,(%rax)
  40126b:	48 c7 40 08 00 00 00 	movq   $0x0,0x8(%rax)
  401272:	00 
  401273:	48 c7 40 10 00 00 00 	movq   $0x0,0x10(%rax)
  40127a:	00 
  40127b:	48 c7 40 18 00 00 00 	movq   $0x0,0x18(%rax)
  401282:	00 
  401283:	48 c7 40 20 00 00 00 	movq   $0x0,0x20(%rax)
  40128a:	00 
  40128b:	eb 2c                	jmp    4012b9 <_Z14CompareResultsv+0x1b9>
  40128d:	0f 1f 00             	nopl   (%rax)
  401290:	41 0f b6 44 24 43    	movzbl 0x43(%r12),%eax
  401296:	0f be f0             	movsbl %al,%esi
  401299:	bf 40 63 60 00       	mov    $0x606340,%edi
  40129e:	e8 fd fc ff ff       	callq  400fa0 <_ZNSo3putEc@plt>
  4012a3:	48 89 c7             	mov    %rax,%rdi
  4012a6:	e8 75 fc ff ff       	callq  400f20 <_ZNSo5flushEv@plt>
  4012ab:	48 83 c5 01          	add    $0x1,%rbp
  4012af:	48 83 fd 5d          	cmp    $0x5d,%rbp
  4012b3:	0f 84 af 02 00 00    	je     401568 <_Z14CompareResultsv+0x468>
  4012b9:	48 8b 05 80 50 20 00 	mov    0x205080(%rip),%rax        # 606340 <__TMC_END__>
  4012c0:	48 89 ee             	mov    %rbp,%rsi
  4012c3:	bf 40 63 60 00       	mov    $0x606340,%edi
  4012c8:	48 8b 40 e8          	mov    -0x18(%rax),%rax
  4012cc:	48 c7 80 50 63 60 00 	movq   $0x2,0x606350(%rax)
  4012d3:	02 00 00 00 
  4012d7:	e8 64 fc ff ff       	callq  400f40 <_ZNSo9_M_insertImEERSoT_@plt>
  4012dc:	ba 03 00 00 00       	mov    $0x3,%edx
  4012e1:	be 95 55 40 00       	mov    $0x405595,%esi
  4012e6:	48 89 c7             	mov    %rax,%rdi
  4012e9:	e8 12 fc ff ff       	callq  400f00 <_ZSt16__ostream_insertIcSt11char_traitsIcEERSt13basic_ostreamIT_T0_ES6_PKS3_l@plt>
  4012ee:	48 89 ef             	mov    %rbp,%rdi
  4012f1:	e8 fa 08 00 00       	callq  401bf0 <_ZN4loop9fibonacciEm>
  4012f6:	48 8b 35 9b 51 20 00 	mov    0x20519b(%rip),%rsi        # 606498 <_ZL5Empty>
  4012fd:	48 89 03             	mov    %rax,(%rbx)
  401300:	bf 40 63 60 00       	mov    $0x606340,%edi
  401305:	49 89 c4             	mov    %rax,%r12
  401308:	48 8b 56 e8          	mov    -0x18(%rsi),%rdx
  40130c:	e8 ef fb ff ff       	callq  400f00 <_ZSt16__ostream_insertIcSt11char_traitsIcEERSt13basic_ostreamIT_T0_ES6_PKS3_l@plt>
  401311:	48 89 c7             	mov    %rax,%rdi
  401314:	48 8b 00             	mov    (%rax),%rax
  401317:	4c 89 e6             	mov    %r12,%rsi
  40131a:	48 8b 40 e8          	mov    -0x18(%rax),%rax
  40131e:	48 c7 44 07 10 17 00 	movq   $0x17,0x10(%rdi,%rax,1)
  401325:	00 00 
  401327:	e8 c4 fb ff ff       	callq  400ef0 <_ZNSo9_M_insertIyEERSoT_@plt>
  40132c:	48 8b 35 65 51 20 00 	mov    0x205165(%rip),%rsi        # 606498 <_ZL5Empty>
  401333:	48 89 c7             	mov    %rax,%rdi
  401336:	48 8b 56 e8          	mov    -0x18(%rsi),%rdx
  40133a:	e8 c1 fb ff ff       	callq  400f00 <_ZSt16__ostream_insertIcSt11char_traitsIcEERSt13basic_ostreamIT_T0_ES6_PKS3_l@plt>
  40133f:	ba 03 00 00 00       	mov    $0x3,%edx
  401344:	be 95 55 40 00       	mov    $0x405595,%esi
  401349:	48 89 c7             	mov    %rax,%rdi
  40134c:	e8 af fb ff ff       	callq  400f00 <_ZSt16__ostream_insertIcSt11char_traitsIcEERSt13basic_ostreamIT_T0_ES6_PKS3_l@plt>
  401351:	48 89 ef             	mov    %rbp,%rdi
  401354:	e8 e7 08 00 00       	callq  401c40 <_ZN17goodRecursionImplIyE9fibonacciEm>
  401359:	49 89 c4             	mov    %rax,%r12
  40135c:	4c 3b 23             	cmp    (%rbx),%r12
  40135f:	ba a8 64 60 00       	mov    $0x6064a8,%edx
  401364:	48 89 43 08          	mov    %rax,0x8(%rbx)
  401368:	b8 98 64 60 00       	mov    $0x606498,%eax
  40136d:	bf 40 63 60 00       	mov    $0x606340,%edi
  401372:	49 89 c6             	mov    %rax,%r14
  401375:	48 0f 45 c2          	cmovne %rdx,%rax
  401379:	4d 0f 45 f5          	cmovne %r13,%r14
  40137d:	48 8b 30             	mov    (%rax),%rsi
  401380:	48 8b 56 e8          	mov    -0x18(%rsi),%rdx
  401384:	e8 77 fb ff ff       	callq  400f00 <_ZSt16__ostream_insertIcSt11char_traitsIcEERSt13basic_ostreamIT_T0_ES6_PKS3_l@plt>
  401389:	48 8b 10             	mov    (%rax),%rdx
  40138c:	4c 89 e6             	mov    %r12,%rsi
  40138f:	48 89 c7             	mov    %rax,%rdi
  401392:	48 8b 52 e8          	mov    -0x18(%rdx),%rdx
  401396:	48 c7 44 10 10 17 00 	movq   $0x17,0x10(%rax,%rdx,1)
  40139d:	00 00 
  40139f:	e8 4c fb ff ff       	callq  400ef0 <_ZNSo9_M_insertIyEERSoT_@plt>
  4013a4:	49 8b 36             	mov    (%r14),%rsi
  4013a7:	48 89 c7             	mov    %rax,%rdi
  4013aa:	48 8b 56 e8          	mov    -0x18(%rsi),%rdx
  4013ae:	e8 4d fb ff ff       	callq  400f00 <_ZSt16__ostream_insertIcSt11char_traitsIcEERSt13basic_ostreamIT_T0_ES6_PKS3_l@plt>
  4013b3:	ba 03 00 00 00       	mov    $0x3,%edx
  4013b8:	be 95 55 40 00       	mov    $0x405595,%esi
  4013bd:	48 89 c7             	mov    %rax,%rdi
  4013c0:	e8 3b fb ff ff       	callq  400f00 <_ZSt16__ostream_insertIcSt11char_traitsIcEERSt13basic_ostreamIT_T0_ES6_PKS3_l@plt>
  4013c5:	48 89 ef             	mov    %rbp,%rdi
  4013c8:	4d 89 ee             	mov    %r13,%r14
  4013cb:	e8 80 07 00 00       	callq  401b50 <_ZN14metaprogrammed12ConstantTime9fibonacciEm>
  4013d0:	48 3b 03             	cmp    (%rbx),%rax
  4013d3:	ba 98 64 60 00       	mov    $0x606498,%edx
  4013d8:	49 89 c4             	mov    %rax,%r12
  4013db:	48 89 43 10          	mov    %rax,0x10(%rbx)
  4013df:	b8 a8 64 60 00       	mov    $0x6064a8,%eax
  4013e4:	bf 40 63 60 00       	mov    $0x606340,%edi
  4013e9:	48 0f 44 c2          	cmove  %rdx,%rax
  4013ed:	4c 0f 44 f2          	cmove  %rdx,%r14
  4013f1:	48 8b 30             	mov    (%rax),%rsi
  4013f4:	48 8b 56 e8          	mov    -0x18(%rsi),%rdx
  4013f8:	e8 03 fb ff ff       	callq  400f00 <_ZSt16__ostream_insertIcSt11char_traitsIcEERSt13basic_ostreamIT_T0_ES6_PKS3_l@plt>
  4013fd:	48 8b 10             	mov    (%rax),%rdx
  401400:	4c 89 e6             	mov    %r12,%rsi
  401403:	48 89 c7             	mov    %rax,%rdi
  401406:	48 8b 52 e8          	mov    -0x18(%rdx),%rdx
  40140a:	48 c7 44 10 10 17 00 	movq   $0x17,0x10(%rax,%rdx,1)
  401411:	00 00 
  401413:	e8 d8 fa ff ff       	callq  400ef0 <_ZNSo9_M_insertIyEERSoT_@plt>
  401418:	49 8b 36             	mov    (%r14),%rsi
  40141b:	48 89 c7             	mov    %rax,%rdi
  40141e:	48 8b 56 e8          	mov    -0x18(%rsi),%rdx
  401422:	e8 d9 fa ff ff       	callq  400f00 <_ZSt16__ostream_insertIcSt11char_traitsIcEERSt13basic_ostreamIT_T0_ES6_PKS3_l@plt>
  401427:	ba 03 00 00 00       	mov    $0x3,%edx
  40142c:	be 95 55 40 00       	mov    $0x405595,%esi
  401431:	48 89 c7             	mov    %rax,%rdi
  401434:	e8 c7 fa ff ff       	callq  400f00 <_ZSt16__ostream_insertIcSt11char_traitsIcEERSt13basic_ostreamIT_T0_ES6_PKS3_l@plt>
  401439:	48 89 ef             	mov    %rbp,%rdi
  40143c:	4d 89 ee             	mov    %r13,%r14
  40143f:	e8 bc 37 00 00       	callq  404c00 <_ZN20matrixMultiplication11UsingMatrix9fibonacciEm>
  401444:	48 3b 03             	cmp    (%rbx),%rax
  401447:	ba 98 64 60 00       	mov    $0x606498,%edx
  40144c:	49 89 c4             	mov    %rax,%r12
  40144f:	48 89 43 18          	mov    %rax,0x18(%rbx)
  401453:	b8 a8 64 60 00       	mov    $0x6064a8,%eax
  401458:	bf 40 63 60 00       	mov    $0x606340,%edi
  40145d:	48 0f 44 c2          	cmove  %rdx,%rax
  401461:	4c 0f 44 f2          	cmove  %rdx,%r14
  401465:	48 8b 30             	mov    (%rax),%rsi
  401468:	48 8b 56 e8          	mov    -0x18(%rsi),%rdx
  40146c:	e8 8f fa ff ff       	callq  400f00 <_ZSt16__ostream_insertIcSt11char_traitsIcEERSt13basic_ostreamIT_T0_ES6_PKS3_l@plt>
  401471:	48 8b 10             	mov    (%rax),%rdx
  401474:	4c 89 e6             	mov    %r12,%rsi
  401477:	48 89 c7             	mov    %rax,%rdi
  40147a:	48 8b 52 e8          	mov    -0x18(%rdx),%rdx
  40147e:	48 c7 44 10 10 17 00 	movq   $0x17,0x10(%rax,%rdx,1)
  401485:	00 00 
  401487:	e8 64 fa ff ff       	callq  400ef0 <_ZNSo9_M_insertIyEERSoT_@plt>
  40148c:	49 8b 36             	mov    (%r14),%rsi
  40148f:	48 89 c7             	mov    %rax,%rdi
  401492:	48 8b 56 e8          	mov    -0x18(%rsi),%rdx
  401496:	e8 65 fa ff ff       	callq  400f00 <_ZSt16__ostream_insertIcSt11char_traitsIcEERSt13basic_ostreamIT_T0_ES6_PKS3_l@plt>
  40149b:	ba 03 00 00 00       	mov    $0x3,%edx
  4014a0:	be 95 55 40 00       	mov    $0x405595,%esi
  4014a5:	48 89 c7             	mov    %rax,%rdi
  4014a8:	e8 53 fa ff ff       	callq  400f00 <_ZSt16__ostream_insertIcSt11char_traitsIcEERSt13basic_ostreamIT_T0_ES6_PKS3_l@plt>
  4014ad:	48 89 ef             	mov    %rbp,%rdi
  4014b0:	4d 89 ee             	mov    %r13,%r14
  4014b3:	e8 b8 06 00 00       	callq  401b70 <_ZN23withoutLoopsOrRecursion9fibonacciEm>
  4014b8:	48 3b 03             	cmp    (%rbx),%rax
  4014bb:	ba 98 64 60 00       	mov    $0x606498,%edx
  4014c0:	49 89 c4             	mov    %rax,%r12
  4014c3:	48 89 43 20          	mov    %rax,0x20(%rbx)
  4014c7:	b8 a8 64 60 00       	mov    $0x6064a8,%eax
  4014cc:	bf 40 63 60 00       	mov    $0x606340,%edi
  4014d1:	48 0f 44 c2          	cmove  %rdx,%rax
  4014d5:	4c 0f 44 f2          	cmove  %rdx,%r14
  4014d9:	48 8b 30             	mov    (%rax),%rsi
  4014dc:	48 8b 56 e8          	mov    -0x18(%rsi),%rdx
  4014e0:	e8 1b fa ff ff       	callq  400f00 <_ZSt16__ostream_insertIcSt11char_traitsIcEERSt13basic_ostreamIT_T0_ES6_PKS3_l@plt>
  4014e5:	48 8b 10             	mov    (%rax),%rdx
  4014e8:	4c 89 e6             	mov    %r12,%rsi
  4014eb:	48 89 c7             	mov    %rax,%rdi
  4014ee:	48 8b 52 e8          	mov    -0x18(%rdx),%rdx
  4014f2:	48 c7 44 10 10 17 00 	movq   $0x17,0x10(%rax,%rdx,1)
  4014f9:	00 00 
  4014fb:	e8 f0 f9 ff ff       	callq  400ef0 <_ZNSo9_M_insertIyEERSoT_@plt>
  401500:	49 8b 36             	mov    (%r14),%rsi
  401503:	48 89 c7             	mov    %rax,%rdi
  401506:	48 8b 56 e8          	mov    -0x18(%rsi),%rdx
  40150a:	e8 f1 f9 ff ff       	callq  400f00 <_ZSt16__ostream_insertIcSt11char_traitsIcEERSt13basic_ostreamIT_T0_ES6_PKS3_l@plt>
  40150f:	ba 03 00 00 00       	mov    $0x3,%edx
  401514:	be 95 55 40 00       	mov    $0x405595,%esi
  401519:	48 89 c7             	mov    %rax,%rdi
  40151c:	e8 df f9 ff ff       	callq  400f00 <_ZSt16__ostream_insertIcSt11char_traitsIcEERSt13basic_ostreamIT_T0_ES6_PKS3_l@plt>
  401521:	48 8b 05 18 4e 20 00 	mov    0x204e18(%rip),%rax        # 606340 <__TMC_END__>
  401528:	48 8b 40 e8          	mov    -0x18(%rax),%rax
  40152c:	4c 8b a0 30 64 60 00 	mov    0x606430(%rax),%r12
  401533:	4d 85 e4             	test   %r12,%r12
  401536:	0f 84 21 03 00 00    	je     40185d <_Z14CompareResultsv+0x75d>
  40153c:	41 80 7c 24 38 00    	cmpb   $0x0,0x38(%r12)
  401542:	0f 85 48 fd ff ff    	jne    401290 <_Z14CompareResultsv+0x190>
  401548:	4c 89 e7             	mov    %r12,%rdi
  40154b:	e8 d0 f8 ff ff       	callq  400e20 <_ZNKSt5ctypeIcE13_M_widen_initEv@plt>
  401550:	49 8b 04 24          	mov    (%r12),%rax
  401554:	be 0a 00 00 00       	mov    $0xa,%esi
  401559:	4c 89 e7             	mov    %r12,%rdi
  40155c:	ff 50 30             	callq  *0x30(%rax)
  40155f:	e9 32 fd ff ff       	jmpq   401296 <_Z14CompareResultsv+0x196>
  401564:	0f 1f 40 00          	nopl   0x0(%rax)
  401568:	ba 23 00 00 00       	mov    $0x23,%edx
  40156d:	be b0 4d 40 00       	mov    $0x404db0,%esi
  401572:	bf 40 63 60 00       	mov    $0x606340,%edi
  401577:	e8 84 f9 ff ff       	callq  400f00 <_ZSt16__ostream_insertIcSt11char_traitsIcEERSt13basic_ostreamIT_T0_ES6_PKS3_l@plt>
  40157c:	48 8b 05 bd 4d 20 00 	mov    0x204dbd(%rip),%rax        # 606340 <__TMC_END__>
  401583:	48 8b 40 e8          	mov    -0x18(%rax),%rax
  401587:	48 8b a8 30 64 60 00 	mov    0x606430(%rax),%rbp
  40158e:	48 85 ed             	test   %rbp,%rbp
  401591:	0f 84 e3 02 00 00    	je     40187a <_Z14CompareResultsv+0x77a>
  401597:	80 7d 38 00          	cmpb   $0x0,0x38(%rbp)
  40159b:	0f 84 85 02 00 00    	je     401826 <_Z14CompareResultsv+0x726>
  4015a1:	0f b6 45 43          	movzbl 0x43(%rbp),%eax
  4015a5:	0f be f0             	movsbl %al,%esi
  4015a8:	bf 40 63 60 00       	mov    $0x606340,%edi
  4015ad:	e8 ee f9 ff ff       	callq  400fa0 <_ZNSo3putEc@plt>
  4015b2:	48 89 c7             	mov    %rax,%rdi
  4015b5:	e8 66 f9 ff ff       	callq  400f20 <_ZNSo5flushEv@plt>
  4015ba:	48 8b 05 7f 4d 20 00 	mov    0x204d7f(%rip),%rax        # 606340 <__TMC_END__>
  4015c1:	be 5d 00 00 00       	mov    $0x5d,%esi
  4015c6:	bf 40 63 60 00       	mov    $0x606340,%edi
  4015cb:	48 8b 40 e8          	mov    -0x18(%rax),%rax
  4015cf:	48 c7 80 50 63 60 00 	movq   $0x2,0x606350(%rax)
  4015d6:	02 00 00 00 
  4015da:	e8 11 f8 ff ff       	callq  400df0 <_ZNSolsEi@plt>
  4015df:	ba 03 00 00 00       	mov    $0x3,%edx
  4015e4:	be 95 55 40 00       	mov    $0x405595,%esi
  4015e9:	48 89 c7             	mov    %rax,%rdi
  4015ec:	48 89 c5             	mov    %rax,%rbp
  4015ef:	e8 0c f9 ff ff       	callq  400f00 <_ZSt16__ostream_insertIcSt11char_traitsIcEERSt13basic_ostreamIT_T0_ES6_PKS3_l@plt>
  4015f4:	48 8b 35 ad 4e 20 00 	mov    0x204ead(%rip),%rsi        # 6064a8 <_ZL3Red>
  4015fb:	48 89 ef             	mov    %rbp,%rdi
  4015fe:	48 8b 56 e8          	mov    -0x18(%rsi),%rdx
  401602:	e8 f9 f8 ff ff       	callq  400f00 <_ZSt16__ostream_insertIcSt11char_traitsIcEERSt13basic_ostreamIT_T0_ES6_PKS3_l@plt>
  401607:	48 8b 2c 24          	mov    (%rsp),%rbp
  40160b:	bf 5c 00 00 00       	mov    $0x5c,%edi
  401610:	ff d5                	callq  *%rbp
  401612:	bf 5b 00 00 00       	mov    $0x5b,%edi
  401617:	49 89 c4             	mov    %rax,%r12
  40161a:	ff d5                	callq  *%rbp
  40161c:	48 8b 15 1d 4d 20 00 	mov    0x204d1d(%rip),%rdx        # 606340 <__TMC_END__>
  401623:	49 8d 34 04          	lea    (%r12,%rax,1),%rsi
  401627:	bf 40 63 60 00       	mov    $0x606340,%edi
  40162c:	48 8b 52 e8          	mov    -0x18(%rdx),%rdx
  401630:	48 c7 82 50 63 60 00 	movq   $0x17,0x606350(%rdx)
  401637:	17 00 00 00 
  40163b:	e8 b0 f8 ff ff       	callq  400ef0 <_ZNSo9_M_insertIyEERSoT_@plt>
  401640:	ba 03 00 00 00       	mov    $0x3,%edx
  401645:	be 95 55 40 00       	mov    $0x405595,%esi
  40164a:	48 89 c7             	mov    %rax,%rdi
  40164d:	e8 ae f8 ff ff       	callq  400f00 <_ZSt16__ostream_insertIcSt11char_traitsIcEERSt13basic_ostreamIT_T0_ES6_PKS3_l@plt>
  401652:	48 8b 6c 24 08       	mov    0x8(%rsp),%rbp
  401657:	bf 5c 00 00 00       	mov    $0x5c,%edi
  40165c:	ff d5                	callq  *%rbp
  40165e:	bf 5b 00 00 00       	mov    $0x5b,%edi
  401663:	49 89 c4             	mov    %rax,%r12
  401666:	ff d5                	callq  *%rbp
  401668:	48 8b 15 d1 4c 20 00 	mov    0x204cd1(%rip),%rdx        # 606340 <__TMC_END__>
  40166f:	49 8d 34 04          	lea    (%r12,%rax,1),%rsi
  401673:	bf 40 63 60 00       	mov    $0x606340,%edi
  401678:	48 8b 52 e8          	mov    -0x18(%rdx),%rdx
  40167c:	48 c7 82 50 63 60 00 	movq   $0x17,0x606350(%rdx)
  401683:	17 00 00 00 
  401687:	e8 64 f8 ff ff       	callq  400ef0 <_ZNSo9_M_insertIyEERSoT_@plt>
  40168c:	ba 03 00 00 00       	mov    $0x3,%edx
  401691:	be 95 55 40 00       	mov    $0x405595,%esi
  401696:	48 89 c7             	mov    %rax,%rdi
  401699:	e8 62 f8 ff ff       	callq  400f00 <_ZSt16__ostream_insertIcSt11char_traitsIcEERSt13basic_ostreamIT_T0_ES6_PKS3_l@plt>
  40169e:	48 8b 6c 24 10       	mov    0x10(%rsp),%rbp
  4016a3:	bf 5c 00 00 00       	mov    $0x5c,%edi
  4016a8:	ff d5                	callq  *%rbp
  4016aa:	bf 5b 00 00 00       	mov    $0x5b,%edi
  4016af:	49 89 c4             	mov    %rax,%r12
  4016b2:	ff d5                	callq  *%rbp
  4016b4:	48 8b 15 85 4c 20 00 	mov    0x204c85(%rip),%rdx        # 606340 <__TMC_END__>
  4016bb:	49 8d 34 04          	lea    (%r12,%rax,1),%rsi
  4016bf:	bf 40 63 60 00       	mov    $0x606340,%edi
  4016c4:	48 8b 52 e8          	mov    -0x18(%rdx),%rdx
  4016c8:	48 c7 82 50 63 60 00 	movq   $0x17,0x606350(%rdx)
  4016cf:	17 00 00 00 
  4016d3:	e8 18 f8 ff ff       	callq  400ef0 <_ZNSo9_M_insertIyEERSoT_@plt>
  4016d8:	ba 03 00 00 00       	mov    $0x3,%edx
  4016dd:	be 95 55 40 00       	mov    $0x405595,%esi
  4016e2:	48 89 c7             	mov    %rax,%rdi
  4016e5:	e8 16 f8 ff ff       	callq  400f00 <_ZSt16__ostream_insertIcSt11char_traitsIcEERSt13basic_ostreamIT_T0_ES6_PKS3_l@plt>
  4016ea:	48 8b 6c 24 18       	mov    0x18(%rsp),%rbp
  4016ef:	bf 5c 00 00 00       	mov    $0x5c,%edi
  4016f4:	ff d5                	callq  *%rbp
  4016f6:	bf 5b 00 00 00       	mov    $0x5b,%edi
  4016fb:	49 89 c4             	mov    %rax,%r12
  4016fe:	ff d5                	callq  *%rbp
  401700:	48 8b 15 39 4c 20 00 	mov    0x204c39(%rip),%rdx        # 606340 <__TMC_END__>
  401707:	49 8d 34 04          	lea    (%r12,%rax,1),%rsi
  40170b:	bf 40 63 60 00       	mov    $0x606340,%edi
  401710:	48 8b 52 e8          	mov    -0x18(%rdx),%rdx
  401714:	48 c7 82 50 63 60 00 	movq   $0x17,0x606350(%rdx)
  40171b:	17 00 00 00 
  40171f:	e8 cc f7 ff ff       	callq  400ef0 <_ZNSo9_M_insertIyEERSoT_@plt>
  401724:	ba 03 00 00 00       	mov    $0x3,%edx
  401729:	be 95 55 40 00       	mov    $0x405595,%esi
  40172e:	48 89 c7             	mov    %rax,%rdi
  401731:	e8 ca f7 ff ff       	callq  400f00 <_ZSt16__ostream_insertIcSt11char_traitsIcEERSt13basic_ostreamIT_T0_ES6_PKS3_l@plt>
  401736:	48 8b 6c 24 20       	mov    0x20(%rsp),%rbp
  40173b:	bf 5c 00 00 00       	mov    $0x5c,%edi
  401740:	ff d5                	callq  *%rbp
  401742:	bf 5b 00 00 00       	mov    $0x5b,%edi
  401747:	49 89 c4             	mov    %rax,%r12
  40174a:	ff d5                	callq  *%rbp
  40174c:	48 8b 15 ed 4b 20 00 	mov    0x204bed(%rip),%rdx        # 606340 <__TMC_END__>
  401753:	4a 8d 34 20          	lea    (%rax,%r12,1),%rsi
  401757:	bf 40 63 60 00       	mov    $0x606340,%edi
  40175c:	48 8b 52 e8          	mov    -0x18(%rdx),%rdx
  401760:	48 c7 82 50 63 60 00 	movq   $0x17,0x606350(%rdx)
  401767:	17 00 00 00 
  40176b:	e8 80 f7 ff ff       	callq  400ef0 <_ZNSo9_M_insertIyEERSoT_@plt>
  401770:	ba 03 00 00 00       	mov    $0x3,%edx
  401775:	be 95 55 40 00       	mov    $0x405595,%esi
  40177a:	48 89 c7             	mov    %rax,%rdi
  40177d:	e8 7e f7 ff ff       	callq  400f00 <_ZSt16__ostream_insertIcSt11char_traitsIcEERSt13basic_ostreamIT_T0_ES6_PKS3_l@plt>
  401782:	48 8b 35 17 4d 20 00 	mov    0x204d17(%rip),%rsi        # 6064a0 <_ZL5Reset>
  401789:	bf 40 63 60 00       	mov    $0x606340,%edi
  40178e:	48 8b 56 e8          	mov    -0x18(%rsi),%rdx
  401792:	e8 69 f7 ff ff       	callq  400f00 <_ZSt16__ostream_insertIcSt11char_traitsIcEERSt13basic_ostreamIT_T0_ES6_PKS3_l@plt>
  401797:	49 89 c4             	mov    %rax,%r12
  40179a:	48 8b 00             	mov    (%rax),%rax
  40179d:	48 8b 40 e8          	mov    -0x18(%rax),%rax
  4017a1:	49 8b ac 04 f0 00 00 	mov    0xf0(%r12,%rax,1),%rbp
  4017a8:	00 
  4017a9:	48 85 ed             	test   %rbp,%rbp
  4017ac:	0f 84 c3 00 00 00    	je     401875 <_Z14CompareResultsv+0x775>
  4017b2:	80 7d 38 00          	cmpb   $0x0,0x38(%rbp)
  4017b6:	74 55                	je     40180d <_Z14CompareResultsv+0x70d>
  4017b8:	0f b6 45 43          	movzbl 0x43(%rbp),%eax
  4017bc:	0f be f0             	movsbl %al,%esi
  4017bf:	4c 89 e7             	mov    %r12,%rdi
  4017c2:	e8 d9 f7 ff ff       	callq  400fa0 <_ZNSo3putEc@plt>
  4017c7:	48 89 c7             	mov    %rax,%rdi
  4017ca:	e8 51 f7 ff ff       	callq  400f20 <_ZNSo5flushEv@plt>
  4017cf:	48 83 c4 30          	add    $0x30,%rsp
  4017d3:	48 89 df             	mov    %rbx,%rdi
  4017d6:	5b                   	pop    %rbx
  4017d7:	5d                   	pop    %rbp
  4017d8:	41 5c                	pop    %r12
  4017da:	41 5d                	pop    %r13
  4017dc:	41 5e                	pop    %r14
  4017de:	e9 2d f6 ff ff       	jmpq   400e10 <_ZdlPv@plt>
  4017e3:	bf 40 63 60 00       	mov    $0x606340,%edi
  4017e8:	e8 f3 f8 ff ff       	callq  4010e0 <_ZStlsISt11char_traitsIcEERSt13basic_ostreamIcT_ES5_PKc.part.1>
  4017ed:	e9 12 fa ff ff       	jmpq   401204 <_Z14CompareResultsv+0x104>
  4017f2:	48 89 df             	mov    %rbx,%rdi
  4017f5:	e8 26 f6 ff ff       	callq  400e20 <_ZNKSt5ctypeIcE13_M_widen_initEv@plt>
  4017fa:	48 8b 03             	mov    (%rbx),%rax
  4017fd:	be 0a 00 00 00       	mov    $0xa,%esi
  401802:	48 89 df             	mov    %rbx,%rdi
  401805:	ff 50 30             	callq  *0x30(%rax)
  401808:	e9 65 f9 ff ff       	jmpq   401172 <_Z14CompareResultsv+0x72>
  40180d:	48 89 ef             	mov    %rbp,%rdi
  401810:	e8 0b f6 ff ff       	callq  400e20 <_ZNKSt5ctypeIcE13_M_widen_initEv@plt>
  401815:	48 8b 45 00          	mov    0x0(%rbp),%rax
  401819:	be 0a 00 00 00       	mov    $0xa,%esi
  40181e:	48 89 ef             	mov    %rbp,%rdi
  401821:	ff 50 30             	callq  *0x30(%rax)
  401824:	eb 96                	jmp    4017bc <_Z14CompareResultsv+0x6bc>
  401826:	48 89 ef             	mov    %rbp,%rdi
  401829:	e8 f2 f5 ff ff       	callq  400e20 <_ZNKSt5ctypeIcE13_M_widen_initEv@plt>
  40182e:	48 8b 45 00          	mov    0x0(%rbp),%rax
  401832:	be 0a 00 00 00       	mov    $0xa,%esi
  401837:	48 89 ef             	mov    %rbp,%rdi
  40183a:	ff 50 30             	callq  *0x30(%rax)
  40183d:	e9 63 fd ff ff       	jmpq   4015a5 <_Z14CompareResultsv+0x4a5>
  401842:	48 89 df             	mov    %rbx,%rdi
  401845:	e8 d6 f5 ff ff       	callq  400e20 <_ZNKSt5ctypeIcE13_M_widen_initEv@plt>
  40184a:	48 8b 03             	mov    (%rbx),%rax
  40184d:	be 0a 00 00 00       	mov    $0xa,%esi
  401852:	48 89 df             	mov    %rbx,%rdi
  401855:	ff 50 30             	callq  *0x30(%rax)
  401858:	e9 dd f9 ff ff       	jmpq   40123a <_Z14CompareResultsv+0x13a>
  40185d:	e8 9e f5 ff ff       	callq  400e00 <_ZSt16__throw_bad_castv@plt>
  401862:	48 89 c5             	mov    %rax,%rbp
  401865:	48 89 df             	mov    %rbx,%rdi
  401868:	e8 a3 f5 ff ff       	callq  400e10 <_ZdlPv@plt>
  40186d:	48 89 ef             	mov    %rbp,%rdi
  401870:	e8 1b f7 ff ff       	callq  400f90 <_Unwind_Resume@plt>
  401875:	e8 86 f5 ff ff       	callq  400e00 <_ZSt16__throw_bad_castv@plt>
  40187a:	e8 81 f5 ff ff       	callq  400e00 <_ZSt16__throw_bad_castv@plt>
  40187f:	90                   	nop
  401880:	e8 7b f5 ff ff       	callq  400e00 <_ZSt16__throw_bad_castv@plt>
  401885:	66 66 2e 0f 1f 84 00 	data32 nopw %cs:0x0(%rax,%rax,1)
  40188c:	00 00 00 00 

0000000000401890 <_Z21TestBadAndInefficientv>:
  401890:	41 54                	push   %r12
  401892:	bf 40 63 60 00       	mov    $0x606340,%edi
  401897:	55                   	push   %rbp
  401898:	53                   	push   %rbx
  401899:	48 83 ec 20          	sub    $0x20,%rsp
  40189d:	48 8b 35 e4 4b 20 00 	mov    0x204be4(%rip),%rsi        # 606488 <_ZL10BeginTitle>
  4018a4:	48 8b 56 e8          	mov    -0x18(%rsi),%rdx
  4018a8:	e8 53 f6 ff ff       	callq  400f00 <_ZSt16__ostream_insertIcSt11char_traitsIcEERSt13basic_ostreamIT_T0_ES6_PKS3_l@plt>
  4018ad:	ba 4a 00 00 00       	mov    $0x4a,%edx
  4018b2:	be d8 4d 40 00       	mov    $0x404dd8,%esi
  4018b7:	48 89 c7             	mov    %rax,%rdi
  4018ba:	48 89 c3             	mov    %rax,%rbx
  4018bd:	e8 3e f6 ff ff       	callq  400f00 <_ZSt16__ostream_insertIcSt11char_traitsIcEERSt13basic_ostreamIT_T0_ES6_PKS3_l@plt>
  4018c2:	48 8b 35 c7 4b 20 00 	mov    0x204bc7(%rip),%rsi        # 606490 <_ZL8EndTitle>
  4018c9:	48 89 df             	mov    %rbx,%rdi
  4018cc:	48 8b 56 e8          	mov    -0x18(%rsi),%rdx
  4018d0:	e8 2b f6 ff ff       	callq  400f00 <_ZSt16__ostream_insertIcSt11char_traitsIcEERSt13basic_ostreamIT_T0_ES6_PKS3_l@plt>
  4018d5:	48 89 c5             	mov    %rax,%rbp
  4018d8:	48 8b 00             	mov    (%rax),%rax
  4018db:	48 8b 40 e8          	mov    -0x18(%rax),%rax
  4018df:	48 8b 9c 05 f0 00 00 	mov    0xf0(%rbp,%rax,1),%rbx
  4018e6:	00 
  4018e7:	48 85 db             	test   %rbx,%rbx
  4018ea:	0f 84 40 02 00 00    	je     401b30 <_Z21TestBadAndInefficientv+0x2a0>
  4018f0:	80 7b 38 00          	cmpb   $0x0,0x38(%rbx)
  4018f4:	0f 84 1b 02 00 00    	je     401b15 <_Z21TestBadAndInefficientv+0x285>
  4018fa:	0f b6 43 43          	movzbl 0x43(%rbx),%eax
  4018fe:	0f be f0             	movsbl %al,%esi
  401901:	48 89 ef             	mov    %rbp,%rdi
  401904:	45 31 e4             	xor    %r12d,%r12d
  401907:	e8 94 f6 ff ff       	callq  400fa0 <_ZNSo3putEc@plt>
  40190c:	48 89 c7             	mov    %rax,%rdi
  40190f:	31 ed                	xor    %ebp,%ebp
  401911:	e8 0a f6 ff ff       	callq  400f20 <_ZNSo5flushEv@plt>
  401916:	e8 c5 f5 ff ff       	callq  400ee0 <_ZNSt6chrono12system_clock3nowEv@plt>
  40191b:	be 01 00 00 00       	mov    $0x1,%esi
  401920:	48 89 44 24 10       	mov    %rax,0x10(%rsp)
  401925:	0f 1f 00             	nopl   (%rax)
  401928:	48 01 f5             	add    %rsi,%rbp
  40192b:	e8 b0 f5 ff ff       	callq  400ee0 <_ZNSt6chrono12system_clock3nowEv@plt>
  401930:	48 89 44 24 18       	mov    %rax,0x18(%rsp)
  401935:	48 2b 44 24 10       	sub    0x10(%rsp),%rax
  40193a:	ba 01 00 00 00       	mov    $0x1,%edx
  40193f:	be 4b 4e 40 00       	mov    $0x404e4b,%esi
  401944:	bf 40 63 60 00       	mov    $0x606340,%edi
  401949:	f2 48 0f 2a c0       	cvtsi2sd %rax,%xmm0
  40194e:	f2 0f 5e 05 f2 35 00 	divsd  0x35f2(%rip),%xmm0        # 404f48 <._92+0x48>
  401955:	00 
  401956:	f2 0f 11 44 24 08    	movsd  %xmm0,0x8(%rsp)
  40195c:	e8 9f f5 ff ff       	callq  400f00 <_ZSt16__ostream_insertIcSt11char_traitsIcEERSt13basic_ostreamIT_T0_ES6_PKS3_l@plt>
  401961:	4c 89 e6             	mov    %r12,%rsi
  401964:	bf 40 63 60 00       	mov    $0x606340,%edi
  401969:	e8 d2 f5 ff ff       	callq  400f40 <_ZNSo9_M_insertImEERSoT_@plt>
  40196e:	ba 03 00 00 00       	mov    $0x3,%edx
  401973:	48 89 c3             	mov    %rax,%rbx
  401976:	be 4d 4e 40 00       	mov    $0x404e4d,%esi
  40197b:	48 89 c7             	mov    %rax,%rdi
  40197e:	e8 7d f5 ff ff       	callq  400f00 <_ZSt16__ostream_insertIcSt11char_traitsIcEERSt13basic_ostreamIT_T0_ES6_PKS3_l@plt>
  401983:	48 8b 03             	mov    (%rbx),%rax
  401986:	48 89 ee             	mov    %rbp,%rsi
  401989:	48 89 df             	mov    %rbx,%rdi
  40198c:	48 8b 40 e8          	mov    -0x18(%rax),%rax
  401990:	48 c7 44 03 10 16 00 	movq   $0x16,0x10(%rbx,%rax,1)
  401997:	00 00 
  401999:	bb 98 64 60 00       	mov    $0x606498,%ebx
  40199e:	e8 4d f5 ff ff       	callq  400ef0 <_ZNSo9_M_insertIyEERSoT_@plt>
  4019a3:	f2 0f 10 44 24 08    	movsd  0x8(%rsp),%xmm0
  4019a9:	b8 a8 64 60 00       	mov    $0x6064a8,%eax
  4019ae:	ba 06 00 00 00       	mov    $0x6,%edx
  4019b3:	be 51 4e 40 00       	mov    $0x404e51,%esi
  4019b8:	bf 40 63 60 00       	mov    $0x606340,%edi
  4019bd:	66 0f 2e 05 8b 35 00 	ucomisd 0x358b(%rip),%xmm0        # 404f50 <._92+0x50>
  4019c4:	00 
  4019c5:	48 0f 47 d8          	cmova  %rax,%rbx
  4019c9:	e8 32 f5 ff ff       	callq  400f00 <_ZSt16__ostream_insertIcSt11char_traitsIcEERSt13basic_ostreamIT_T0_ES6_PKS3_l@plt>
  4019ce:	48 8b 33             	mov    (%rbx),%rsi
  4019d1:	bf 40 63 60 00       	mov    $0x606340,%edi
  4019d6:	48 8b 56 e8          	mov    -0x18(%rsi),%rdx
  4019da:	e8 21 f5 ff ff       	callq  400f00 <_ZSt16__ostream_insertIcSt11char_traitsIcEERSt13basic_ostreamIT_T0_ES6_PKS3_l@plt>
  4019df:	48 8b 10             	mov    (%rax),%rdx
  4019e2:	f2 0f 10 44 24 08    	movsd  0x8(%rsp),%xmm0
  4019e8:	48 89 c7             	mov    %rax,%rdi
  4019eb:	48 8b 4a e8          	mov    -0x18(%rdx),%rcx
  4019ef:	48 c7 44 08 10 0a 00 	movq   $0xa,0x10(%rax,%rcx,1)
  4019f6:	00 00 
  4019f8:	48 89 c1             	mov    %rax,%rcx
  4019fb:	48 03 4a e8          	add    -0x18(%rdx),%rcx
  4019ff:	8b 51 18             	mov    0x18(%rcx),%edx
  401a02:	48 c7 41 08 06 00 00 	movq   $0x6,0x8(%rcx)
  401a09:	00 
  401a0a:	81 e2 fb fe ff ff    	and    $0xfffffefb,%edx
  401a10:	83 ca 04             	or     $0x4,%edx
  401a13:	89 51 18             	mov    %edx,0x18(%rcx)
  401a16:	e8 35 f5 ff ff       	callq  400f50 <_ZNSo9_M_insertIdEERSoT_@plt>
  401a1b:	48 8b 35 7e 4a 20 00 	mov    0x204a7e(%rip),%rsi        # 6064a0 <_ZL5Reset>
  401a22:	48 89 c7             	mov    %rax,%rdi
  401a25:	48 8b 56 e8          	mov    -0x18(%rsi),%rdx
  401a29:	e8 d2 f4 ff ff       	callq  400f00 <_ZSt16__ostream_insertIcSt11char_traitsIcEERSt13basic_ostreamIT_T0_ES6_PKS3_l@plt>
  401a2e:	ba 1a 00 00 00       	mov    $0x1a,%edx
  401a33:	48 89 c3             	mov    %rax,%rbx
  401a36:	be 58 4e 40 00       	mov    $0x404e58,%esi
  401a3b:	48 89 c7             	mov    %rax,%rdi
  401a3e:	e8 bd f4 ff ff       	callq  400f00 <_ZSt16__ostream_insertIcSt11char_traitsIcEERSt13basic_ostreamIT_T0_ES6_PKS3_l@plt>
  401a43:	48 8b 03             	mov    (%rbx),%rax
  401a46:	48 8b 40 e8          	mov    -0x18(%rax),%rax
  401a4a:	48 8b ac 03 f0 00 00 	mov    0xf0(%rbx,%rax,1),%rbp
  401a51:	00 
  401a52:	48 85 ed             	test   %rbp,%rbp
  401a55:	0f 84 d5 00 00 00    	je     401b30 <_Z21TestBadAndInefficientv+0x2a0>
  401a5b:	80 7d 38 00          	cmpb   $0x0,0x38(%rbp)
  401a5f:	0f 84 8b 00 00 00    	je     401af0 <_Z21TestBadAndInefficientv+0x260>
  401a65:	0f b6 45 43          	movzbl 0x43(%rbp),%eax
  401a69:	0f be f0             	movsbl %al,%esi
  401a6c:	48 89 df             	mov    %rbx,%rdi
  401a6f:	e8 2c f5 ff ff       	callq  400fa0 <_ZNSo3putEc@plt>
  401a74:	48 89 c7             	mov    %rax,%rdi
  401a77:	e8 a4 f4 ff ff       	callq  400f20 <_ZNSo5flushEv@plt>
  401a7c:	f2 0f 10 44 24 08    	movsd  0x8(%rsp),%xmm0
  401a82:	66 0f 2e 05 ce 34 00 	ucomisd 0x34ce(%rip),%xmm0        # 404f58 <._92+0x58>
  401a89:	00 
  401a8a:	0f 87 7c 00 00 00    	ja     401b0c <_Z21TestBadAndInefficientv+0x27c>
  401a90:	49 83 c4 01          	add    $0x1,%r12
  401a94:	49 83 fc 5d          	cmp    $0x5d,%r12
  401a98:	74 72                	je     401b0c <_Z21TestBadAndInefficientv+0x27c>
  401a9a:	e8 41 f4 ff ff       	callq  400ee0 <_ZNSt6chrono12system_clock3nowEv@plt>
  401a9f:	49 83 fc 01          	cmp    $0x1,%r12
  401aa3:	48 89 44 24 10       	mov    %rax,0x10(%rsp)
  401aa8:	0f 84 87 00 00 00    	je     401b35 <_Z21TestBadAndInefficientv+0x2a5>
  401aae:	4c 89 e3             	mov    %r12,%rbx
  401ab1:	31 ed                	xor    %ebp,%ebp
  401ab3:	eb 09                	jmp    401abe <_Z21TestBadAndInefficientv+0x22e>
  401ab5:	0f 1f 00             	nopl   (%rax)
  401ab8:	48 83 fb 01          	cmp    $0x1,%rbx
  401abc:	76 22                	jbe    401ae0 <_Z21TestBadAndInefficientv+0x250>
  401abe:	48 8d 7b ff          	lea    -0x1(%rbx),%rdi
  401ac2:	48 83 eb 02          	sub    $0x2,%rbx
  401ac6:	e8 b5 01 00 00       	callq  401c80 <_ZN21evilBadAndInefficient9fibonacciEm>
  401acb:	48 01 c5             	add    %rax,%rbp
  401ace:	48 83 fb 5c          	cmp    $0x5c,%rbx
  401ad2:	76 e4                	jbe    401ab8 <_Z21TestBadAndInefficientv+0x228>
  401ad4:	48 c7 c6 ff ff ff ff 	mov    $0xffffffffffffffff,%rsi
  401adb:	e9 48 fe ff ff       	jmpq   401928 <_Z21TestBadAndInefficientv+0x98>
  401ae0:	be 01 00 00 00       	mov    $0x1,%esi
  401ae5:	e9 3e fe ff ff       	jmpq   401928 <_Z21TestBadAndInefficientv+0x98>
  401aea:	66 0f 1f 44 00 00    	nopw   0x0(%rax,%rax,1)
  401af0:	48 89 ef             	mov    %rbp,%rdi
  401af3:	e8 28 f3 ff ff       	callq  400e20 <_ZNKSt5ctypeIcE13_M_widen_initEv@plt>
  401af8:	48 8b 45 00          	mov    0x0(%rbp),%rax
  401afc:	be 0a 00 00 00       	mov    $0xa,%esi
  401b01:	48 89 ef             	mov    %rbp,%rdi
  401b04:	ff 50 30             	callq  *0x30(%rax)
  401b07:	e9 5d ff ff ff       	jmpq   401a69 <_Z21TestBadAndInefficientv+0x1d9>
  401b0c:	48 83 c4 20          	add    $0x20,%rsp
  401b10:	5b                   	pop    %rbx
  401b11:	5d                   	pop    %rbp
  401b12:	41 5c                	pop    %r12
  401b14:	c3                   	retq   
  401b15:	48 89 df             	mov    %rbx,%rdi
  401b18:	e8 03 f3 ff ff       	callq  400e20 <_ZNKSt5ctypeIcE13_M_widen_initEv@plt>
  401b1d:	48 8b 03             	mov    (%rbx),%rax
  401b20:	be 0a 00 00 00       	mov    $0xa,%esi
  401b25:	48 89 df             	mov    %rbx,%rdi
  401b28:	ff 50 30             	callq  *0x30(%rax)
  401b2b:	e9 ce fd ff ff       	jmpq   4018fe <_Z21TestBadAndInefficientv+0x6e>
  401b30:	e8 cb f2 ff ff       	callq  400e00 <_ZSt16__throw_bad_castv@plt>
  401b35:	31 ed                	xor    %ebp,%ebp
  401b37:	be 01 00 00 00       	mov    $0x1,%esi
  401b3c:	e9 e7 fd ff ff       	jmpq   401928 <_Z21TestBadAndInefficientv+0x98>
  401b41:	90                   	nop
  401b42:	90                   	nop
  401b43:	90                   	nop
  401b44:	90                   	nop
  401b45:	90                   	nop
  401b46:	90                   	nop
  401b47:	90                   	nop
  401b48:	90                   	nop
  401b49:	90                   	nop
  401b4a:	90                   	nop
  401b4b:	90                   	nop
  401b4c:	90                   	nop
  401b4d:	90                   	nop
  401b4e:	90                   	nop
  401b4f:	90                   	nop

0000000000401b50 <_ZN14metaprogrammed12ConstantTime9fibonacciEm>:
  401b50:	48 83 ff 5c          	cmp    $0x5c,%rdi
  401b54:	48 c7 c0 ff ff ff ff 	mov    $0xffffffffffffffff,%rax
  401b5b:	76 03                	jbe    401b60 <_ZN14metaprogrammed12ConstantTime9fibonacciEm+0x10>
  401b5d:	f3 c3                	repz retq 
  401b5f:	90                   	nop
  401b60:	48 8b 04 fd 60 4f 40 	mov    0x404f60(,%rdi,8),%rax
  401b67:	00 
  401b68:	c3                   	retq   
  401b69:	90                   	nop
  401b6a:	90                   	nop
  401b6b:	90                   	nop
  401b6c:	90                   	nop
  401b6d:	90                   	nop
  401b6e:	90                   	nop
  401b6f:	90                   	nop

0000000000401b70 <_ZN23withoutLoopsOrRecursion9fibonacciEm>:
  401b70:	48 83 ec 08          	sub    $0x8,%rsp
  401b74:	48 83 c7 01          	add    $0x1,%rdi
  401b78:	78 5e                	js     401bd8 <_ZN23withoutLoopsOrRecursion9fibonacciEm+0x68>
  401b7a:	f2 48 0f 2a cf       	cvtsi2sd %rdi,%xmm1
  401b7f:	f2 0f 10 05 a1 33 00 	movsd  0x33a1(%rip),%xmm0        # 404f28 <._92+0x28>
  401b86:	00 
  401b87:	e8 34 f3 ff ff       	callq  400ec0 <pow@plt>
  401b8c:	f2 0f 59 05 9c 33 00 	mulsd  0x339c(%rip),%xmm0        # 404f30 <._92+0x30>
  401b93:	00 
  401b94:	f2 0f 10 0d a4 33 00 	movsd  0x33a4(%rip),%xmm1        # 404f40 <._92+0x40>
  401b9b:	00 
  401b9c:	f2 0f 58 05 94 33 00 	addsd  0x3394(%rip),%xmm0        # 404f38 <._92+0x38>
  401ba3:	00 
  401ba4:	66 0f 2e c1          	ucomisd %xmm1,%xmm0
  401ba8:	73 0e                	jae    401bb8 <_ZN23withoutLoopsOrRecursion9fibonacciEm+0x48>
  401baa:	f2 48 0f 2c c0       	cvttsd2si %xmm0,%rax
  401baf:	48 83 c4 08          	add    $0x8,%rsp
  401bb3:	c3                   	retq   
  401bb4:	0f 1f 40 00          	nopl   0x0(%rax)
  401bb8:	f2 0f 5c c1          	subsd  %xmm1,%xmm0
  401bbc:	48 ba 00 00 00 00 00 	mov    $0x8000000000000000,%rdx
  401bc3:	00 00 80 
  401bc6:	48 83 c4 08          	add    $0x8,%rsp
  401bca:	f2 48 0f 2c c0       	cvttsd2si %xmm0,%rax
  401bcf:	48 31 d0             	xor    %rdx,%rax
  401bd2:	c3                   	retq   
  401bd3:	0f 1f 44 00 00       	nopl   0x0(%rax,%rax,1)
  401bd8:	48 89 f8             	mov    %rdi,%rax
  401bdb:	83 e7 01             	and    $0x1,%edi
  401bde:	48 d1 e8             	shr    %rax
  401be1:	48 09 f8             	or     %rdi,%rax
  401be4:	f2 48 0f 2a c8       	cvtsi2sd %rax,%xmm1
  401be9:	f2 0f 58 c9          	addsd  %xmm1,%xmm1
  401bed:	eb 90                	jmp    401b7f <_ZN23withoutLoopsOrRecursion9fibonacciEm+0xf>
  401bef:	90                   	nop

0000000000401bf0 <_ZN4loop9fibonacciEm>:
  401bf0:	48 83 ff 5c          	cmp    $0x5c,%rdi
  401bf4:	48 c7 c0 ff ff ff ff 	mov    $0xffffffffffffffff,%rax
  401bfb:	76 03                	jbe    401c00 <_ZN4loop9fibonacciEm+0x10>
  401bfd:	f3 c3                	repz retq 
  401bff:	90                   	nop
  401c00:	48 85 ff             	test   %rdi,%rdi
  401c03:	b8 01 00 00 00       	mov    $0x1,%eax
  401c08:	74 f3                	je     401bfd <_ZN4loop9fibonacciEm+0xd>
  401c0a:	48 83 ef 01          	sub    $0x1,%rdi
  401c0e:	74 ed                	je     401bfd <_ZN4loop9fibonacciEm+0xd>
  401c10:	b9 01 00 00 00       	mov    $0x1,%ecx
  401c15:	ba 01 00 00 00       	mov    $0x1,%edx
  401c1a:	eb 07                	jmp    401c23 <_ZN4loop9fibonacciEm+0x33>
  401c1c:	0f 1f 40 00          	nopl   0x0(%rax)
  401c20:	48 89 c2             	mov    %rax,%rdx
  401c23:	48 83 ef 01          	sub    $0x1,%rdi
  401c27:	48 8d 04 11          	lea    (%rcx,%rdx,1),%rax
  401c2b:	48 89 d1             	mov    %rdx,%rcx
  401c2e:	75 f0                	jne    401c20 <_ZN4loop9fibonacciEm+0x30>
  401c30:	f3 c3                	repz retq 
  401c32:	90                   	nop
  401c33:	90                   	nop
  401c34:	90                   	nop
  401c35:	90                   	nop
  401c36:	90                   	nop
  401c37:	90                   	nop
  401c38:	90                   	nop
  401c39:	90                   	nop
  401c3a:	90                   	nop
  401c3b:	90                   	nop
  401c3c:	90                   	nop
  401c3d:	90                   	nop
  401c3e:	90                   	nop
  401c3f:	90                   	nop

0000000000401c40 <_ZN17goodRecursionImplIyE9fibonacciEm>:
  401c40:	48 83 ff 5c          	cmp    $0x5c,%rdi
  401c44:	48 c7 c0 ff ff ff ff 	mov    $0xffffffffffffffff,%rax
  401c4b:	76 03                	jbe    401c50 <_ZN17goodRecursionImplIyE9fibonacciEm+0x10>
  401c4d:	f3 c3                	repz retq 
  401c4f:	90                   	nop
  401c50:	48 85 ff             	test   %rdi,%rdi
  401c53:	74 1d                	je     401c72 <_ZN17goodRecursionImplIyE9fibonacciEm+0x32>
  401c55:	31 c9                	xor    %ecx,%ecx
  401c57:	ba 01 00 00 00       	mov    $0x1,%edx
  401c5c:	eb 05                	jmp    401c63 <_ZN17goodRecursionImplIyE9fibonacciEm+0x23>
  401c5e:	66 90                	xchg   %ax,%ax
  401c60:	48 89 c2             	mov    %rax,%rdx
  401c63:	48 83 ef 01          	sub    $0x1,%rdi
  401c67:	48 8d 04 11          	lea    (%rcx,%rdx,1),%rax
  401c6b:	48 89 d1             	mov    %rdx,%rcx
  401c6e:	75 f0                	jne    401c60 <_ZN17goodRecursionImplIyE9fibonacciEm+0x20>
  401c70:	f3 c3                	repz retq 
  401c72:	b8 01 00 00 00       	mov    $0x1,%eax
  401c77:	c3                   	retq   
  401c78:	90                   	nop
  401c79:	90                   	nop
  401c7a:	90                   	nop
  401c7b:	90                   	nop
  401c7c:	90                   	nop
  401c7d:	90                   	nop
  401c7e:	90                   	nop
  401c7f:	90                   	nop

0000000000401c80 <_ZN21evilBadAndInefficient9fibonacciEm>:
  401c80:	48 83 ff 5c          	cmp    $0x5c,%rdi
  401c84:	48 c7 c0 ff ff ff ff 	mov    $0xffffffffffffffff,%rax
  401c8b:	0f 87 27 02 00 00    	ja     401eb8 <_ZN21evilBadAndInefficient9fibonacciEm+0x238>
  401c91:	41 57                	push   %r15
  401c93:	b8 01 00 00 00       	mov    $0x1,%eax
  401c98:	41 56                	push   %r14
  401c9a:	41 55                	push   %r13
  401c9c:	41 54                	push   %r12
  401c9e:	55                   	push   %rbp
  401c9f:	53                   	push   %rbx
  401ca0:	48 83 ec 68          	sub    $0x68,%rsp
  401ca4:	48 83 ff 01          	cmp    $0x1,%rdi
  401ca8:	48 c7 44 24 20 00 00 	movq   $0x0,0x20(%rsp)
  401caf:	00 00 
  401cb1:	0f 86 f3 01 00 00    	jbe    401eaa <_ZN21evilBadAndInefficient9fibonacciEm+0x22a>
  401cb7:	48 8d 47 ff          	lea    -0x1(%rdi),%rax
  401cbb:	48 83 f8 01          	cmp    $0x1,%rax
  401cbf:	0f 86 b7 01 00 00    	jbe    401e7c <_ZN21evilBadAndInefficient9fibonacciEm+0x1fc>
  401cc5:	48 83 ef 02          	sub    $0x2,%rdi
  401cc9:	48 c7 44 24 28 00 00 	movq   $0x0,0x28(%rsp)
  401cd0:	00 00 
  401cd2:	48 89 7c 24 18       	mov    %rdi,0x18(%rsp)
  401cd7:	48 89 3c 24          	mov    %rdi,(%rsp)
  401cdb:	48 83 3c 24 01       	cmpq   $0x1,(%rsp)
  401ce0:	0f 86 65 01 00 00    	jbe    401e4b <_ZN21evilBadAndInefficient9fibonacciEm+0x1cb>
  401ce6:	48 8b 04 24          	mov    (%rsp),%rax
  401cea:	48 c7 44 24 30 00 00 	movq   $0x0,0x30(%rsp)
  401cf1:	00 00 
  401cf3:	48 8d 50 ff          	lea    -0x1(%rax),%rdx
  401cf7:	48 83 fa 01          	cmp    $0x1,%rdx
  401cfb:	0f 86 f6 01 00 00    	jbe    401ef7 <_ZN21evilBadAndInefficient9fibonacciEm+0x277>
  401d01:	48 83 e8 02          	sub    $0x2,%rax
  401d05:	48 c7 44 24 40 00 00 	movq   $0x0,0x40(%rsp)
  401d0c:	00 00 
  401d0e:	48 89 44 24 50       	mov    %rax,0x50(%rsp)
  401d13:	48 89 44 24 08       	mov    %rax,0x8(%rsp)
  401d18:	48 83 7c 24 08 01    	cmpq   $0x1,0x8(%rsp)
  401d1e:	0f 86 a0 01 00 00    	jbe    401ec4 <_ZN21evilBadAndInefficient9fibonacciEm+0x244>
  401d24:	48 8b 44 24 08       	mov    0x8(%rsp),%rax
  401d29:	48 c7 44 24 48 00 00 	movq   $0x0,0x48(%rsp)
  401d30:	00 00 
  401d32:	48 8d 50 ff          	lea    -0x1(%rax),%rdx
  401d36:	48 83 fa 01          	cmp    $0x1,%rdx
  401d3a:	0f 86 e2 01 00 00    	jbe    401f22 <_ZN21evilBadAndInefficient9fibonacciEm+0x2a2>
  401d40:	48 83 e8 02          	sub    $0x2,%rax
  401d44:	48 c7 44 24 38 00 00 	movq   $0x0,0x38(%rsp)
  401d4b:	00 00 
  401d4d:	48 89 44 24 58       	mov    %rax,0x58(%rsp)
  401d52:	48 89 44 24 10       	mov    %rax,0x10(%rsp)
  401d57:	48 83 7c 24 10 01    	cmpq   $0x1,0x10(%rsp)
  401d5d:	0f 86 e0 00 00 00    	jbe    401e43 <_ZN21evilBadAndInefficient9fibonacciEm+0x1c3>
  401d63:	4c 8b 6c 24 10       	mov    0x10(%rsp),%r13
  401d68:	45 31 f6             	xor    %r14d,%r14d
  401d6b:	4d 89 ef             	mov    %r13,%r15
  401d6e:	49 8d 47 ff          	lea    -0x1(%r15),%rax
  401d72:	48 83 f8 01          	cmp    $0x1,%rax
  401d76:	0f 86 bb 00 00 00    	jbe    401e37 <_ZN21evilBadAndInefficient9fibonacciEm+0x1b7>
  401d7c:	49 83 ef 02          	sub    $0x2,%r15
  401d80:	45 31 ed             	xor    %r13d,%r13d
  401d83:	4d 89 fc             	mov    %r15,%r12
  401d86:	66 2e 0f 1f 84 00 00 	nopw   %cs:0x0(%rax,%rax,1)
  401d8d:	00 00 00 
  401d90:	49 83 fc 01          	cmp    $0x1,%r12
  401d94:	0f 86 96 00 00 00    	jbe    401e30 <_ZN21evilBadAndInefficient9fibonacciEm+0x1b0>
  401d9a:	4c 89 e3             	mov    %r12,%rbx
  401d9d:	31 ed                	xor    %ebp,%ebp
  401d9f:	90                   	nop
  401da0:	48 8d 7b ff          	lea    -0x1(%rbx),%rdi
  401da4:	48 83 eb 02          	sub    $0x2,%rbx
  401da8:	e8 d3 fe ff ff       	callq  401c80 <_ZN21evilBadAndInefficient9fibonacciEm>
  401dad:	48 01 c5             	add    %rax,%rbp
  401db0:	48 83 fb 01          	cmp    $0x1,%rbx
  401db4:	77 ea                	ja     401da0 <_ZN21evilBadAndInefficient9fibonacciEm+0x120>
  401db6:	48 83 c5 01          	add    $0x1,%rbp
  401dba:	49 83 ec 02          	sub    $0x2,%r12
  401dbe:	49 01 ed             	add    %rbp,%r13
  401dc1:	49 8d 44 24 01       	lea    0x1(%r12),%rax
  401dc6:	48 83 f8 01          	cmp    $0x1,%rax
  401dca:	77 c4                	ja     401d90 <_ZN21evilBadAndInefficient9fibonacciEm+0x110>
  401dcc:	49 83 c5 01          	add    $0x1,%r13
  401dd0:	4d 01 ee             	add    %r13,%r14
  401dd3:	49 83 ff 01          	cmp    $0x1,%r15
  401dd7:	77 95                	ja     401d6e <_ZN21evilBadAndInefficient9fibonacciEm+0xee>
  401dd9:	49 83 c6 01          	add    $0x1,%r14
  401ddd:	48 83 6c 24 10 02    	subq   $0x2,0x10(%rsp)
  401de3:	4c 01 74 24 38       	add    %r14,0x38(%rsp)
  401de8:	48 8b 44 24 10       	mov    0x10(%rsp),%rax
  401ded:	48 83 c0 01          	add    $0x1,%rax
  401df1:	48 83 f8 01          	cmp    $0x1,%rax
  401df5:	0f 87 5c ff ff ff    	ja     401d57 <_ZN21evilBadAndInefficient9fibonacciEm+0xd7>
  401dfb:	48 8b 54 24 38       	mov    0x38(%rsp),%rdx
  401e00:	48 8b 44 24 58       	mov    0x58(%rsp),%rax
  401e05:	48 83 c2 01          	add    $0x1,%rdx
  401e09:	48 01 54 24 48       	add    %rdx,0x48(%rsp)
  401e0e:	48 83 f8 01          	cmp    $0x1,%rax
  401e12:	0f 87 1a ff ff ff    	ja     401d32 <_ZN21evilBadAndInefficient9fibonacciEm+0xb2>
  401e18:	48 8b 44 24 48       	mov    0x48(%rsp),%rax
  401e1d:	48 83 c0 01          	add    $0x1,%rax
  401e21:	e9 a3 00 00 00       	jmpq   401ec9 <_ZN21evilBadAndInefficient9fibonacciEm+0x249>
  401e26:	66 2e 0f 1f 84 00 00 	nopw   %cs:0x0(%rax,%rax,1)
  401e2d:	00 00 00 
  401e30:	bd 01 00 00 00       	mov    $0x1,%ebp
  401e35:	eb 83                	jmp    401dba <_ZN21evilBadAndInefficient9fibonacciEm+0x13a>
  401e37:	41 bd 01 00 00 00    	mov    $0x1,%r13d
  401e3d:	49 83 ef 02          	sub    $0x2,%r15
  401e41:	eb 8d                	jmp    401dd0 <_ZN21evilBadAndInefficient9fibonacciEm+0x150>
  401e43:	41 be 01 00 00 00    	mov    $0x1,%r14d
  401e49:	eb 92                	jmp    401ddd <_ZN21evilBadAndInefficient9fibonacciEm+0x15d>
  401e4b:	b8 01 00 00 00       	mov    $0x1,%eax
  401e50:	48 83 2c 24 02       	subq   $0x2,(%rsp)
  401e55:	48 01 44 24 28       	add    %rax,0x28(%rsp)
  401e5a:	48 8b 04 24          	mov    (%rsp),%rax
  401e5e:	48 83 c0 01          	add    $0x1,%rax
  401e62:	48 83 f8 01          	cmp    $0x1,%rax
  401e66:	0f 87 6f fe ff ff    	ja     401cdb <_ZN21evilBadAndInefficient9fibonacciEm+0x5b>
  401e6c:	48 8b 44 24 28       	mov    0x28(%rsp),%rax
  401e71:	48 8b 7c 24 18       	mov    0x18(%rsp),%rdi
  401e76:	48 83 c0 01          	add    $0x1,%rax
  401e7a:	eb 0e                	jmp    401e8a <_ZN21evilBadAndInefficient9fibonacciEm+0x20a>
  401e7c:	48 83 ef 02          	sub    $0x2,%rdi
  401e80:	b8 01 00 00 00       	mov    $0x1,%eax
  401e85:	48 89 7c 24 18       	mov    %rdi,0x18(%rsp)
  401e8a:	48 01 44 24 20       	add    %rax,0x20(%rsp)
  401e8f:	48 83 ff 5c          	cmp    $0x5c,%rdi
  401e93:	77 24                	ja     401eb9 <_ZN21evilBadAndInefficient9fibonacciEm+0x239>
  401e95:	48 83 7c 24 18 01    	cmpq   $0x1,0x18(%rsp)
  401e9b:	0f 87 16 fe ff ff    	ja     401cb7 <_ZN21evilBadAndInefficient9fibonacciEm+0x37>
  401ea1:	48 8b 44 24 20       	mov    0x20(%rsp),%rax
  401ea6:	48 83 c0 01          	add    $0x1,%rax
  401eaa:	48 83 c4 68          	add    $0x68,%rsp
  401eae:	5b                   	pop    %rbx
  401eaf:	5d                   	pop    %rbp
  401eb0:	41 5c                	pop    %r12
  401eb2:	41 5d                	pop    %r13
  401eb4:	41 5e                	pop    %r14
  401eb6:	41 5f                	pop    %r15
  401eb8:	c3                   	retq   
  401eb9:	48 8b 44 24 20       	mov    0x20(%rsp),%rax
  401ebe:	48 83 e8 01          	sub    $0x1,%rax
  401ec2:	eb e6                	jmp    401eaa <_ZN21evilBadAndInefficient9fibonacciEm+0x22a>
  401ec4:	b8 01 00 00 00       	mov    $0x1,%eax
  401ec9:	48 83 6c 24 08 02    	subq   $0x2,0x8(%rsp)
  401ecf:	48 01 44 24 40       	add    %rax,0x40(%rsp)
  401ed4:	48 8b 44 24 08       	mov    0x8(%rsp),%rax
  401ed9:	48 83 c0 01          	add    $0x1,%rax
  401edd:	48 83 f8 01          	cmp    $0x1,%rax
  401ee1:	0f 87 31 fe ff ff    	ja     401d18 <_ZN21evilBadAndInefficient9fibonacciEm+0x98>
  401ee7:	48 8b 54 24 40       	mov    0x40(%rsp),%rdx
  401eec:	48 8b 44 24 50       	mov    0x50(%rsp),%rax
  401ef1:	48 83 c2 01          	add    $0x1,%rdx
  401ef5:	eb 0e                	jmp    401f05 <_ZN21evilBadAndInefficient9fibonacciEm+0x285>
  401ef7:	48 83 e8 02          	sub    $0x2,%rax
  401efb:	ba 01 00 00 00       	mov    $0x1,%edx
  401f00:	48 89 44 24 50       	mov    %rax,0x50(%rsp)
  401f05:	48 01 54 24 30       	add    %rdx,0x30(%rsp)
  401f0a:	48 83 f8 01          	cmp    $0x1,%rax
  401f0e:	0f 87 df fd ff ff    	ja     401cf3 <_ZN21evilBadAndInefficient9fibonacciEm+0x73>
  401f14:	48 8b 44 24 30       	mov    0x30(%rsp),%rax
  401f19:	48 83 c0 01          	add    $0x1,%rax
  401f1d:	e9 2e ff ff ff       	jmpq   401e50 <_ZN21evilBadAndInefficient9fibonacciEm+0x1d0>
  401f22:	48 83 e8 02          	sub    $0x2,%rax
  401f26:	ba 01 00 00 00       	mov    $0x1,%edx
  401f2b:	48 89 44 24 58       	mov    %rax,0x58(%rsp)
  401f30:	e9 d4 fe ff ff       	jmpq   401e09 <_ZN21evilBadAndInefficient9fibonacciEm+0x189>
  401f35:	90                   	nop
  401f36:	90                   	nop
  401f37:	90                   	nop
  401f38:	90                   	nop
  401f39:	90                   	nop
  401f3a:	90                   	nop
  401f3b:	90                   	nop
  401f3c:	90                   	nop
  401f3d:	90                   	nop
  401f3e:	90                   	nop
  401f3f:	90                   	nop

0000000000401f40 <main>:
  401f40:	48 83 ec 08          	sub    $0x8,%rsp
  401f44:	e8 b7 f1 ff ff       	callq  401100 <_Z14CompareResultsv>
  401f49:	e8 f2 13 00 00       	callq  403340 <_ZN11Performance7CompareEv>
  401f4e:	e8 3d f9 ff ff       	callq  401890 <_Z21TestBadAndInefficientv>
  401f53:	31 c0                	xor    %eax,%eax
  401f55:	48 83 c4 08          	add    $0x8,%rsp
  401f59:	c3                   	retq   
  401f5a:	66 0f 1f 44 00 00    	nopw   0x0(%rax,%rax,1)

0000000000401f60 <_GLOBAL__sub_I__Z14CompareResultsv>:
  401f60:	53                   	push   %rbx
  401f61:	bf b0 64 60 00       	mov    $0x6064b0,%edi
  401f66:	48 83 ec 10          	sub    $0x10,%rsp
  401f6a:	e8 c1 ee ff ff       	callq  400e30 <_ZNSt8ios_base4InitC1Ev@plt>
  401f6f:	ba 68 4d 40 00       	mov    $0x404d68,%edx
  401f74:	be b0 64 60 00       	mov    $0x6064b0,%esi
  401f79:	bf 70 0e 40 00       	mov    $0x400e70,%edi
  401f7e:	e8 dd ee ff ff       	callq  400e60 <__cxa_atexit@plt>
  401f83:	48 8d 54 24 0f       	lea    0xf(%rsp),%rdx
  401f88:	be 73 4e 40 00       	mov    $0x404e73,%esi
  401f8d:	bf 88 64 60 00       	mov    $0x606488,%edi
  401f92:	e8 39 ef ff ff       	callq  400ed0 <_ZNSsC1EPKcRKSaIcE@plt>
  401f97:	ba 68 4d 40 00       	mov    $0x404d68,%edx
  401f9c:	be 88 64 60 00       	mov    $0x606488,%esi
  401fa1:	bf 80 0e 40 00       	mov    $0x400e80,%edi
  401fa6:	e8 b5 ee ff ff       	callq  400e60 <__cxa_atexit@plt>
  401fab:	48 8d 54 24 0f       	lea    0xf(%rsp),%rdx
  401fb0:	be 7c 4e 40 00       	mov    $0x404e7c,%esi
  401fb5:	bf 90 64 60 00       	mov    $0x606490,%edi
  401fba:	e8 11 ef ff ff       	callq  400ed0 <_ZNSsC1EPKcRKSaIcE@plt>
  401fbf:	ba 68 4d 40 00       	mov    $0x404d68,%edx
  401fc4:	be 90 64 60 00       	mov    $0x606490,%esi
  401fc9:	bf 80 0e 40 00       	mov    $0x400e80,%edi
  401fce:	e8 8d ee ff ff       	callq  400e60 <__cxa_atexit@plt>
  401fd3:	48 8d 54 24 0f       	lea    0xf(%rsp),%rdx
  401fd8:	be 85 4e 40 00       	mov    $0x404e85,%esi
  401fdd:	bf b8 64 60 00       	mov    $0x6064b8,%edi
  401fe2:	e8 e9 ee ff ff       	callq  400ed0 <_ZNSsC1EPKcRKSaIcE@plt>
  401fe7:	ba 68 4d 40 00       	mov    $0x404d68,%edx
  401fec:	be b8 64 60 00       	mov    $0x6064b8,%esi
  401ff1:	bf 80 0e 40 00       	mov    $0x400e80,%edi
  401ff6:	e8 65 ee ff ff       	callq  400e60 <__cxa_atexit@plt>
  401ffb:	48 8d 54 24 0f       	lea    0xf(%rsp),%rdx
  402000:	be 8a 4e 40 00       	mov    $0x404e8a,%esi
  402005:	bf a8 64 60 00       	mov    $0x6064a8,%edi
  40200a:	e8 c1 ee ff ff       	callq  400ed0 <_ZNSsC1EPKcRKSaIcE@plt>
  40200f:	ba 68 4d 40 00       	mov    $0x404d68,%edx
  402014:	be a8 64 60 00       	mov    $0x6064a8,%esi
  402019:	bf 80 0e 40 00       	mov    $0x400e80,%edi
  40201e:	e8 3d ee ff ff       	callq  400e60 <__cxa_atexit@plt>
  402023:	48 8d 54 24 0f       	lea    0xf(%rsp),%rdx
  402028:	be 50 4e 40 00       	mov    $0x404e50,%esi
  40202d:	bf 98 64 60 00       	mov    $0x606498,%edi
  402032:	e8 99 ee ff ff       	callq  400ed0 <_ZNSsC1EPKcRKSaIcE@plt>
  402037:	ba 68 4d 40 00       	mov    $0x404d68,%edx
  40203c:	be 98 64 60 00       	mov    $0x606498,%esi
  402041:	bf 80 0e 40 00       	mov    $0x400e80,%edi
  402046:	e8 15 ee ff ff       	callq  400e60 <__cxa_atexit@plt>
  40204b:	48 8d 54 24 0f       	lea    0xf(%rsp),%rdx
  402050:	be 80 4e 40 00       	mov    $0x404e80,%esi
  402055:	bf a0 64 60 00       	mov    $0x6064a0,%edi
  40205a:	e8 71 ee ff ff       	callq  400ed0 <_ZNSsC1EPKcRKSaIcE@plt>
  40205f:	ba 68 4d 40 00       	mov    $0x404d68,%edx
  402064:	be a0 64 60 00       	mov    $0x6064a0,%esi
  402069:	bf 80 0e 40 00       	mov    $0x400e80,%edi
  40206e:	e8 ed ed ff ff       	callq  400e60 <__cxa_atexit@plt>
  402073:	be b8 64 60 00       	mov    $0x6064b8,%esi
  402078:	bf c0 64 60 00       	mov    $0x6064c0,%edi
  40207d:	e8 ce ed ff ff       	callq  400e50 <_ZNSsC1ERKSs@plt>
  402082:	ba 05 00 00 00       	mov    $0x5,%edx
  402087:	be 92 4e 40 00       	mov    $0x404e92,%esi
  40208c:	bf c0 64 60 00       	mov    $0x6064c0,%edi
  402091:	e8 4a ed ff ff       	callq  400de0 <_ZNSs6appendEPKcm@plt>
  402096:	ba 68 4d 40 00       	mov    $0x404d68,%edx
  40209b:	be c0 64 60 00       	mov    $0x6064c0,%esi
  4020a0:	bf 80 0e 40 00       	mov    $0x400e80,%edi
  4020a5:	e8 b6 ed ff ff       	callq  400e60 <__cxa_atexit@plt>
  4020aa:	48 83 c4 10          	add    $0x10,%rsp
  4020ae:	5b                   	pop    %rbx
  4020af:	c3                   	retq   
  4020b0:	48 89 c3             	mov    %rax,%rbx
  4020b3:	bf c0 64 60 00       	mov    $0x6064c0,%edi
  4020b8:	e8 c3 ed ff ff       	callq  400e80 <_ZNSsD1Ev@plt>
  4020bd:	48 89 df             	mov    %rbx,%rdi
  4020c0:	e8 cb ee ff ff       	callq  400f90 <_Unwind_Resume@plt>
  4020c5:	90                   	nop
  4020c6:	90                   	nop
  4020c7:	90                   	nop
  4020c8:	90                   	nop
  4020c9:	90                   	nop
  4020ca:	90                   	nop
  4020cb:	90                   	nop
  4020cc:	90                   	nop
  4020cd:	90                   	nop
  4020ce:	90                   	nop
  4020cf:	90                   	nop

00000000004020d0 <_ZStlsISt11char_traitsIcEERSt13basic_ostreamIcT_ES5_PKc.part.19>:
  4020d0:	48 83 ec 08          	sub    $0x8,%rsp
  4020d4:	48 8b 07             	mov    (%rdi),%rax
  4020d7:	48 03 78 e8          	add    -0x18(%rax),%rdi
  4020db:	8b 77 20             	mov    0x20(%rdi),%esi
  4020de:	83 ce 01             	or     $0x1,%esi
  4020e1:	e8 4a ee ff ff       	callq  400f30 <_ZNSt9basic_iosIcSt11char_traitsIcEE5clearESt12_Ios_Iostate@plt>
  4020e6:	48 83 c4 08          	add    $0x8,%rsp
  4020ea:	c3                   	retq   
  4020eb:	90                   	nop
  4020ec:	0f 1f 40 00          	nopl   0x0(%rax)

00000000004020f0 <_ZNSt8_Rb_treeIZN11Performance7CompareEvE6resultS1_St9_IdentityIS1_ESt4lessIS1_ESaIS1_EE8_M_eraseEPSt13_Rb_tree_nodeIS1_E>:
  4020f0:	41 57                	push   %r15
  4020f2:	41 56                	push   %r14
  4020f4:	49 89 f6             	mov    %rsi,%r14
  4020f7:	41 55                	push   %r13
  4020f9:	41 54                	push   %r12
  4020fb:	55                   	push   %rbp
  4020fc:	48 89 fd             	mov    %rdi,%rbp
  4020ff:	53                   	push   %rbx
  402100:	48 83 ec 78          	sub    $0x78,%rsp
  402104:	48 85 f6             	test   %rsi,%rsi
  402107:	0f 84 e7 01 00 00    	je     4022f4 <_ZNSt8_Rb_treeIZN11Performance7CompareEvE6resultS1_St9_IdentityIS1_ESt4lessIS1_ESaIS1_EE8_M_eraseEPSt13_Rb_tree_nodeIS1_E+0x204>
  40210d:	49 8b 46 18          	mov    0x18(%r14),%rax
  402111:	48 85 c0             	test   %rax,%rax
  402114:	48 89 44 24 38       	mov    %rax,0x38(%rsp)
  402119:	0f 84 a8 01 00 00    	je     4022c7 <_ZNSt8_Rb_treeIZN11Performance7CompareEvE6resultS1_St9_IdentityIS1_ESt4lessIS1_ESaIS1_EE8_M_eraseEPSt13_Rb_tree_nodeIS1_E+0x1d7>
  40211f:	48 8b 40 18          	mov    0x18(%rax),%rax
  402123:	48 85 c0             	test   %rax,%rax
  402126:	48 89 44 24 40       	mov    %rax,0x40(%rsp)
  40212b:	0f 84 c9 02 00 00    	je     4023fa <_ZNSt8_Rb_treeIZN11Performance7CompareEvE6resultS1_St9_IdentityIS1_ESt4lessIS1_ESaIS1_EE8_M_eraseEPSt13_Rb_tree_nodeIS1_E+0x30a>
  402131:	48 8b 40 18          	mov    0x18(%rax),%rax
  402135:	48 85 c0             	test   %rax,%rax
  402138:	48 89 44 24 48       	mov    %rax,0x48(%rsp)
  40213d:	0f 84 f9 01 00 00    	je     40233c <_ZNSt8_Rb_treeIZN11Performance7CompareEvE6resultS1_St9_IdentityIS1_ESt4lessIS1_ESaIS1_EE8_M_eraseEPSt13_Rb_tree_nodeIS1_E+0x24c>
  402143:	48 8b 40 18          	mov    0x18(%rax),%rax
  402147:	48 85 c0             	test   %rax,%rax
  40214a:	48 89 44 24 50       	mov    %rax,0x50(%rsp)
  40214f:	0f 84 ae 01 00 00    	je     402303 <_ZNSt8_Rb_treeIZN11Performance7CompareEvE6resultS1_St9_IdentityIS1_ESt4lessIS1_ESaIS1_EE8_M_eraseEPSt13_Rb_tree_nodeIS1_E+0x213>
  402155:	48 8b 40 18          	mov    0x18(%rax),%rax
  402159:	48 85 c0             	test   %rax,%rax
  40215c:	48 89 44 24 58       	mov    %rax,0x58(%rsp)
  402161:	0f 84 23 01 00 00    	je     40228a <_ZNSt8_Rb_treeIZN11Performance7CompareEvE6resultS1_St9_IdentityIS1_ESt4lessIS1_ESaIS1_EE8_M_eraseEPSt13_Rb_tree_nodeIS1_E+0x19a>
  402167:	4c 8b 68 18          	mov    0x18(%rax),%r13
  40216b:	4d 85 ed             	test   %r13,%r13
  40216e:	0f 84 b1 00 00 00    	je     402225 <_ZNSt8_Rb_treeIZN11Performance7CompareEvE6resultS1_St9_IdentityIS1_ESt4lessIS1_ESaIS1_EE8_M_eraseEPSt13_Rb_tree_nodeIS1_E+0x135>
  402174:	4d 8b 65 18          	mov    0x18(%r13),%r12
  402178:	4d 85 e4             	test   %r12,%r12
  40217b:	74 75                	je     4021f2 <_ZNSt8_Rb_treeIZN11Performance7CompareEvE6resultS1_St9_IdentityIS1_ESt4lessIS1_ESaIS1_EE8_M_eraseEPSt13_Rb_tree_nodeIS1_E+0x102>
  40217d:	0f 1f 00             	nopl   (%rax)
  402180:	4d 8b 7c 24 18       	mov    0x18(%r12),%r15
  402185:	4d 85 ff             	test   %r15,%r15
  402188:	74 3b                	je     4021c5 <_ZNSt8_Rb_treeIZN11Performance7CompareEvE6resultS1_St9_IdentityIS1_ESt4lessIS1_ESaIS1_EE8_M_eraseEPSt13_Rb_tree_nodeIS1_E+0xd5>
  40218a:	66 0f 1f 44 00 00    	nopw   0x0(%rax,%rax,1)
  402190:	49 8b 77 18          	mov    0x18(%r15),%rsi
  402194:	48 89 ef             	mov    %rbp,%rdi
  402197:	e8 54 ff ff ff       	callq  4020f0 <_ZNSt8_Rb_treeIZN11Performance7CompareEvE6resultS1_St9_IdentityIS1_ESt4lessIS1_ESaIS1_EE8_M_eraseEPSt13_Rb_tree_nodeIS1_E>
  40219c:	49 8b 4f 28          	mov    0x28(%r15),%rcx
  4021a0:	49 8b 5f 10          	mov    0x10(%r15),%rbx
  4021a4:	48 83 e9 18          	sub    $0x18,%rcx
  4021a8:	48 81 f9 60 64 60 00 	cmp    $0x606460,%rcx
  4021af:	0f 85 a8 00 00 00    	jne    40225d <_ZNSt8_Rb_treeIZN11Performance7CompareEvE6resultS1_St9_IdentityIS1_ESt4lessIS1_ESaIS1_EE8_M_eraseEPSt13_Rb_tree_nodeIS1_E+0x16d>
  4021b5:	4c 89 ff             	mov    %r15,%rdi
  4021b8:	49 89 df             	mov    %rbx,%r15
  4021bb:	e8 50 ec ff ff       	callq  400e10 <_ZdlPv@plt>
  4021c0:	48 85 db             	test   %rbx,%rbx
  4021c3:	75 cb                	jne    402190 <_ZNSt8_Rb_treeIZN11Performance7CompareEvE6resultS1_St9_IdentityIS1_ESt4lessIS1_ESaIS1_EE8_M_eraseEPSt13_Rb_tree_nodeIS1_E+0xa0>
  4021c5:	49 8b 54 24 28       	mov    0x28(%r12),%rdx
  4021ca:	49 8b 5c 24 10       	mov    0x10(%r12),%rbx
  4021cf:	48 83 ea 18          	sub    $0x18,%rdx
  4021d3:	48 81 fa 60 64 60 00 	cmp    $0x606460,%rdx
  4021da:	0f 85 98 02 00 00    	jne    402478 <_ZNSt8_Rb_treeIZN11Performance7CompareEvE6resultS1_St9_IdentityIS1_ESt4lessIS1_ESaIS1_EE8_M_eraseEPSt13_Rb_tree_nodeIS1_E+0x388>
  4021e0:	4c 89 e7             	mov    %r12,%rdi
  4021e3:	e8 28 ec ff ff       	callq  400e10 <_ZdlPv@plt>
  4021e8:	48 85 db             	test   %rbx,%rbx
  4021eb:	74 05                	je     4021f2 <_ZNSt8_Rb_treeIZN11Performance7CompareEvE6resultS1_St9_IdentityIS1_ESt4lessIS1_ESaIS1_EE8_M_eraseEPSt13_Rb_tree_nodeIS1_E+0x102>
  4021ed:	49 89 dc             	mov    %rbx,%r12
  4021f0:	eb 8e                	jmp    402180 <_ZNSt8_Rb_treeIZN11Performance7CompareEvE6resultS1_St9_IdentityIS1_ESt4lessIS1_ESaIS1_EE8_M_eraseEPSt13_Rb_tree_nodeIS1_E+0x90>
  4021f2:	4d 8b 65 28          	mov    0x28(%r13),%r12
  4021f6:	49 8b 5d 10          	mov    0x10(%r13),%rbx
  4021fa:	49 83 ec 18          	sub    $0x18,%r12
  4021fe:	49 81 fc 60 64 60 00 	cmp    $0x606460,%r12
  402205:	0f 85 a7 01 00 00    	jne    4023b2 <_ZNSt8_Rb_treeIZN11Performance7CompareEvE6resultS1_St9_IdentityIS1_ESt4lessIS1_ESaIS1_EE8_M_eraseEPSt13_Rb_tree_nodeIS1_E+0x2c2>
  40220b:	4c 89 ef             	mov    %r13,%rdi
  40220e:	e8 fd eb ff ff       	callq  400e10 <_ZdlPv@plt>
  402213:	48 85 db             	test   %rbx,%rbx
  402216:	74 08                	je     402220 <_ZNSt8_Rb_treeIZN11Performance7CompareEvE6resultS1_St9_IdentityIS1_ESt4lessIS1_ESaIS1_EE8_M_eraseEPSt13_Rb_tree_nodeIS1_E+0x130>
  402218:	49 89 dd             	mov    %rbx,%r13
  40221b:	e9 54 ff ff ff       	jmpq   402174 <_ZNSt8_Rb_treeIZN11Performance7CompareEvE6resultS1_St9_IdentityIS1_ESt4lessIS1_ESaIS1_EE8_M_eraseEPSt13_Rb_tree_nodeIS1_E+0x84>
  402220:	48 8b 44 24 58       	mov    0x58(%rsp),%rax
  402225:	48 8b 58 10          	mov    0x10(%rax),%rbx
  402229:	48 8b 40 28          	mov    0x28(%rax),%rax
  40222d:	49 89 c4             	mov    %rax,%r12
  402230:	49 83 ec 18          	sub    $0x18,%r12
  402234:	49 81 fc 60 64 60 00 	cmp    $0x606460,%r12
  40223b:	0f 85 95 01 00 00    	jne    4023d6 <_ZNSt8_Rb_treeIZN11Performance7CompareEvE6resultS1_St9_IdentityIS1_ESt4lessIS1_ESaIS1_EE8_M_eraseEPSt13_Rb_tree_nodeIS1_E+0x2e6>
  402241:	48 8b 7c 24 58       	mov    0x58(%rsp),%rdi
  402246:	e8 c5 eb ff ff       	callq  400e10 <_ZdlPv@plt>
  40224b:	48 85 db             	test   %rbx,%rbx
  40224e:	74 3a                	je     40228a <_ZNSt8_Rb_treeIZN11Performance7CompareEvE6resultS1_St9_IdentityIS1_ESt4lessIS1_ESaIS1_EE8_M_eraseEPSt13_Rb_tree_nodeIS1_E+0x19a>
  402250:	48 89 5c 24 58       	mov    %rbx,0x58(%rsp)
  402255:	48 89 d8             	mov    %rbx,%rax
  402258:	e9 0a ff ff ff       	jmpq   402167 <_ZNSt8_Rb_treeIZN11Performance7CompareEvE6resultS1_St9_IdentityIS1_ESt4lessIS1_ESaIS1_EE8_M_eraseEPSt13_Rb_tree_nodeIS1_E+0x77>
  40225d:	48 8d 79 10          	lea    0x10(%rcx),%rdi
  402261:	48 89 4c 24 08       	mov    %rcx,0x8(%rsp)
  402266:	e8 55 ed ff ff       	callq  400fc0 <_ZN9__gnu_cxxL27__exchange_and_add_dispatchEPii.constprop.84>
  40226b:	85 c0                	test   %eax,%eax
  40226d:	48 8b 4c 24 08       	mov    0x8(%rsp),%rcx
  402272:	0f 8f 3d ff ff ff    	jg     4021b5 <_ZNSt8_Rb_treeIZN11Performance7CompareEvE6resultS1_St9_IdentityIS1_ESt4lessIS1_ESaIS1_EE8_M_eraseEPSt13_Rb_tree_nodeIS1_E+0xc5>
  402278:	48 8d 74 24 6f       	lea    0x6f(%rsp),%rsi
  40227d:	48 89 cf             	mov    %rcx,%rdi
  402280:	e8 1b ec ff ff       	callq  400ea0 <_ZNSs4_Rep10_M_destroyERKSaIcE@plt>
  402285:	e9 2b ff ff ff       	jmpq   4021b5 <_ZNSt8_Rb_treeIZN11Performance7CompareEvE6resultS1_St9_IdentityIS1_ESt4lessIS1_ESaIS1_EE8_M_eraseEPSt13_Rb_tree_nodeIS1_E+0xc5>
  40228a:	48 8b 44 24 50       	mov    0x50(%rsp),%rax
  40228f:	48 8b 58 10          	mov    0x10(%rax),%rbx
  402293:	48 8b 40 28          	mov    0x28(%rax),%rax
  402297:	49 89 c4             	mov    %rax,%r12
  40229a:	49 83 ec 18          	sub    $0x18,%r12
  40229e:	49 81 fc 60 64 60 00 	cmp    $0x606460,%r12
  4022a5:	0f 85 fa 01 00 00    	jne    4024a5 <_ZNSt8_Rb_treeIZN11Performance7CompareEvE6resultS1_St9_IdentityIS1_ESt4lessIS1_ESaIS1_EE8_M_eraseEPSt13_Rb_tree_nodeIS1_E+0x3b5>
  4022ab:	48 8b 7c 24 50       	mov    0x50(%rsp),%rdi
  4022b0:	e8 5b eb ff ff       	callq  400e10 <_ZdlPv@plt>
  4022b5:	48 85 db             	test   %rbx,%rbx
  4022b8:	74 49                	je     402303 <_ZNSt8_Rb_treeIZN11Performance7CompareEvE6resultS1_St9_IdentityIS1_ESt4lessIS1_ESaIS1_EE8_M_eraseEPSt13_Rb_tree_nodeIS1_E+0x213>
  4022ba:	48 89 5c 24 50       	mov    %rbx,0x50(%rsp)
  4022bf:	48 89 d8             	mov    %rbx,%rax
  4022c2:	e9 8e fe ff ff       	jmpq   402155 <_ZNSt8_Rb_treeIZN11Performance7CompareEvE6resultS1_St9_IdentityIS1_ESt4lessIS1_ESaIS1_EE8_M_eraseEPSt13_Rb_tree_nodeIS1_E+0x65>
  4022c7:	49 8b 5e 28          	mov    0x28(%r14),%rbx
  4022cb:	4d 8b 66 10          	mov    0x10(%r14),%r12
  4022cf:	48 83 eb 18          	sub    $0x18,%rbx
  4022d3:	48 81 fb 60 64 60 00 	cmp    $0x606460,%rbx
  4022da:	0f 85 73 01 00 00    	jne    402453 <_ZNSt8_Rb_treeIZN11Performance7CompareEvE6resultS1_St9_IdentityIS1_ESt4lessIS1_ESaIS1_EE8_M_eraseEPSt13_Rb_tree_nodeIS1_E+0x363>
  4022e0:	4c 89 f7             	mov    %r14,%rdi
  4022e3:	4d 89 e6             	mov    %r12,%r14
  4022e6:	e8 25 eb ff ff       	callq  400e10 <_ZdlPv@plt>
  4022eb:	4d 85 e4             	test   %r12,%r12
  4022ee:	0f 85 19 fe ff ff    	jne    40210d <_ZNSt8_Rb_treeIZN11Performance7CompareEvE6resultS1_St9_IdentityIS1_ESt4lessIS1_ESaIS1_EE8_M_eraseEPSt13_Rb_tree_nodeIS1_E+0x1d>
  4022f4:	48 83 c4 78          	add    $0x78,%rsp
  4022f8:	5b                   	pop    %rbx
  4022f9:	5d                   	pop    %rbp
  4022fa:	41 5c                	pop    %r12
  4022fc:	41 5d                	pop    %r13
  4022fe:	41 5e                	pop    %r14
  402300:	41 5f                	pop    %r15
  402302:	c3                   	retq   
  402303:	48 8b 44 24 48       	mov    0x48(%rsp),%rax
  402308:	48 8b 58 10          	mov    0x10(%rax),%rbx
  40230c:	48 8b 40 28          	mov    0x28(%rax),%rax
  402310:	49 89 c4             	mov    %rax,%r12
  402313:	49 83 ec 18          	sub    $0x18,%r12
  402317:	49 81 fc 60 64 60 00 	cmp    $0x606460,%r12
  40231e:	75 59                	jne    402379 <_ZNSt8_Rb_treeIZN11Performance7CompareEvE6resultS1_St9_IdentityIS1_ESt4lessIS1_ESaIS1_EE8_M_eraseEPSt13_Rb_tree_nodeIS1_E+0x289>
  402320:	48 8b 7c 24 48       	mov    0x48(%rsp),%rdi
  402325:	e8 e6 ea ff ff       	callq  400e10 <_ZdlPv@plt>
  40232a:	48 85 db             	test   %rbx,%rbx
  40232d:	74 0d                	je     40233c <_ZNSt8_Rb_treeIZN11Performance7CompareEvE6resultS1_St9_IdentityIS1_ESt4lessIS1_ESaIS1_EE8_M_eraseEPSt13_Rb_tree_nodeIS1_E+0x24c>
  40232f:	48 89 5c 24 48       	mov    %rbx,0x48(%rsp)
  402334:	48 89 d8             	mov    %rbx,%rax
  402337:	e9 07 fe ff ff       	jmpq   402143 <_ZNSt8_Rb_treeIZN11Performance7CompareEvE6resultS1_St9_IdentityIS1_ESt4lessIS1_ESaIS1_EE8_M_eraseEPSt13_Rb_tree_nodeIS1_E+0x53>
  40233c:	48 8b 44 24 40       	mov    0x40(%rsp),%rax
  402341:	4c 8b 60 10          	mov    0x10(%rax),%r12
  402345:	48 8b 40 28          	mov    0x28(%rax),%rax
  402349:	48 89 c3             	mov    %rax,%rbx
  40234c:	48 83 eb 18          	sub    $0x18,%rbx
  402350:	48 81 fb 60 64 60 00 	cmp    $0x606460,%rbx
  402357:	75 3d                	jne    402396 <_ZNSt8_Rb_treeIZN11Performance7CompareEvE6resultS1_St9_IdentityIS1_ESt4lessIS1_ESaIS1_EE8_M_eraseEPSt13_Rb_tree_nodeIS1_E+0x2a6>
  402359:	48 8b 7c 24 40       	mov    0x40(%rsp),%rdi
  40235e:	e8 ad ea ff ff       	callq  400e10 <_ZdlPv@plt>
  402363:	4d 85 e4             	test   %r12,%r12
  402366:	0f 84 8e 00 00 00    	je     4023fa <_ZNSt8_Rb_treeIZN11Performance7CompareEvE6resultS1_St9_IdentityIS1_ESt4lessIS1_ESaIS1_EE8_M_eraseEPSt13_Rb_tree_nodeIS1_E+0x30a>
  40236c:	4c 89 64 24 40       	mov    %r12,0x40(%rsp)
  402371:	4c 89 e0             	mov    %r12,%rax
  402374:	e9 b8 fd ff ff       	jmpq   402131 <_ZNSt8_Rb_treeIZN11Performance7CompareEvE6resultS1_St9_IdentityIS1_ESt4lessIS1_ESaIS1_EE8_M_eraseEPSt13_Rb_tree_nodeIS1_E+0x41>
  402379:	49 8d 7c 24 10       	lea    0x10(%r12),%rdi
  40237e:	e8 3d ec ff ff       	callq  400fc0 <_ZN9__gnu_cxxL27__exchange_and_add_dispatchEPii.constprop.84>
  402383:	85 c0                	test   %eax,%eax
  402385:	7f 99                	jg     402320 <_ZNSt8_Rb_treeIZN11Performance7CompareEvE6resultS1_St9_IdentityIS1_ESt4lessIS1_ESaIS1_EE8_M_eraseEPSt13_Rb_tree_nodeIS1_E+0x230>
  402387:	48 8d 74 24 6f       	lea    0x6f(%rsp),%rsi
  40238c:	4c 89 e7             	mov    %r12,%rdi
  40238f:	e8 0c eb ff ff       	callq  400ea0 <_ZNSs4_Rep10_M_destroyERKSaIcE@plt>
  402394:	eb 8a                	jmp    402320 <_ZNSt8_Rb_treeIZN11Performance7CompareEvE6resultS1_St9_IdentityIS1_ESt4lessIS1_ESaIS1_EE8_M_eraseEPSt13_Rb_tree_nodeIS1_E+0x230>
  402396:	48 8d 7b 10          	lea    0x10(%rbx),%rdi
  40239a:	e8 21 ec ff ff       	callq  400fc0 <_ZN9__gnu_cxxL27__exchange_and_add_dispatchEPii.constprop.84>
  40239f:	85 c0                	test   %eax,%eax
  4023a1:	7f b6                	jg     402359 <_ZNSt8_Rb_treeIZN11Performance7CompareEvE6resultS1_St9_IdentityIS1_ESt4lessIS1_ESaIS1_EE8_M_eraseEPSt13_Rb_tree_nodeIS1_E+0x269>
  4023a3:	48 8d 74 24 6f       	lea    0x6f(%rsp),%rsi
  4023a8:	48 89 df             	mov    %rbx,%rdi
  4023ab:	e8 f0 ea ff ff       	callq  400ea0 <_ZNSs4_Rep10_M_destroyERKSaIcE@plt>
  4023b0:	eb a7                	jmp    402359 <_ZNSt8_Rb_treeIZN11Performance7CompareEvE6resultS1_St9_IdentityIS1_ESt4lessIS1_ESaIS1_EE8_M_eraseEPSt13_Rb_tree_nodeIS1_E+0x269>
  4023b2:	49 8d 7c 24 10       	lea    0x10(%r12),%rdi
  4023b7:	e8 04 ec ff ff       	callq  400fc0 <_ZN9__gnu_cxxL27__exchange_and_add_dispatchEPii.constprop.84>
  4023bc:	85 c0                	test   %eax,%eax
  4023be:	0f 8f 47 fe ff ff    	jg     40220b <_ZNSt8_Rb_treeIZN11Performance7CompareEvE6resultS1_St9_IdentityIS1_ESt4lessIS1_ESaIS1_EE8_M_eraseEPSt13_Rb_tree_nodeIS1_E+0x11b>
  4023c4:	48 8d 74 24 6f       	lea    0x6f(%rsp),%rsi
  4023c9:	4c 89 e7             	mov    %r12,%rdi
  4023cc:	e8 cf ea ff ff       	callq  400ea0 <_ZNSs4_Rep10_M_destroyERKSaIcE@plt>
  4023d1:	e9 35 fe ff ff       	jmpq   40220b <_ZNSt8_Rb_treeIZN11Performance7CompareEvE6resultS1_St9_IdentityIS1_ESt4lessIS1_ESaIS1_EE8_M_eraseEPSt13_Rb_tree_nodeIS1_E+0x11b>
  4023d6:	49 8d 7c 24 10       	lea    0x10(%r12),%rdi
  4023db:	e8 e0 eb ff ff       	callq  400fc0 <_ZN9__gnu_cxxL27__exchange_and_add_dispatchEPii.constprop.84>
  4023e0:	85 c0                	test   %eax,%eax
  4023e2:	0f 8f 59 fe ff ff    	jg     402241 <_ZNSt8_Rb_treeIZN11Performance7CompareEvE6resultS1_St9_IdentityIS1_ESt4lessIS1_ESaIS1_EE8_M_eraseEPSt13_Rb_tree_nodeIS1_E+0x151>
  4023e8:	48 8d 74 24 6f       	lea    0x6f(%rsp),%rsi
  4023ed:	4c 89 e7             	mov    %r12,%rdi
  4023f0:	e8 ab ea ff ff       	callq  400ea0 <_ZNSs4_Rep10_M_destroyERKSaIcE@plt>
  4023f5:	e9 47 fe ff ff       	jmpq   402241 <_ZNSt8_Rb_treeIZN11Performance7CompareEvE6resultS1_St9_IdentityIS1_ESt4lessIS1_ESaIS1_EE8_M_eraseEPSt13_Rb_tree_nodeIS1_E+0x151>
  4023fa:	48 8b 44 24 38       	mov    0x38(%rsp),%rax
  4023ff:	4c 8b 60 10          	mov    0x10(%rax),%r12
  402403:	48 8b 40 28          	mov    0x28(%rax),%rax
  402407:	48 89 c3             	mov    %rax,%rbx
  40240a:	48 83 eb 18          	sub    $0x18,%rbx
  40240e:	48 81 fb 60 64 60 00 	cmp    $0x606460,%rbx
  402415:	75 20                	jne    402437 <_ZNSt8_Rb_treeIZN11Performance7CompareEvE6resultS1_St9_IdentityIS1_ESt4lessIS1_ESaIS1_EE8_M_eraseEPSt13_Rb_tree_nodeIS1_E+0x347>
  402417:	48 8b 7c 24 38       	mov    0x38(%rsp),%rdi
  40241c:	e8 ef e9 ff ff       	callq  400e10 <_ZdlPv@plt>
  402421:	4d 85 e4             	test   %r12,%r12
  402424:	0f 84 9d fe ff ff    	je     4022c7 <_ZNSt8_Rb_treeIZN11Performance7CompareEvE6resultS1_St9_IdentityIS1_ESt4lessIS1_ESaIS1_EE8_M_eraseEPSt13_Rb_tree_nodeIS1_E+0x1d7>
  40242a:	4c 89 64 24 38       	mov    %r12,0x38(%rsp)
  40242f:	4c 89 e0             	mov    %r12,%rax
  402432:	e9 e8 fc ff ff       	jmpq   40211f <_ZNSt8_Rb_treeIZN11Performance7CompareEvE6resultS1_St9_IdentityIS1_ESt4lessIS1_ESaIS1_EE8_M_eraseEPSt13_Rb_tree_nodeIS1_E+0x2f>
  402437:	48 8d 7b 10          	lea    0x10(%rbx),%rdi
  40243b:	e8 80 eb ff ff       	callq  400fc0 <_ZN9__gnu_cxxL27__exchange_and_add_dispatchEPii.constprop.84>
  402440:	85 c0                	test   %eax,%eax
  402442:	7f d3                	jg     402417 <_ZNSt8_Rb_treeIZN11Performance7CompareEvE6resultS1_St9_IdentityIS1_ESt4lessIS1_ESaIS1_EE8_M_eraseEPSt13_Rb_tree_nodeIS1_E+0x327>
  402444:	48 8d 74 24 6f       	lea    0x6f(%rsp),%rsi
  402449:	48 89 df             	mov    %rbx,%rdi
  40244c:	e8 4f ea ff ff       	callq  400ea0 <_ZNSs4_Rep10_M_destroyERKSaIcE@plt>
  402451:	eb c4                	jmp    402417 <_ZNSt8_Rb_treeIZN11Performance7CompareEvE6resultS1_St9_IdentityIS1_ESt4lessIS1_ESaIS1_EE8_M_eraseEPSt13_Rb_tree_nodeIS1_E+0x327>
  402453:	48 8d 7b 10          	lea    0x10(%rbx),%rdi
  402457:	e8 64 eb ff ff       	callq  400fc0 <_ZN9__gnu_cxxL27__exchange_and_add_dispatchEPii.constprop.84>
  40245c:	85 c0                	test   %eax,%eax
  40245e:	66 90                	xchg   %ax,%ax
  402460:	0f 8f 7a fe ff ff    	jg     4022e0 <_ZNSt8_Rb_treeIZN11Performance7CompareEvE6resultS1_St9_IdentityIS1_ESt4lessIS1_ESaIS1_EE8_M_eraseEPSt13_Rb_tree_nodeIS1_E+0x1f0>
  402466:	48 8d 74 24 6f       	lea    0x6f(%rsp),%rsi
  40246b:	48 89 df             	mov    %rbx,%rdi
  40246e:	e8 2d ea ff ff       	callq  400ea0 <_ZNSs4_Rep10_M_destroyERKSaIcE@plt>
  402473:	e9 68 fe ff ff       	jmpq   4022e0 <_ZNSt8_Rb_treeIZN11Performance7CompareEvE6resultS1_St9_IdentityIS1_ESt4lessIS1_ESaIS1_EE8_M_eraseEPSt13_Rb_tree_nodeIS1_E+0x1f0>
  402478:	48 8d 7a 10          	lea    0x10(%rdx),%rdi
  40247c:	48 89 54 24 08       	mov    %rdx,0x8(%rsp)
  402481:	e8 3a eb ff ff       	callq  400fc0 <_ZN9__gnu_cxxL27__exchange_and_add_dispatchEPii.constprop.84>
  402486:	85 c0                	test   %eax,%eax
  402488:	48 8b 54 24 08       	mov    0x8(%rsp),%rdx
  40248d:	0f 8f 4d fd ff ff    	jg     4021e0 <_ZNSt8_Rb_treeIZN11Performance7CompareEvE6resultS1_St9_IdentityIS1_ESt4lessIS1_ESaIS1_EE8_M_eraseEPSt13_Rb_tree_nodeIS1_E+0xf0>
  402493:	48 8d 74 24 6f       	lea    0x6f(%rsp),%rsi
  402498:	48 89 d7             	mov    %rdx,%rdi
  40249b:	e8 00 ea ff ff       	callq  400ea0 <_ZNSs4_Rep10_M_destroyERKSaIcE@plt>
  4024a0:	e9 3b fd ff ff       	jmpq   4021e0 <_ZNSt8_Rb_treeIZN11Performance7CompareEvE6resultS1_St9_IdentityIS1_ESt4lessIS1_ESaIS1_EE8_M_eraseEPSt13_Rb_tree_nodeIS1_E+0xf0>
  4024a5:	49 8d 7c 24 10       	lea    0x10(%r12),%rdi
  4024aa:	e8 11 eb ff ff       	callq  400fc0 <_ZN9__gnu_cxxL27__exchange_and_add_dispatchEPii.constprop.84>
  4024af:	85 c0                	test   %eax,%eax
  4024b1:	0f 8f f4 fd ff ff    	jg     4022ab <_ZNSt8_Rb_treeIZN11Performance7CompareEvE6resultS1_St9_IdentityIS1_ESt4lessIS1_ESaIS1_EE8_M_eraseEPSt13_Rb_tree_nodeIS1_E+0x1bb>
  4024b7:	48 8d 74 24 6f       	lea    0x6f(%rsp),%rsi
  4024bc:	4c 89 e7             	mov    %r12,%rdi
  4024bf:	e8 dc e9 ff ff       	callq  400ea0 <_ZNSs4_Rep10_M_destroyERKSaIcE@plt>
  4024c4:	e9 e2 fd ff ff       	jmpq   4022ab <_ZNSt8_Rb_treeIZN11Performance7CompareEvE6resultS1_St9_IdentityIS1_ESt4lessIS1_ESaIS1_EE8_M_eraseEPSt13_Rb_tree_nodeIS1_E+0x1bb>
  4024c9:	90                   	nop
  4024ca:	66 0f 1f 44 00 00    	nopw   0x0(%rax,%rax,1)

00000000004024d0 <_ZZN11Performance7CompareEvEN6resultD1Ev>:
  4024d0:	53                   	push   %rbx
  4024d1:	48 83 ec 10          	sub    $0x10,%rsp
  4024d5:	48 8b 5f 08          	mov    0x8(%rdi),%rbx
  4024d9:	48 83 eb 18          	sub    $0x18,%rbx
  4024dd:	48 81 fb 60 64 60 00 	cmp    $0x606460,%rbx
  4024e4:	75 06                	jne    4024ec <_ZZN11Performance7CompareEvEN6resultD1Ev+0x1c>
  4024e6:	48 83 c4 10          	add    $0x10,%rsp
  4024ea:	5b                   	pop    %rbx
  4024eb:	c3                   	retq   
  4024ec:	48 8d 7b 10          	lea    0x10(%rbx),%rdi
  4024f0:	e8 cb ea ff ff       	callq  400fc0 <_ZN9__gnu_cxxL27__exchange_and_add_dispatchEPii.constprop.84>
  4024f5:	85 c0                	test   %eax,%eax
  4024f7:	7f ed                	jg     4024e6 <_ZZN11Performance7CompareEvEN6resultD1Ev+0x16>
  4024f9:	48 8d 74 24 0f       	lea    0xf(%rsp),%rsi
  4024fe:	48 89 df             	mov    %rbx,%rdi
  402501:	e8 9a e9 ff ff       	callq  400ea0 <_ZNSs4_Rep10_M_destroyERKSaIcE@plt>
  402506:	eb de                	jmp    4024e6 <_ZZN11Performance7CompareEvEN6resultD1Ev+0x16>
  402508:	0f 1f 84 00 00 00 00 	nopl   0x0(%rax,%rax,1)
  40250f:	00 

0000000000402510 <_ZN11Performance28TestPerformanceOfOneFunctionERSt6vectorINS_4testESaIS1_EEPFymE>:
  402510:	41 54                	push   %r12
  402512:	49 89 f4             	mov    %rsi,%r12
  402515:	55                   	push   %rbp
  402516:	53                   	push   %rbx
  402517:	48 89 fb             	mov    %rdi,%rbx
  40251a:	48 83 ec 10          	sub    $0x10,%rsp
  40251e:	e8 bd e9 ff ff       	callq  400ee0 <_ZNSt6chrono12system_clock3nowEv@plt>
  402523:	48 8b 6b 08          	mov    0x8(%rbx),%rbp
  402527:	48 8b 1b             	mov    (%rbx),%rbx
  40252a:	48 89 04 24          	mov    %rax,(%rsp)
  40252e:	48 39 eb             	cmp    %rbp,%rbx
  402531:	74 14                	je     402547 <_ZN11Performance28TestPerformanceOfOneFunctionERSt6vectorINS_4testESaIS1_EEPFymE+0x37>
  402533:	0f 1f 44 00 00       	nopl   0x0(%rax,%rax,1)
  402538:	48 8b 3b             	mov    (%rbx),%rdi
  40253b:	48 83 c3 10          	add    $0x10,%rbx
  40253f:	41 ff d4             	callq  *%r12
  402542:	48 39 dd             	cmp    %rbx,%rbp
  402545:	75 f1                	jne    402538 <_ZN11Performance28TestPerformanceOfOneFunctionERSt6vectorINS_4testESaIS1_EEPFymE+0x28>
  402547:	e8 94 e9 ff ff       	callq  400ee0 <_ZNSt6chrono12system_clock3nowEv@plt>
  40254c:	48 2b 04 24          	sub    (%rsp),%rax
  402550:	48 83 c4 10          	add    $0x10,%rsp
  402554:	5b                   	pop    %rbx
  402555:	5d                   	pop    %rbp
  402556:	41 5c                	pop    %r12
  402558:	48 69 c0 e8 03 00 00 	imul   $0x3e8,%rax,%rax
  40255f:	c3                   	retq   

0000000000402560 <_ZN11Performance18InlinedArrayLookupERSt6vectorINS_4testESaIS1_EE>:
  402560:	55                   	push   %rbp
  402561:	53                   	push   %rbx
  402562:	48 89 fb             	mov    %rdi,%rbx
  402565:	48 83 ec 18          	sub    $0x18,%rsp
  402569:	e8 72 e9 ff ff       	callq  400ee0 <_ZNSt6chrono12system_clock3nowEv@plt>
  40256e:	48 8b 73 08          	mov    0x8(%rbx),%rsi
  402572:	48 89 04 24          	mov    %rax,(%rsp)
  402576:	48 8b 03             	mov    (%rbx),%rax
  402579:	31 db                	xor    %ebx,%ebx
  40257b:	48 39 f0             	cmp    %rsi,%rax
  40257e:	74 24                	je     4025a4 <_ZN11Performance18InlinedArrayLookupERSt6vectorINS_4testESaIS1_EE+0x44>
  402580:	48 8b 08             	mov    (%rax),%rcx
  402583:	48 c7 c2 ff ff ff ff 	mov    $0xffffffffffffffff,%rdx
  40258a:	48 83 f9 5c          	cmp    $0x5c,%rcx
  40258e:	77 08                	ja     402598 <_ZN11Performance18InlinedArrayLookupERSt6vectorINS_4testESaIS1_EE+0x38>
  402590:	48 8b 14 cd 60 4f 40 	mov    0x404f60(,%rcx,8),%rdx
  402597:	00 
  402598:	48 83 c0 10          	add    $0x10,%rax
  40259c:	48 31 d3             	xor    %rdx,%rbx
  40259f:	48 39 c6             	cmp    %rax,%rsi
  4025a2:	75 dc                	jne    402580 <_ZN11Performance18InlinedArrayLookupERSt6vectorINS_4testESaIS1_EE+0x20>
  4025a4:	e8 37 e9 ff ff       	callq  400ee0 <_ZNSt6chrono12system_clock3nowEv@plt>
  4025a9:	ba 26 00 00 00       	mov    $0x26,%edx
  4025ae:	be 48 52 40 00       	mov    $0x405248,%esi
  4025b3:	bf 40 63 60 00       	mov    $0x606340,%edi
  4025b8:	48 89 44 24 08       	mov    %rax,0x8(%rsp)
  4025bd:	e8 3e e9 ff ff       	callq  400f00 <_ZSt16__ostream_insertIcSt11char_traitsIcEERSt13basic_ostreamIT_T0_ES6_PKS3_l@plt>
  4025c2:	48 8b 35 ff 3e 20 00 	mov    0x203eff(%rip),%rsi        # 6064c8 <_ZL12GoToColumn60>
  4025c9:	bf 40 63 60 00       	mov    $0x606340,%edi
  4025ce:	48 8b 56 e8          	mov    -0x18(%rsi),%rdx
  4025d2:	e8 29 e9 ff ff       	callq  400f00 <_ZSt16__ostream_insertIcSt11char_traitsIcEERSt13basic_ostreamIT_T0_ES6_PKS3_l@plt>
  4025d7:	48 89 de             	mov    %rbx,%rsi
  4025da:	48 89 c7             	mov    %rax,%rdi
  4025dd:	e8 0e e9 ff ff       	callq  400ef0 <_ZNSo9_M_insertIyEERSoT_@plt>
  4025e2:	48 8b 35 e7 3e 20 00 	mov    0x203ee7(%rip),%rsi        # 6064d0 <_ZL11ToEndOfLine>
  4025e9:	48 89 c7             	mov    %rax,%rdi
  4025ec:	48 8b 56 e8          	mov    -0x18(%rsi),%rdx
  4025f0:	e8 0b e9 ff ff       	callq  400f00 <_ZSt16__ostream_insertIcSt11char_traitsIcEERSt13basic_ostreamIT_T0_ES6_PKS3_l@plt>
  4025f5:	48 89 c5             	mov    %rax,%rbp
  4025f8:	48 8b 00             	mov    (%rax),%rax
  4025fb:	48 8b 40 e8          	mov    -0x18(%rax),%rax
  4025ff:	48 8b 9c 05 f0 00 00 	mov    0xf0(%rbp,%rax,1),%rbx
  402606:	00 
  402607:	48 85 db             	test   %rbx,%rbx
  40260a:	74 4c                	je     402658 <_ZN11Performance18InlinedArrayLookupERSt6vectorINS_4testESaIS1_EE+0xf8>
  40260c:	80 7b 38 00          	cmpb   $0x0,0x38(%rbx)
  402610:	74 2e                	je     402640 <_ZN11Performance18InlinedArrayLookupERSt6vectorINS_4testESaIS1_EE+0xe0>
  402612:	0f b6 43 43          	movzbl 0x43(%rbx),%eax
  402616:	48 89 ef             	mov    %rbp,%rdi
  402619:	0f be f0             	movsbl %al,%esi
  40261c:	e8 7f e9 ff ff       	callq  400fa0 <_ZNSo3putEc@plt>
  402621:	48 89 c7             	mov    %rax,%rdi
  402624:	e8 f7 e8 ff ff       	callq  400f20 <_ZNSo5flushEv@plt>
  402629:	48 8b 44 24 08       	mov    0x8(%rsp),%rax
  40262e:	48 2b 04 24          	sub    (%rsp),%rax
  402632:	48 83 c4 18          	add    $0x18,%rsp
  402636:	5b                   	pop    %rbx
  402637:	5d                   	pop    %rbp
  402638:	48 69 c0 e8 03 00 00 	imul   $0x3e8,%rax,%rax
  40263f:	c3                   	retq   
  402640:	48 89 df             	mov    %rbx,%rdi
  402643:	e8 d8 e7 ff ff       	callq  400e20 <_ZNKSt5ctypeIcE13_M_widen_initEv@plt>
  402648:	48 8b 03             	mov    (%rbx),%rax
  40264b:	be 0a 00 00 00       	mov    $0xa,%esi
  402650:	48 89 df             	mov    %rbx,%rdi
  402653:	ff 50 30             	callq  *0x30(%rax)
  402656:	eb be                	jmp    402616 <_ZN11Performance18InlinedArrayLookupERSt6vectorINS_4testESaIS1_EE+0xb6>
  402658:	e8 a3 e7 ff ff       	callq  400e00 <_ZSt16__throw_bad_castv@plt>
  40265d:	90                   	nop
  40265e:	66 90                	xchg   %ax,%ax

0000000000402660 <_ZN11Performance19InlinedStandardLoopERKSt6vectorINS_4testESaIS1_EE>:
  402660:	55                   	push   %rbp
  402661:	53                   	push   %rbx
  402662:	48 89 fb             	mov    %rdi,%rbx
  402665:	48 83 ec 18          	sub    $0x18,%rsp
  402669:	e8 72 e8 ff ff       	callq  400ee0 <_ZNSt6chrono12system_clock3nowEv@plt>
  40266e:	48 8b 3b             	mov    (%rbx),%rdi
  402671:	48 8b 73 08          	mov    0x8(%rbx),%rsi
  402675:	31 db                	xor    %ebx,%ebx
  402677:	48 89 04 24          	mov    %rax,(%rsp)
  40267b:	48 39 f7             	cmp    %rsi,%rdi
  40267e:	75 14                	jne    402694 <_ZN11Performance19InlinedStandardLoopERKSt6vectorINS_4testESaIS1_EE+0x34>
  402680:	eb 66                	jmp    4026e8 <_ZN11Performance19InlinedStandardLoopERKSt6vectorINS_4testESaIS1_EE+0x88>
  402682:	66 0f 1f 44 00 00    	nopw   0x0(%rax,%rax,1)
  402688:	48 83 c7 10          	add    $0x10,%rdi
  40268c:	48 31 c3             	xor    %rax,%rbx
  40268f:	48 39 fe             	cmp    %rdi,%rsi
  402692:	74 54                	je     4026e8 <_ZN11Performance19InlinedStandardLoopERKSt6vectorINS_4testESaIS1_EE+0x88>
  402694:	48 8b 17             	mov    (%rdi),%rdx
  402697:	48 c7 c0 ff ff ff ff 	mov    $0xffffffffffffffff,%rax
  40269e:	48 83 fa 5c          	cmp    $0x5c,%rdx
  4026a2:	77 e4                	ja     402688 <_ZN11Performance19InlinedStandardLoopERKSt6vectorINS_4testESaIS1_EE+0x28>
  4026a4:	48 85 d2             	test   %rdx,%rdx
  4026a7:	b8 01 00 00 00       	mov    $0x1,%eax
  4026ac:	74 da                	je     402688 <_ZN11Performance19InlinedStandardLoopERKSt6vectorINS_4testESaIS1_EE+0x28>
  4026ae:	48 83 ea 01          	sub    $0x1,%rdx
  4026b2:	74 d4                	je     402688 <_ZN11Performance19InlinedStandardLoopERKSt6vectorINS_4testESaIS1_EE+0x28>
  4026b4:	41 b8 01 00 00 00    	mov    $0x1,%r8d
  4026ba:	b9 01 00 00 00       	mov    $0x1,%ecx
  4026bf:	eb 0a                	jmp    4026cb <_ZN11Performance19InlinedStandardLoopERKSt6vectorINS_4testESaIS1_EE+0x6b>
  4026c1:	0f 1f 80 00 00 00 00 	nopl   0x0(%rax)
  4026c8:	48 89 c1             	mov    %rax,%rcx
  4026cb:	48 83 ea 01          	sub    $0x1,%rdx
  4026cf:	49 8d 04 08          	lea    (%r8,%rcx,1),%rax
  4026d3:	49 89 c8             	mov    %rcx,%r8
  4026d6:	75 f0                	jne    4026c8 <_ZN11Performance19InlinedStandardLoopERKSt6vectorINS_4testESaIS1_EE+0x68>
  4026d8:	48 83 c7 10          	add    $0x10,%rdi
  4026dc:	48 31 c3             	xor    %rax,%rbx
  4026df:	48 39 fe             	cmp    %rdi,%rsi
  4026e2:	75 b0                	jne    402694 <_ZN11Performance19InlinedStandardLoopERKSt6vectorINS_4testESaIS1_EE+0x34>
  4026e4:	0f 1f 40 00          	nopl   0x0(%rax)
  4026e8:	e8 f3 e7 ff ff       	callq  400ee0 <_ZNSt6chrono12system_clock3nowEv@plt>
  4026ed:	ba 27 00 00 00       	mov    $0x27,%edx
  4026f2:	be 70 52 40 00       	mov    $0x405270,%esi
  4026f7:	bf 40 63 60 00       	mov    $0x606340,%edi
  4026fc:	48 89 44 24 08       	mov    %rax,0x8(%rsp)
  402701:	e8 fa e7 ff ff       	callq  400f00 <_ZSt16__ostream_insertIcSt11char_traitsIcEERSt13basic_ostreamIT_T0_ES6_PKS3_l@plt>
  402706:	48 8b 35 bb 3d 20 00 	mov    0x203dbb(%rip),%rsi        # 6064c8 <_ZL12GoToColumn60>
  40270d:	bf 40 63 60 00       	mov    $0x606340,%edi
  402712:	48 8b 56 e8          	mov    -0x18(%rsi),%rdx
  402716:	e8 e5 e7 ff ff       	callq  400f00 <_ZSt16__ostream_insertIcSt11char_traitsIcEERSt13basic_ostreamIT_T0_ES6_PKS3_l@plt>
  40271b:	48 89 de             	mov    %rbx,%rsi
  40271e:	48 89 c7             	mov    %rax,%rdi
  402721:	e8 ca e7 ff ff       	callq  400ef0 <_ZNSo9_M_insertIyEERSoT_@plt>
  402726:	48 8b 35 a3 3d 20 00 	mov    0x203da3(%rip),%rsi        # 6064d0 <_ZL11ToEndOfLine>
  40272d:	48 89 c7             	mov    %rax,%rdi
  402730:	48 8b 56 e8          	mov    -0x18(%rsi),%rdx
  402734:	e8 c7 e7 ff ff       	callq  400f00 <_ZSt16__ostream_insertIcSt11char_traitsIcEERSt13basic_ostreamIT_T0_ES6_PKS3_l@plt>
  402739:	48 89 c5             	mov    %rax,%rbp
  40273c:	48 8b 00             	mov    (%rax),%rax
  40273f:	48 8b 40 e8          	mov    -0x18(%rax),%rax
  402743:	48 8b 9c 05 f0 00 00 	mov    0xf0(%rbp,%rax,1),%rbx
  40274a:	00 
  40274b:	48 85 db             	test   %rbx,%rbx
  40274e:	74 50                	je     4027a0 <_ZN11Performance19InlinedStandardLoopERKSt6vectorINS_4testESaIS1_EE+0x140>
  402750:	80 7b 38 00          	cmpb   $0x0,0x38(%rbx)
  402754:	74 32                	je     402788 <_ZN11Performance19InlinedStandardLoopERKSt6vectorINS_4testESaIS1_EE+0x128>
  402756:	0f b6 43 43          	movzbl 0x43(%rbx),%eax
  40275a:	48 89 ef             	mov    %rbp,%rdi
  40275d:	0f be f0             	movsbl %al,%esi
  402760:	e8 3b e8 ff ff       	callq  400fa0 <_ZNSo3putEc@plt>
  402765:	48 89 c7             	mov    %rax,%rdi
  402768:	e8 b3 e7 ff ff       	callq  400f20 <_ZNSo5flushEv@plt>
  40276d:	48 8b 44 24 08       	mov    0x8(%rsp),%rax
  402772:	48 2b 04 24          	sub    (%rsp),%rax
  402776:	48 83 c4 18          	add    $0x18,%rsp
  40277a:	5b                   	pop    %rbx
  40277b:	5d                   	pop    %rbp
  40277c:	48 69 c0 e8 03 00 00 	imul   $0x3e8,%rax,%rax
  402783:	c3                   	retq   
  402784:	0f 1f 40 00          	nopl   0x0(%rax)
  402788:	48 89 df             	mov    %rbx,%rdi
  40278b:	e8 90 e6 ff ff       	callq  400e20 <_ZNKSt5ctypeIcE13_M_widen_initEv@plt>
  402790:	48 8b 03             	mov    (%rbx),%rax
  402793:	be 0a 00 00 00       	mov    $0xa,%esi
  402798:	48 89 df             	mov    %rbx,%rdi
  40279b:	ff 50 30             	callq  *0x30(%rax)
  40279e:	eb ba                	jmp    40275a <_ZN11Performance19InlinedStandardLoopERKSt6vectorINS_4testESaIS1_EE+0xfa>
  4027a0:	e8 5b e6 ff ff       	callq  400e00 <_ZSt16__throw_bad_castv@plt>
  4027a5:	90                   	nop
  4027a6:	66 2e 0f 1f 84 00 00 	nopw   %cs:0x0(%rax,%rax,1)
  4027ad:	00 00 00 

00000000004027b0 <_ZN11Performance16InlinedRecursionERSt6vectorINS_4testESaIS1_EE>:
  4027b0:	55                   	push   %rbp
  4027b1:	53                   	push   %rbx
  4027b2:	48 89 fb             	mov    %rdi,%rbx
  4027b5:	48 83 ec 18          	sub    $0x18,%rsp
  4027b9:	e8 22 e7 ff ff       	callq  400ee0 <_ZNSt6chrono12system_clock3nowEv@plt>
  4027be:	4c 8b 03             	mov    (%rbx),%r8
  4027c1:	48 8b 73 08          	mov    0x8(%rbx),%rsi
  4027c5:	31 db                	xor    %ebx,%ebx
  4027c7:	48 89 04 24          	mov    %rax,(%rsp)
  4027cb:	49 39 f0             	cmp    %rsi,%r8
  4027ce:	75 14                	jne    4027e4 <_ZN11Performance16InlinedRecursionERSt6vectorINS_4testESaIS1_EE+0x34>
  4027d0:	eb 5a                	jmp    40282c <_ZN11Performance16InlinedRecursionERSt6vectorINS_4testESaIS1_EE+0x7c>
  4027d2:	66 0f 1f 44 00 00    	nopw   0x0(%rax,%rax,1)
  4027d8:	49 83 c0 10          	add    $0x10,%r8
  4027dc:	48 31 cb             	xor    %rcx,%rbx
  4027df:	4c 39 c6             	cmp    %r8,%rsi
  4027e2:	74 48                	je     40282c <_ZN11Performance16InlinedRecursionERSt6vectorINS_4testESaIS1_EE+0x7c>
  4027e4:	49 8b 00             	mov    (%r8),%rax
  4027e7:	48 c7 c1 ff ff ff ff 	mov    $0xffffffffffffffff,%rcx
  4027ee:	48 83 f8 5c          	cmp    $0x5c,%rax
  4027f2:	77 e4                	ja     4027d8 <_ZN11Performance16InlinedRecursionERSt6vectorINS_4testESaIS1_EE+0x28>
  4027f4:	48 85 c0             	test   %rax,%rax
  4027f7:	0f 84 eb 00 00 00    	je     4028e8 <_ZN11Performance16InlinedRecursionERSt6vectorINS_4testESaIS1_EE+0x138>
  4027fd:	31 ff                	xor    %edi,%edi
  4027ff:	ba 01 00 00 00       	mov    $0x1,%edx
  402804:	eb 0d                	jmp    402813 <_ZN11Performance16InlinedRecursionERSt6vectorINS_4testESaIS1_EE+0x63>
  402806:	66 2e 0f 1f 84 00 00 	nopw   %cs:0x0(%rax,%rax,1)
  40280d:	00 00 00 
  402810:	48 89 ca             	mov    %rcx,%rdx
  402813:	48 83 e8 01          	sub    $0x1,%rax
  402817:	48 8d 0c 17          	lea    (%rdi,%rdx,1),%rcx
  40281b:	48 89 d7             	mov    %rdx,%rdi
  40281e:	75 f0                	jne    402810 <_ZN11Performance16InlinedRecursionERSt6vectorINS_4testESaIS1_EE+0x60>
  402820:	49 83 c0 10          	add    $0x10,%r8
  402824:	48 31 cb             	xor    %rcx,%rbx
  402827:	4c 39 c6             	cmp    %r8,%rsi
  40282a:	75 b8                	jne    4027e4 <_ZN11Performance16InlinedRecursionERSt6vectorINS_4testESaIS1_EE+0x34>
  40282c:	e8 af e6 ff ff       	callq  400ee0 <_ZNSt6chrono12system_clock3nowEv@plt>
  402831:	ba 24 00 00 00       	mov    $0x24,%edx
  402836:	be 98 52 40 00       	mov    $0x405298,%esi
  40283b:	bf 40 63 60 00       	mov    $0x606340,%edi
  402840:	48 89 44 24 08       	mov    %rax,0x8(%rsp)
  402845:	e8 b6 e6 ff ff       	callq  400f00 <_ZSt16__ostream_insertIcSt11char_traitsIcEERSt13basic_ostreamIT_T0_ES6_PKS3_l@plt>
  40284a:	48 8b 35 77 3c 20 00 	mov    0x203c77(%rip),%rsi        # 6064c8 <_ZL12GoToColumn60>
  402851:	bf 40 63 60 00       	mov    $0x606340,%edi
  402856:	48 8b 56 e8          	mov    -0x18(%rsi),%rdx
  40285a:	e8 a1 e6 ff ff       	callq  400f00 <_ZSt16__ostream_insertIcSt11char_traitsIcEERSt13basic_ostreamIT_T0_ES6_PKS3_l@plt>
  40285f:	48 89 de             	mov    %rbx,%rsi
  402862:	48 89 c7             	mov    %rax,%rdi
  402865:	e8 86 e6 ff ff       	callq  400ef0 <_ZNSo9_M_insertIyEERSoT_@plt>
  40286a:	48 8b 35 5f 3c 20 00 	mov    0x203c5f(%rip),%rsi        # 6064d0 <_ZL11ToEndOfLine>
  402871:	48 89 c7             	mov    %rax,%rdi
  402874:	48 8b 56 e8          	mov    -0x18(%rsi),%rdx
  402878:	e8 83 e6 ff ff       	callq  400f00 <_ZSt16__ostream_insertIcSt11char_traitsIcEERSt13basic_ostreamIT_T0_ES6_PKS3_l@plt>
  40287d:	48 89 c5             	mov    %rax,%rbp
  402880:	48 8b 00             	mov    (%rax),%rax
  402883:	48 8b 40 e8          	mov    -0x18(%rax),%rax
  402887:	48 8b 9c 05 f0 00 00 	mov    0xf0(%rbp,%rax,1),%rbx
  40288e:	00 
  40288f:	48 85 db             	test   %rbx,%rbx
  402892:	74 5e                	je     4028f2 <_ZN11Performance16InlinedRecursionERSt6vectorINS_4testESaIS1_EE+0x142>
  402894:	80 7b 38 00          	cmpb   $0x0,0x38(%rbx)
  402898:	74 36                	je     4028d0 <_ZN11Performance16InlinedRecursionERSt6vectorINS_4testESaIS1_EE+0x120>
  40289a:	0f b6 43 43          	movzbl 0x43(%rbx),%eax
  40289e:	48 89 ef             	mov    %rbp,%rdi
  4028a1:	0f be f0             	movsbl %al,%esi
  4028a4:	e8 f7 e6 ff ff       	callq  400fa0 <_ZNSo3putEc@plt>
  4028a9:	48 89 c7             	mov    %rax,%rdi
  4028ac:	e8 6f e6 ff ff       	callq  400f20 <_ZNSo5flushEv@plt>
  4028b1:	48 8b 44 24 08       	mov    0x8(%rsp),%rax
  4028b6:	48 2b 04 24          	sub    (%rsp),%rax
  4028ba:	48 83 c4 18          	add    $0x18,%rsp
  4028be:	5b                   	pop    %rbx
  4028bf:	5d                   	pop    %rbp
  4028c0:	48 69 c0 e8 03 00 00 	imul   $0x3e8,%rax,%rax
  4028c7:	c3                   	retq   
  4028c8:	0f 1f 84 00 00 00 00 	nopl   0x0(%rax,%rax,1)
  4028cf:	00 
  4028d0:	48 89 df             	mov    %rbx,%rdi
  4028d3:	e8 48 e5 ff ff       	callq  400e20 <_ZNKSt5ctypeIcE13_M_widen_initEv@plt>
  4028d8:	48 8b 03             	mov    (%rbx),%rax
  4028db:	be 0a 00 00 00       	mov    $0xa,%esi
  4028e0:	48 89 df             	mov    %rbx,%rdi
  4028e3:	ff 50 30             	callq  *0x30(%rax)
  4028e6:	eb b6                	jmp    40289e <_ZN11Performance16InlinedRecursionERSt6vectorINS_4testESaIS1_EE+0xee>
  4028e8:	b9 01 00 00 00       	mov    $0x1,%ecx
  4028ed:	e9 e6 fe ff ff       	jmpq   4027d8 <_ZN11Performance16InlinedRecursionERSt6vectorINS_4testESaIS1_EE+0x28>
  4028f2:	e8 09 e5 ff ff       	callq  400e00 <_ZSt16__throw_bad_castv@plt>
  4028f7:	90                   	nop
  4028f8:	0f 1f 84 00 00 00 00 	nopl   0x0(%rax,%rax,1)
  4028ff:	00 

0000000000402900 <_ZN11Performance13InlinedMatrixERSt6vectorINS_4testESaIS1_EE>:
  402900:	41 54                	push   %r12
  402902:	55                   	push   %rbp
  402903:	48 89 fd             	mov    %rdi,%rbp
  402906:	53                   	push   %rbx
  402907:	48 83 ec 10          	sub    $0x10,%rsp
  40290b:	e8 d0 e5 ff ff       	callq  400ee0 <_ZNSt6chrono12system_clock3nowEv@plt>
  402910:	48 8b 5d 00          	mov    0x0(%rbp),%rbx
  402914:	4c 8b 65 08          	mov    0x8(%rbp),%r12
  402918:	31 ed                	xor    %ebp,%ebp
  40291a:	48 89 04 24          	mov    %rax,(%rsp)
  40291e:	4c 39 e3             	cmp    %r12,%rbx
  402921:	74 19                	je     40293c <_ZN11Performance13InlinedMatrixERSt6vectorINS_4testESaIS1_EE+0x3c>
  402923:	0f 1f 44 00 00       	nopl   0x0(%rax,%rax,1)
  402928:	48 8b 3b             	mov    (%rbx),%rdi
  40292b:	48 83 c3 10          	add    $0x10,%rbx
  40292f:	e8 cc 22 00 00       	callq  404c00 <_ZN20matrixMultiplication11UsingMatrix9fibonacciEm>
  402934:	48 31 c5             	xor    %rax,%rbp
  402937:	49 39 dc             	cmp    %rbx,%r12
  40293a:	75 ec                	jne    402928 <_ZN11Performance13InlinedMatrixERSt6vectorINS_4testESaIS1_EE+0x28>
  40293c:	e8 9f e5 ff ff       	callq  400ee0 <_ZNSt6chrono12system_clock3nowEv@plt>
  402941:	ba 21 00 00 00       	mov    $0x21,%edx
  402946:	be c0 52 40 00       	mov    $0x4052c0,%esi
  40294b:	bf 40 63 60 00       	mov    $0x606340,%edi
  402950:	48 89 44 24 08       	mov    %rax,0x8(%rsp)
  402955:	e8 a6 e5 ff ff       	callq  400f00 <_ZSt16__ostream_insertIcSt11char_traitsIcEERSt13basic_ostreamIT_T0_ES6_PKS3_l@plt>
  40295a:	48 8b 35 67 3b 20 00 	mov    0x203b67(%rip),%rsi        # 6064c8 <_ZL12GoToColumn60>
  402961:	bf 40 63 60 00       	mov    $0x606340,%edi
  402966:	48 8b 56 e8          	mov    -0x18(%rsi),%rdx
  40296a:	e8 91 e5 ff ff       	callq  400f00 <_ZSt16__ostream_insertIcSt11char_traitsIcEERSt13basic_ostreamIT_T0_ES6_PKS3_l@plt>
  40296f:	48 89 ee             	mov    %rbp,%rsi
  402972:	48 89 c7             	mov    %rax,%rdi
  402975:	e8 76 e5 ff ff       	callq  400ef0 <_ZNSo9_M_insertIyEERSoT_@plt>
  40297a:	48 8b 35 4f 3b 20 00 	mov    0x203b4f(%rip),%rsi        # 6064d0 <_ZL11ToEndOfLine>
  402981:	48 89 c7             	mov    %rax,%rdi
  402984:	48 8b 56 e8          	mov    -0x18(%rsi),%rdx
  402988:	e8 73 e5 ff ff       	callq  400f00 <_ZSt16__ostream_insertIcSt11char_traitsIcEERSt13basic_ostreamIT_T0_ES6_PKS3_l@plt>
  40298d:	48 89 c5             	mov    %rax,%rbp
  402990:	48 8b 00             	mov    (%rax),%rax
  402993:	48 8b 40 e8          	mov    -0x18(%rax),%rax
  402997:	48 8b 9c 05 f0 00 00 	mov    0xf0(%rbp,%rax,1),%rbx
  40299e:	00 
  40299f:	48 85 db             	test   %rbx,%rbx
  4029a2:	74 54                	je     4029f8 <_ZN11Performance13InlinedMatrixERSt6vectorINS_4testESaIS1_EE+0xf8>
  4029a4:	80 7b 38 00          	cmpb   $0x0,0x38(%rbx)
  4029a8:	74 36                	je     4029e0 <_ZN11Performance13InlinedMatrixERSt6vectorINS_4testESaIS1_EE+0xe0>
  4029aa:	0f b6 43 43          	movzbl 0x43(%rbx),%eax
  4029ae:	48 89 ef             	mov    %rbp,%rdi
  4029b1:	0f be f0             	movsbl %al,%esi
  4029b4:	e8 e7 e5 ff ff       	callq  400fa0 <_ZNSo3putEc@plt>
  4029b9:	48 89 c7             	mov    %rax,%rdi
  4029bc:	e8 5f e5 ff ff       	callq  400f20 <_ZNSo5flushEv@plt>
  4029c1:	48 8b 44 24 08       	mov    0x8(%rsp),%rax
  4029c6:	48 2b 04 24          	sub    (%rsp),%rax
  4029ca:	48 83 c4 10          	add    $0x10,%rsp
  4029ce:	5b                   	pop    %rbx
  4029cf:	5d                   	pop    %rbp
  4029d0:	41 5c                	pop    %r12
  4029d2:	48 69 c0 e8 03 00 00 	imul   $0x3e8,%rax,%rax
  4029d9:	c3                   	retq   
  4029da:	66 0f 1f 44 00 00    	nopw   0x0(%rax,%rax,1)
  4029e0:	48 89 df             	mov    %rbx,%rdi
  4029e3:	e8 38 e4 ff ff       	callq  400e20 <_ZNKSt5ctypeIcE13_M_widen_initEv@plt>
  4029e8:	48 8b 03             	mov    (%rbx),%rax
  4029eb:	be 0a 00 00 00       	mov    $0xa,%esi
  4029f0:	48 89 df             	mov    %rbx,%rdi
  4029f3:	ff 50 30             	callq  *0x30(%rax)
  4029f6:	eb b6                	jmp    4029ae <_ZN11Performance13InlinedMatrixERSt6vectorINS_4testESaIS1_EE+0xae>
  4029f8:	e8 03 e4 ff ff       	callq  400e00 <_ZSt16__throw_bad_castv@plt>
  4029fd:	90                   	nop
  4029fe:	66 90                	xchg   %ax,%ax

0000000000402a00 <_ZN11Performance30InlinedWithoutLoopsOrRecursionERSt6vectorINS_4testESaIS1_EE>:
  402a00:	41 55                	push   %r13
  402a02:	41 54                	push   %r12
  402a04:	55                   	push   %rbp
  402a05:	48 89 fd             	mov    %rdi,%rbp
  402a08:	53                   	push   %rbx
  402a09:	48 83 ec 18          	sub    $0x18,%rsp
  402a0d:	e8 ce e4 ff ff       	callq  400ee0 <_ZNSt6chrono12system_clock3nowEv@plt>
  402a12:	48 8b 5d 00          	mov    0x0(%rbp),%rbx
  402a16:	4c 8b 65 08          	mov    0x8(%rbp),%r12
  402a1a:	31 ed                	xor    %ebp,%ebp
  402a1c:	48 89 04 24          	mov    %rax,(%rsp)
  402a20:	4c 39 e3             	cmp    %r12,%rbx
  402a23:	74 79                	je     402a9e <_ZN11Performance30InlinedWithoutLoopsOrRecursionERSt6vectorINS_4testESaIS1_EE+0x9e>
  402a25:	49 bd 00 00 00 00 00 	mov    $0x8000000000000000,%r13
  402a2c:	00 00 80 
  402a2f:	eb 18                	jmp    402a49 <_ZN11Performance30InlinedWithoutLoopsOrRecursionERSt6vectorINS_4testESaIS1_EE+0x49>
  402a31:	0f 1f 80 00 00 00 00 	nopl   0x0(%rax)
  402a38:	f2 48 0f 2c c0       	cvttsd2si %xmm0,%rax
  402a3d:	48 83 c3 10          	add    $0x10,%rbx
  402a41:	48 31 c5             	xor    %rax,%rbp
  402a44:	49 39 dc             	cmp    %rbx,%r12
  402a47:	74 55                	je     402a9e <_ZN11Performance30InlinedWithoutLoopsOrRecursionERSt6vectorINS_4testESaIS1_EE+0x9e>
  402a49:	48 8b 03             	mov    (%rbx),%rax
  402a4c:	48 83 c0 01          	add    $0x1,%rax
  402a50:	0f 88 ea 00 00 00    	js     402b40 <_ZN11Performance30InlinedWithoutLoopsOrRecursionERSt6vectorINS_4testESaIS1_EE+0x140>
  402a56:	f2 48 0f 2a c8       	cvtsi2sd %rax,%xmm1
  402a5b:	f2 0f 10 05 c5 24 00 	movsd  0x24c5(%rip),%xmm0        # 404f28 <._92+0x28>
  402a62:	00 
  402a63:	e8 58 e4 ff ff       	callq  400ec0 <pow@plt>
  402a68:	f2 0f 59 05 c0 24 00 	mulsd  0x24c0(%rip),%xmm0        # 404f30 <._92+0x30>
  402a6f:	00 
  402a70:	f2 0f 58 05 c0 24 00 	addsd  0x24c0(%rip),%xmm0        # 404f38 <._92+0x38>
  402a77:	00 
  402a78:	66 0f 2e 05 c0 24 00 	ucomisd 0x24c0(%rip),%xmm0        # 404f40 <._92+0x40>
  402a7f:	00 
  402a80:	72 b6                	jb     402a38 <_ZN11Performance30InlinedWithoutLoopsOrRecursionERSt6vectorINS_4testESaIS1_EE+0x38>
  402a82:	f2 0f 5c 05 b6 24 00 	subsd  0x24b6(%rip),%xmm0        # 404f40 <._92+0x40>
  402a89:	00 
  402a8a:	48 83 c3 10          	add    $0x10,%rbx
  402a8e:	f2 48 0f 2c c0       	cvttsd2si %xmm0,%rax
  402a93:	4c 31 e8             	xor    %r13,%rax
  402a96:	48 31 c5             	xor    %rax,%rbp
  402a99:	49 39 dc             	cmp    %rbx,%r12
  402a9c:	75 ab                	jne    402a49 <_ZN11Performance30InlinedWithoutLoopsOrRecursionERSt6vectorINS_4testESaIS1_EE+0x49>
  402a9e:	e8 3d e4 ff ff       	callq  400ee0 <_ZNSt6chrono12system_clock3nowEv@plt>
  402aa3:	ba 32 00 00 00       	mov    $0x32,%edx
  402aa8:	be e8 52 40 00       	mov    $0x4052e8,%esi
  402aad:	bf 40 63 60 00       	mov    $0x606340,%edi
  402ab2:	48 89 44 24 08       	mov    %rax,0x8(%rsp)
  402ab7:	e8 44 e4 ff ff       	callq  400f00 <_ZSt16__ostream_insertIcSt11char_traitsIcEERSt13basic_ostreamIT_T0_ES6_PKS3_l@plt>
  402abc:	48 8b 35 05 3a 20 00 	mov    0x203a05(%rip),%rsi        # 6064c8 <_ZL12GoToColumn60>
  402ac3:	bf 40 63 60 00       	mov    $0x606340,%edi
  402ac8:	48 8b 56 e8          	mov    -0x18(%rsi),%rdx
  402acc:	e8 2f e4 ff ff       	callq  400f00 <_ZSt16__ostream_insertIcSt11char_traitsIcEERSt13basic_ostreamIT_T0_ES6_PKS3_l@plt>
  402ad1:	48 89 ee             	mov    %rbp,%rsi
  402ad4:	48 89 c7             	mov    %rax,%rdi
  402ad7:	e8 14 e4 ff ff       	callq  400ef0 <_ZNSo9_M_insertIyEERSoT_@plt>
  402adc:	48 8b 35 ed 39 20 00 	mov    0x2039ed(%rip),%rsi        # 6064d0 <_ZL11ToEndOfLine>
  402ae3:	48 89 c7             	mov    %rax,%rdi
  402ae6:	48 8b 56 e8          	mov    -0x18(%rsi),%rdx
  402aea:	e8 11 e4 ff ff       	callq  400f00 <_ZSt16__ostream_insertIcSt11char_traitsIcEERSt13basic_ostreamIT_T0_ES6_PKS3_l@plt>
  402aef:	48 89 c5             	mov    %rax,%rbp
  402af2:	48 8b 00             	mov    (%rax),%rax
  402af5:	48 8b 40 e8          	mov    -0x18(%rax),%rax
  402af9:	48 8b 9c 05 f0 00 00 	mov    0xf0(%rbp,%rax,1),%rbx
  402b00:	00 
  402b01:	48 85 db             	test   %rbx,%rbx
  402b04:	74 72                	je     402b78 <_ZN11Performance30InlinedWithoutLoopsOrRecursionERSt6vectorINS_4testESaIS1_EE+0x178>
  402b06:	80 7b 38 00          	cmpb   $0x0,0x38(%rbx)
  402b0a:	74 54                	je     402b60 <_ZN11Performance30InlinedWithoutLoopsOrRecursionERSt6vectorINS_4testESaIS1_EE+0x160>
  402b0c:	0f b6 43 43          	movzbl 0x43(%rbx),%eax
  402b10:	48 89 ef             	mov    %rbp,%rdi
  402b13:	0f be f0             	movsbl %al,%esi
  402b16:	e8 85 e4 ff ff       	callq  400fa0 <_ZNSo3putEc@plt>
  402b1b:	48 89 c7             	mov    %rax,%rdi
  402b1e:	e8 fd e3 ff ff       	callq  400f20 <_ZNSo5flushEv@plt>
  402b23:	48 8b 44 24 08       	mov    0x8(%rsp),%rax
  402b28:	48 2b 04 24          	sub    (%rsp),%rax
  402b2c:	48 83 c4 18          	add    $0x18,%rsp
  402b30:	5b                   	pop    %rbx
  402b31:	5d                   	pop    %rbp
  402b32:	41 5c                	pop    %r12
  402b34:	48 69 c0 e8 03 00 00 	imul   $0x3e8,%rax,%rax
  402b3b:	41 5d                	pop    %r13
  402b3d:	c3                   	retq   
  402b3e:	66 90                	xchg   %ax,%ax
  402b40:	48 89 c2             	mov    %rax,%rdx
  402b43:	83 e0 01             	and    $0x1,%eax
  402b46:	48 d1 ea             	shr    %rdx
  402b49:	48 09 c2             	or     %rax,%rdx
  402b4c:	f2 48 0f 2a ca       	cvtsi2sd %rdx,%xmm1
  402b51:	f2 0f 58 c9          	addsd  %xmm1,%xmm1
  402b55:	e9 01 ff ff ff       	jmpq   402a5b <_ZN11Performance30InlinedWithoutLoopsOrRecursionERSt6vectorINS_4testESaIS1_EE+0x5b>
  402b5a:	66 0f 1f 44 00 00    	nopw   0x0(%rax,%rax,1)
  402b60:	48 89 df             	mov    %rbx,%rdi
  402b63:	e8 b8 e2 ff ff       	callq  400e20 <_ZNKSt5ctypeIcE13_M_widen_initEv@plt>
  402b68:	48 8b 03             	mov    (%rbx),%rax
  402b6b:	be 0a 00 00 00       	mov    $0xa,%esi
  402b70:	48 89 df             	mov    %rbx,%rdi
  402b73:	ff 50 30             	callq  *0x30(%rax)
  402b76:	eb 98                	jmp    402b10 <_ZN11Performance30InlinedWithoutLoopsOrRecursionERSt6vectorINS_4testESaIS1_EE+0x110>
  402b78:	e8 83 e2 ff ff       	callq  400e00 <_ZSt16__throw_bad_castv@plt>
  402b7d:	90                   	nop
  402b7e:	66 90                	xchg   %ax,%ax

0000000000402b80 <_ZN11Performance4ShowERKSt6vectorImSaImEE>:
  402b80:	41 57                	push   %r15
  402b82:	41 56                	push   %r14
  402b84:	41 55                	push   %r13
  402b86:	41 54                	push   %r12
  402b88:	49 89 fc             	mov    %rdi,%r12
  402b8b:	bf 40 63 60 00       	mov    $0x606340,%edi
  402b90:	55                   	push   %rbp
  402b91:	53                   	push   %rbx
  402b92:	48 83 ec 08          	sub    $0x8,%rsp
  402b96:	48 8b 35 3b 39 20 00 	mov    0x20393b(%rip),%rsi        # 6064d8 <_ZL10BeginTitle>
  402b9d:	48 8b 56 e8          	mov    -0x18(%rsi),%rdx
  402ba1:	e8 5a e3 ff ff       	callq  400f00 <_ZSt16__ostream_insertIcSt11char_traitsIcEERSt13basic_ostreamIT_T0_ES6_PKS3_l@plt>
  402ba6:	ba 5f 00 00 00       	mov    $0x5f,%edx
  402bab:	be 20 53 40 00       	mov    $0x405320,%esi
  402bb0:	48 89 c7             	mov    %rax,%rdi
  402bb3:	48 89 c3             	mov    %rax,%rbx
  402bb6:	e8 45 e3 ff ff       	callq  400f00 <_ZSt16__ostream_insertIcSt11char_traitsIcEERSt13basic_ostreamIT_T0_ES6_PKS3_l@plt>
  402bbb:	48 8b 35 1e 39 20 00 	mov    0x20391e(%rip),%rsi        # 6064e0 <_ZL8EndTitle>
  402bc2:	48 89 df             	mov    %rbx,%rdi
  402bc5:	48 8b 56 e8          	mov    -0x18(%rsi),%rdx
  402bc9:	e8 32 e3 ff ff       	callq  400f00 <_ZSt16__ostream_insertIcSt11char_traitsIcEERSt13basic_ostreamIT_T0_ES6_PKS3_l@plt>
  402bce:	48 89 c5             	mov    %rax,%rbp
  402bd1:	48 8b 00             	mov    (%rax),%rax
  402bd4:	48 8b 40 e8          	mov    -0x18(%rax),%rax
  402bd8:	48 8b 9c 05 f0 00 00 	mov    0xf0(%rbp,%rax,1),%rbx
  402bdf:	00 
  402be0:	48 85 db             	test   %rbx,%rbx
  402be3:	0f 84 f2 01 00 00    	je     402ddb <_ZN11Performance4ShowERKSt6vectorImSaImEE+0x25b>
  402be9:	80 7b 38 00          	cmpb   $0x0,0x38(%rbx)
  402bed:	0f 84 ad 01 00 00    	je     402da0 <_ZN11Performance4ShowERKSt6vectorImSaImEE+0x220>
  402bf3:	0f b6 43 43          	movzbl 0x43(%rbx),%eax
  402bf7:	0f be f0             	movsbl %al,%esi
  402bfa:	48 89 ef             	mov    %rbp,%rdi
  402bfd:	31 db                	xor    %ebx,%ebx
  402bff:	e8 9c e3 ff ff       	callq  400fa0 <_ZNSo3putEc@plt>
  402c04:	48 89 c7             	mov    %rax,%rdi
  402c07:	e8 14 e3 ff ff       	callq  400f20 <_ZNSo5flushEv@plt>
  402c0c:	49 8b 04 24          	mov    (%r12),%rax
  402c10:	4d 8b 6c 24 08       	mov    0x8(%r12),%r13
  402c15:	49 29 c5             	sub    %rax,%r13
  402c18:	49 c1 ed 03          	shr    $0x3,%r13
  402c1c:	45 85 ed             	test   %r13d,%r13d
  402c1f:	7f 20                	jg     402c41 <_ZN11Performance4ShowERKSt6vectorImSaImEE+0xc1>
  402c21:	e9 0a 01 00 00       	jmpq   402d30 <_ZN11Performance4ShowERKSt6vectorImSaImEE+0x1b0>
  402c26:	66 2e 0f 1f 84 00 00 	nopw   %cs:0x0(%rax,%rax,1)
  402c2d:	00 00 00 
  402c30:	48 83 c3 01          	add    $0x1,%rbx
  402c34:	41 39 dd             	cmp    %ebx,%r13d
  402c37:	0f 8e f3 00 00 00    	jle    402d30 <_ZN11Performance4ShowERKSt6vectorImSaImEE+0x1b0>
  402c3d:	49 8b 04 24          	mov    (%r12),%rax
  402c41:	ba 01 00 00 00       	mov    $0x1,%edx
  402c46:	be 4b 4e 40 00       	mov    $0x404e4b,%esi
  402c4b:	bf 40 63 60 00       	mov    $0x606340,%edi
  402c50:	4c 8b 3c d8          	mov    (%rax,%rbx,8),%r15
  402c54:	e8 a7 e2 ff ff       	callq  400f00 <_ZSt16__ostream_insertIcSt11char_traitsIcEERSt13basic_ostreamIT_T0_ES6_PKS3_l@plt>
  402c59:	48 8b 05 e0 36 20 00 	mov    0x2036e0(%rip),%rax        # 606340 <__TMC_END__>
  402c60:	89 de                	mov    %ebx,%esi
  402c62:	bf 40 63 60 00       	mov    $0x606340,%edi
  402c67:	48 8b 40 e8          	mov    -0x18(%rax),%rax
  402c6b:	48 c7 80 50 63 60 00 	movq   $0x2,0x606350(%rax)
  402c72:	02 00 00 00 
  402c76:	e8 75 e1 ff ff       	callq  400df0 <_ZNSolsEi@plt>
  402c7b:	ba 03 00 00 00       	mov    $0x3,%edx
  402c80:	48 89 c5             	mov    %rax,%rbp
  402c83:	be 90 55 40 00       	mov    $0x405590,%esi
  402c88:	48 89 c7             	mov    %rax,%rdi
  402c8b:	e8 70 e2 ff ff       	callq  400f00 <_ZSt16__ostream_insertIcSt11char_traitsIcEERSt13basic_ostreamIT_T0_ES6_PKS3_l@plt>
  402c90:	48 8b 45 00          	mov    0x0(%rbp),%rax
  402c94:	4c 89 fe             	mov    %r15,%rsi
  402c97:	48 89 ef             	mov    %rbp,%rdi
  402c9a:	48 8b 40 e8          	mov    -0x18(%rax),%rax
  402c9e:	48 c7 44 05 10 04 00 	movq   $0x4,0x10(%rbp,%rax,1)
  402ca5:	00 00 
  402ca7:	e8 94 e2 ff ff       	callq  400f40 <_ZNSo9_M_insertImEERSoT_@plt>
  402cac:	ba 04 00 00 00       	mov    $0x4,%edx
  402cb1:	be 94 55 40 00       	mov    $0x405594,%esi
  402cb6:	48 89 c7             	mov    %rax,%rdi
  402cb9:	e8 42 e2 ff ff       	callq  400f00 <_ZSt16__ostream_insertIcSt11char_traitsIcEERSt13basic_ostreamIT_T0_ES6_PKS3_l@plt>
  402cbe:	b8 67 66 66 66       	mov    $0x66666667,%eax
  402cc3:	89 d9                	mov    %ebx,%ecx
  402cc5:	f7 eb                	imul   %ebx
  402cc7:	89 d8                	mov    %ebx,%eax
  402cc9:	c1 f8 1f             	sar    $0x1f,%eax
  402ccc:	c1 fa 02             	sar    $0x2,%edx
  402ccf:	29 c2                	sub    %eax,%edx
  402cd1:	8d 04 92             	lea    (%rdx,%rdx,4),%eax
  402cd4:	01 c0                	add    %eax,%eax
  402cd6:	29 c1                	sub    %eax,%ecx
  402cd8:	83 f9 09             	cmp    $0x9,%ecx
  402cdb:	0f 85 4f ff ff ff    	jne    402c30 <_ZN11Performance4ShowERKSt6vectorImSaImEE+0xb0>
  402ce1:	48 8b 05 58 36 20 00 	mov    0x203658(%rip),%rax        # 606340 <__TMC_END__>
  402ce8:	48 8b 40 e8          	mov    -0x18(%rax),%rax
  402cec:	48 8b a8 30 64 60 00 	mov    0x606430(%rax),%rbp
  402cf3:	48 85 ed             	test   %rbp,%rbp
  402cf6:	0f 84 df 00 00 00    	je     402ddb <_ZN11Performance4ShowERKSt6vectorImSaImEE+0x25b>
  402cfc:	80 7d 38 00          	cmpb   $0x0,0x38(%rbp)
  402d00:	74 7e                	je     402d80 <_ZN11Performance4ShowERKSt6vectorImSaImEE+0x200>
  402d02:	0f b6 45 43          	movzbl 0x43(%rbp),%eax
  402d06:	0f be f0             	movsbl %al,%esi
  402d09:	bf 40 63 60 00       	mov    $0x606340,%edi
  402d0e:	48 83 c3 01          	add    $0x1,%rbx
  402d12:	e8 89 e2 ff ff       	callq  400fa0 <_ZNSo3putEc@plt>
  402d17:	48 89 c7             	mov    %rax,%rdi
  402d1a:	e8 01 e2 ff ff       	callq  400f20 <_ZNSo5flushEv@plt>
  402d1f:	41 39 dd             	cmp    %ebx,%r13d
  402d22:	0f 8f 15 ff ff ff    	jg     402c3d <_ZN11Performance4ShowERKSt6vectorImSaImEE+0xbd>
  402d28:	0f 1f 84 00 00 00 00 	nopl   0x0(%rax,%rax,1)
  402d2f:	00 
  402d30:	48 8b 05 09 36 20 00 	mov    0x203609(%rip),%rax        # 606340 <__TMC_END__>
  402d37:	48 8b 40 e8          	mov    -0x18(%rax),%rax
  402d3b:	48 8b 98 30 64 60 00 	mov    0x606430(%rax),%rbx
  402d42:	48 85 db             	test   %rbx,%rbx
  402d45:	0f 84 90 00 00 00    	je     402ddb <_ZN11Performance4ShowERKSt6vectorImSaImEE+0x25b>
  402d4b:	80 7b 38 00          	cmpb   $0x0,0x38(%rbx)
  402d4f:	74 6f                	je     402dc0 <_ZN11Performance4ShowERKSt6vectorImSaImEE+0x240>
  402d51:	0f b6 43 43          	movzbl 0x43(%rbx),%eax
  402d55:	bf 40 63 60 00       	mov    $0x606340,%edi
  402d5a:	0f be f0             	movsbl %al,%esi
  402d5d:	e8 3e e2 ff ff       	callq  400fa0 <_ZNSo3putEc@plt>
  402d62:	48 83 c4 08          	add    $0x8,%rsp
  402d66:	48 89 c7             	mov    %rax,%rdi
  402d69:	5b                   	pop    %rbx
  402d6a:	5d                   	pop    %rbp
  402d6b:	41 5c                	pop    %r12
  402d6d:	41 5d                	pop    %r13
  402d6f:	41 5e                	pop    %r14
  402d71:	41 5f                	pop    %r15
  402d73:	e9 a8 e1 ff ff       	jmpq   400f20 <_ZNSo5flushEv@plt>
  402d78:	0f 1f 84 00 00 00 00 	nopl   0x0(%rax,%rax,1)
  402d7f:	00 
  402d80:	48 89 ef             	mov    %rbp,%rdi
  402d83:	e8 98 e0 ff ff       	callq  400e20 <_ZNKSt5ctypeIcE13_M_widen_initEv@plt>
  402d88:	48 8b 45 00          	mov    0x0(%rbp),%rax
  402d8c:	be 0a 00 00 00       	mov    $0xa,%esi
  402d91:	48 89 ef             	mov    %rbp,%rdi
  402d94:	ff 50 30             	callq  *0x30(%rax)
  402d97:	e9 6a ff ff ff       	jmpq   402d06 <_ZN11Performance4ShowERKSt6vectorImSaImEE+0x186>
  402d9c:	0f 1f 40 00          	nopl   0x0(%rax)
  402da0:	48 89 df             	mov    %rbx,%rdi
  402da3:	e8 78 e0 ff ff       	callq  400e20 <_ZNKSt5ctypeIcE13_M_widen_initEv@plt>
  402da8:	48 8b 03             	mov    (%rbx),%rax
  402dab:	be 0a 00 00 00       	mov    $0xa,%esi
  402db0:	48 89 df             	mov    %rbx,%rdi
  402db3:	ff 50 30             	callq  *0x30(%rax)
  402db6:	e9 3c fe ff ff       	jmpq   402bf7 <_ZN11Performance4ShowERKSt6vectorImSaImEE+0x77>
  402dbb:	0f 1f 44 00 00       	nopl   0x0(%rax,%rax,1)
  402dc0:	48 89 df             	mov    %rbx,%rdi
  402dc3:	e8 58 e0 ff ff       	callq  400e20 <_ZNKSt5ctypeIcE13_M_widen_initEv@plt>
  402dc8:	48 8b 03             	mov    (%rbx),%rax
  402dcb:	be 0a 00 00 00       	mov    $0xa,%esi
  402dd0:	48 89 df             	mov    %rbx,%rdi
  402dd3:	ff 50 30             	callq  *0x30(%rax)
  402dd6:	e9 7a ff ff ff       	jmpq   402d55 <_ZN11Performance4ShowERKSt6vectorImSaImEE+0x1d5>
  402ddb:	e8 20 e0 ff ff       	callq  400e00 <_ZSt16__throw_bad_castv@plt>

0000000000402de0 <_Z19GenerateRandomOrderm>:
  402de0:	41 55                	push   %r13
  402de2:	41 54                	push   %r12
  402de4:	49 89 fc             	mov    %rdi,%r12
  402de7:	55                   	push   %rbp
  402de8:	53                   	push   %rbx
  402de9:	48 89 f3             	mov    %rsi,%rbx
  402dec:	48 83 ec 48          	sub    $0x48,%rsp
  402df0:	48 85 f6             	test   %rsi,%rsi
  402df3:	48 c7 07 00 00 00 00 	movq   $0x0,(%rdi)
  402dfa:	48 c7 47 08 00 00 00 	movq   $0x0,0x8(%rdi)
  402e01:	00 
  402e02:	48 c7 47 10 00 00 00 	movq   $0x0,0x10(%rdi)
  402e09:	00 
  402e0a:	0f 84 38 03 00 00    	je     403148 <_Z19GenerateRandomOrderm+0x368>
  402e10:	48 b8 ff ff ff ff ff 	mov    $0x3fffffffffffffff,%rax
  402e17:	ff ff 3f 
  402e1a:	48 39 c6             	cmp    %rax,%rsi
  402e1d:	0f 87 3a 03 00 00    	ja     40315d <_Z19GenerateRandomOrderm+0x37d>
  402e23:	48 8d 2c b5 00 00 00 	lea    0x0(,%rsi,4),%rbp
  402e2a:	00 
  402e2b:	48 89 ef             	mov    %rbp,%rdi
  402e2e:	e8 4d e1 ff ff       	callq  400f80 <_Znwm@plt>
  402e33:	48 89 c6             	mov    %rax,%rsi
  402e36:	4c 8d 0c 28          	lea    (%rax,%rbp,1),%r9
  402e3a:	49 89 d8             	mov    %rbx,%r8
  402e3d:	83 e6 0f             	and    $0xf,%esi
  402e40:	49 89 04 24          	mov    %rax,(%r12)
  402e44:	49 89 44 24 08       	mov    %rax,0x8(%r12)
  402e49:	48 c1 ee 02          	shr    $0x2,%rsi
  402e4d:	4d 89 4c 24 10       	mov    %r9,0x10(%r12)
  402e52:	48 f7 de             	neg    %rsi
  402e55:	83 e6 03             	and    $0x3,%esi
  402e58:	48 39 de             	cmp    %rbx,%rsi
  402e5b:	4c 0f 46 c6          	cmovbe %rsi,%r8
  402e5f:	48 83 fb 06          	cmp    $0x6,%rbx
  402e63:	0f 87 18 03 00 00    	ja     403181 <_Z19GenerateRandomOrderm+0x3a1>
  402e69:	49 89 d8             	mov    %rbx,%r8
  402e6c:	48 89 df             	mov    %rbx,%rdi
  402e6f:	48 89 c2             	mov    %rax,%rdx
  402e72:	31 c9                	xor    %ecx,%ecx
  402e74:	0f 1f 40 00          	nopl   0x0(%rax)
  402e78:	48 83 c1 01          	add    $0x1,%rcx
  402e7c:	c7 02 00 00 00 00    	movl   $0x0,(%rdx)
  402e82:	48 83 ef 01          	sub    $0x1,%rdi
  402e86:	48 83 c2 04          	add    $0x4,%rdx
  402e8a:	49 39 c8             	cmp    %rcx,%r8
  402e8d:	77 e9                	ja     402e78 <_Z19GenerateRandomOrderm+0x98>
  402e8f:	4c 39 c3             	cmp    %r8,%rbx
  402e92:	74 5c                	je     402ef0 <_Z19GenerateRandomOrderm+0x110>
  402e94:	4c 29 c3             	sub    %r8,%rbx
  402e97:	49 89 da             	mov    %rbx,%r10
  402e9a:	49 c1 ea 02          	shr    $0x2,%r10
  402e9e:	4e 8d 1c 95 00 00 00 	lea    0x0(,%r10,4),%r11
  402ea5:	00 
  402ea6:	4d 85 db             	test   %r11,%r11
  402ea9:	74 2b                	je     402ed6 <_Z19GenerateRandomOrderm+0xf6>
  402eab:	66 0f ef c0          	pxor   %xmm0,%xmm0
  402eaf:	4e 8d 04 80          	lea    (%rax,%r8,4),%r8
  402eb3:	31 c9                	xor    %ecx,%ecx
  402eb5:	0f 1f 00             	nopl   (%rax)
  402eb8:	48 83 c1 01          	add    $0x1,%rcx
  402ebc:	66 41 0f 7f 00       	movdqa %xmm0,(%r8)
  402ec1:	49 83 c0 10          	add    $0x10,%r8
  402ec5:	4c 39 d1             	cmp    %r10,%rcx
  402ec8:	72 ee                	jb     402eb8 <_Z19GenerateRandomOrderm+0xd8>
  402eca:	4c 29 df             	sub    %r11,%rdi
  402ecd:	4c 39 db             	cmp    %r11,%rbx
  402ed0:	4a 8d 14 9a          	lea    (%rdx,%r11,4),%rdx
  402ed4:	74 1a                	je     402ef0 <_Z19GenerateRandomOrderm+0x110>
  402ed6:	31 c9                	xor    %ecx,%ecx
  402ed8:	0f 1f 84 00 00 00 00 	nopl   0x0(%rax,%rax,1)
  402edf:	00 
  402ee0:	c7 04 8a 00 00 00 00 	movl   $0x0,(%rdx,%rcx,4)
  402ee7:	48 83 c1 01          	add    $0x1,%rcx
  402eeb:	48 39 f9             	cmp    %rdi,%rcx
  402eee:	75 f0                	jne    402ee0 <_Z19GenerateRandomOrderm+0x100>
  402ef0:	4c 39 c8             	cmp    %r9,%rax
  402ef3:	4d 89 4c 24 08       	mov    %r9,0x8(%r12)
  402ef8:	0f 84 e8 00 00 00    	je     402fe6 <_Z19GenerateRandomOrderm+0x206>
  402efe:	48 8d 50 04          	lea    0x4(%rax),%rdx
  402f02:	4d 89 c8             	mov    %r9,%r8
  402f05:	48 89 f7             	mov    %rsi,%rdi
  402f08:	49 29 d0             	sub    %rdx,%r8
  402f0b:	49 c1 e8 02          	shr    $0x2,%r8
  402f0f:	49 83 c0 01          	add    $0x1,%r8
  402f13:	49 39 f0             	cmp    %rsi,%r8
  402f16:	48 89 c6             	mov    %rax,%rsi
  402f19:	49 0f 46 f8          	cmovbe %r8,%rdi
  402f1d:	49 83 f8 05          	cmp    $0x5,%r8
  402f21:	49 0f 46 f8          	cmovbe %r8,%rdi
  402f25:	48 85 ff             	test   %rdi,%rdi
  402f28:	0f 84 4c 02 00 00    	je     40317a <_Z19GenerateRandomOrderm+0x39a>
  402f2e:	31 d2                	xor    %edx,%edx
  402f30:	89 16                	mov    %edx,(%rsi)
  402f32:	8d 4a 01             	lea    0x1(%rdx),%ecx
  402f35:	48 83 c2 01          	add    $0x1,%rdx
  402f39:	48 83 c6 04          	add    $0x4,%rsi
  402f3d:	48 39 d7             	cmp    %rdx,%rdi
  402f40:	77 ee                	ja     402f30 <_Z19GenerateRandomOrderm+0x150>
  402f42:	49 39 f8             	cmp    %rdi,%r8
  402f45:	0f 84 9b 00 00 00    	je     402fe6 <_Z19GenerateRandomOrderm+0x206>
  402f4b:	4d 89 c3             	mov    %r8,%r11
  402f4e:	49 29 fb             	sub    %rdi,%r11
  402f51:	4d 89 d8             	mov    %r11,%r8
  402f54:	49 c1 e8 02          	shr    $0x2,%r8
  402f58:	4e 8d 14 85 00 00 00 	lea    0x0(,%r8,4),%r10
  402f5f:	00 
  402f60:	4d 85 d2             	test   %r10,%r10
  402f63:	74 6c                	je     402fd1 <_Z19GenerateRandomOrderm+0x1f1>
  402f65:	8d 51 01             	lea    0x1(%rcx),%edx
  402f68:	89 0c 24             	mov    %ecx,(%rsp)
  402f6b:	89 54 24 04          	mov    %edx,0x4(%rsp)
  402f6f:	8d 51 02             	lea    0x2(%rcx),%edx
  402f72:	66 0f 6e 54 24 04    	movd   0x4(%rsp),%xmm2
  402f78:	89 54 24 08          	mov    %edx,0x8(%rsp)
  402f7c:	8d 51 03             	lea    0x3(%rcx),%edx
  402f7f:	66 0f 6e 4c 24 08    	movd   0x8(%rsp),%xmm1
  402f85:	89 54 24 0c          	mov    %edx,0xc(%rsp)
  402f89:	48 8d 14 b8          	lea    (%rax,%rdi,4),%rdx
  402f8d:	31 c0                	xor    %eax,%eax
  402f8f:	66 0f 6e 44 24 0c    	movd   0xc(%rsp),%xmm0
  402f95:	66 0f 62 c8          	punpckldq %xmm0,%xmm1
  402f99:	66 0f 6e 04 24       	movd   (%rsp),%xmm0
  402f9e:	66 0f 62 c2          	punpckldq %xmm2,%xmm0
  402fa2:	66 0f 6c c1          	punpcklqdq %xmm1,%xmm0
  402fa6:	66 0f 6f 0d 42 26 00 	movdqa 0x2642(%rip),%xmm1        # 4055f0 <_ZN14metaprogrammed6ValuesE+0x690>
  402fad:	00 
  402fae:	66 90                	xchg   %ax,%ax
  402fb0:	48 83 c0 01          	add    $0x1,%rax
  402fb4:	66 0f 7f 02          	movdqa %xmm0,(%rdx)
  402fb8:	66 0f fe c1          	paddd  %xmm1,%xmm0
  402fbc:	48 83 c2 10          	add    $0x10,%rdx
  402fc0:	4c 39 c0             	cmp    %r8,%rax
  402fc3:	72 eb                	jb     402fb0 <_Z19GenerateRandomOrderm+0x1d0>
  402fc5:	44 01 d1             	add    %r10d,%ecx
  402fc8:	4d 39 d3             	cmp    %r10,%r11
  402fcb:	4a 8d 34 96          	lea    (%rsi,%r10,4),%rsi
  402fcf:	74 15                	je     402fe6 <_Z19GenerateRandomOrderm+0x206>
  402fd1:	48 89 f0             	mov    %rsi,%rax
  402fd4:	0f 1f 40 00          	nopl   0x0(%rax)
  402fd8:	89 08                	mov    %ecx,(%rax)
  402fda:	48 83 c0 04          	add    $0x4,%rax
  402fde:	83 c1 01             	add    $0x1,%ecx
  402fe1:	49 39 c1             	cmp    %rax,%r9
  402fe4:	75 f2                	jne    402fd8 <_Z19GenerateRandomOrderm+0x1f8>
  402fe6:	e8 f5 de ff ff       	callq  400ee0 <_ZNSt6chrono12system_clock3nowEv@plt>
  402feb:	89 c1                	mov    %eax,%ecx
  402fed:	48 ba 05 00 00 00 02 	mov    $0x200000005,%rdx
  402ff4:	00 00 00 
  402ff7:	4d 8b 6c 24 08       	mov    0x8(%r12),%r13
  402ffc:	48 89 c8             	mov    %rcx,%rax
  402fff:	49 8b 2c 24          	mov    (%r12),%rbp
  403003:	48 f7 e2             	mul    %rdx
  403006:	48 89 c8             	mov    %rcx,%rax
  403009:	48 29 d0             	sub    %rdx,%rax
  40300c:	48 d1 e8             	shr    %rax
  40300f:	48 01 c2             	add    %rax,%rdx
  403012:	48 c1 ea 1e          	shr    $0x1e,%rdx
  403016:	48 89 d0             	mov    %rdx,%rax
  403019:	48 c1 e0 1f          	shl    $0x1f,%rax
  40301d:	48 29 d0             	sub    %rdx,%rax
  403020:	48 89 ca             	mov    %rcx,%rdx
  403023:	48 29 c2             	sub    %rax,%rdx
  403026:	b8 01 00 00 00       	mov    $0x1,%eax
  40302b:	48 0f 44 d0          	cmove  %rax,%rdx
  40302f:	49 39 ed             	cmp    %rbp,%r13
  403032:	48 89 54 24 10       	mov    %rdx,0x10(%rsp)
  403037:	74 61                	je     40309a <_Z19GenerateRandomOrderm+0x2ba>
  403039:	48 8d 5d 04          	lea    0x4(%rbp),%rbx
  40303d:	48 c7 44 24 20 00 00 	movq   $0x0,0x20(%rsp)
  403044:	00 00 
  403046:	48 c7 44 24 28 ff ff 	movq   $0xffffffffffffffff,0x28(%rsp)
  40304d:	ff ff 
  40304f:	49 39 dd             	cmp    %rbx,%r13
  403052:	74 46                	je     40309a <_Z19GenerateRandomOrderm+0x2ba>
  403054:	0f 1f 40 00          	nopl   0x0(%rax)
  403058:	48 89 d8             	mov    %rbx,%rax
  40305b:	48 8d 54 24 30       	lea    0x30(%rsp),%rdx
  403060:	48 8d 74 24 10       	lea    0x10(%rsp),%rsi
  403065:	48 29 e8             	sub    %rbp,%rax
  403068:	48 8d 7c 24 20       	lea    0x20(%rsp),%rdi
  40306d:	48 c7 44 24 30 00 00 	movq   $0x0,0x30(%rsp)
  403074:	00 00 
  403076:	48 c1 f8 02          	sar    $0x2,%rax
  40307a:	48 89 44 24 38       	mov    %rax,0x38(%rsp)
  40307f:	e8 1c 15 00 00       	callq  4045a0 <_ZNSt24uniform_int_distributionImEclISt26linear_congruential_engineImLm16807ELm0ELm2147483647EEEEmRT_RKNS0_10param_typeE>
  403084:	48 8d 44 85 00       	lea    0x0(%rbp,%rax,4),%rax
  403089:	8b 13                	mov    (%rbx),%edx
  40308b:	8b 08                	mov    (%rax),%ecx
  40308d:	89 0b                	mov    %ecx,(%rbx)
  40308f:	48 83 c3 04          	add    $0x4,%rbx
  403093:	89 10                	mov    %edx,(%rax)
  403095:	49 39 dd             	cmp    %rbx,%r13
  403098:	75 be                	jne    403058 <_Z19GenerateRandomOrderm+0x278>
  40309a:	ba 0d 00 00 00       	mov    $0xd,%edx
  40309f:	be 99 55 40 00       	mov    $0x405599,%esi
  4030a4:	bf 40 63 60 00       	mov    $0x606340,%edi
  4030a9:	e8 52 de ff ff       	callq  400f00 <_ZSt16__ostream_insertIcSt11char_traitsIcEERSt13basic_ostreamIT_T0_ES6_PKS3_l@plt>
  4030ae:	49 8b 1c 24          	mov    (%r12),%rbx
  4030b2:	4d 8b 6c 24 08       	mov    0x8(%r12),%r13
  4030b7:	4c 39 eb             	cmp    %r13,%rbx
  4030ba:	74 2f                	je     4030eb <_Z19GenerateRandomOrderm+0x30b>
  4030bc:	0f 1f 40 00          	nopl   0x0(%rax)
  4030c0:	ba 01 00 00 00       	mov    $0x1,%edx
  4030c5:	be 97 55 40 00       	mov    $0x405597,%esi
  4030ca:	bf 40 63 60 00       	mov    $0x606340,%edi
  4030cf:	8b 2b                	mov    (%rbx),%ebp
  4030d1:	e8 2a de ff ff       	callq  400f00 <_ZSt16__ostream_insertIcSt11char_traitsIcEERSt13basic_ostreamIT_T0_ES6_PKS3_l@plt>
  4030d6:	89 ee                	mov    %ebp,%esi
  4030d8:	bf 40 63 60 00       	mov    $0x606340,%edi
  4030dd:	e8 0e dd ff ff       	callq  400df0 <_ZNSolsEi@plt>
  4030e2:	48 83 c3 04          	add    $0x4,%rbx
  4030e6:	49 39 dd             	cmp    %rbx,%r13
  4030e9:	75 d5                	jne    4030c0 <_Z19GenerateRandomOrderm+0x2e0>
  4030eb:	48 8b 05 4e 32 20 00 	mov    0x20324e(%rip),%rax        # 606340 <__TMC_END__>
  4030f2:	48 8b 40 e8          	mov    -0x18(%rax),%rax
  4030f6:	48 8b 98 30 64 60 00 	mov    0x606430(%rax),%rbx
  4030fd:	48 85 db             	test   %rbx,%rbx
  403100:	74 60                	je     403162 <_Z19GenerateRandomOrderm+0x382>
  403102:	80 7b 38 00          	cmpb   $0x0,0x38(%rbx)
  403106:	74 28                	je     403130 <_Z19GenerateRandomOrderm+0x350>
  403108:	0f b6 43 43          	movzbl 0x43(%rbx),%eax
  40310c:	0f be f0             	movsbl %al,%esi
  40310f:	bf 40 63 60 00       	mov    $0x606340,%edi
  403114:	e8 87 de ff ff       	callq  400fa0 <_ZNSo3putEc@plt>
  403119:	48 89 c7             	mov    %rax,%rdi
  40311c:	e8 ff dd ff ff       	callq  400f20 <_ZNSo5flushEv@plt>
  403121:	48 83 c4 48          	add    $0x48,%rsp
  403125:	4c 89 e0             	mov    %r12,%rax
  403128:	5b                   	pop    %rbx
  403129:	5d                   	pop    %rbp
  40312a:	41 5c                	pop    %r12
  40312c:	41 5d                	pop    %r13
  40312e:	c3                   	retq   
  40312f:	90                   	nop
  403130:	48 89 df             	mov    %rbx,%rdi
  403133:	e8 e8 dc ff ff       	callq  400e20 <_ZNKSt5ctypeIcE13_M_widen_initEv@plt>
  403138:	48 8b 03             	mov    (%rbx),%rax
  40313b:	be 0a 00 00 00       	mov    $0xa,%esi
  403140:	48 89 df             	mov    %rbx,%rdi
  403143:	ff 50 30             	callq  *0x30(%rax)
  403146:	eb c4                	jmp    40310c <_Z19GenerateRandomOrderm+0x32c>
  403148:	48 c7 47 10 00 00 00 	movq   $0x0,0x10(%rdi)
  40314f:	00 
  403150:	48 c7 47 08 00 00 00 	movq   $0x0,0x8(%rdi)
  403157:	00 
  403158:	e9 89 fe ff ff       	jmpq   402fe6 <_Z19GenerateRandomOrderm+0x206>
  40315d:	e8 fe dd ff ff       	callq  400f60 <_ZSt17__throw_bad_allocv@plt>
  403162:	e8 99 dc ff ff       	callq  400e00 <_ZSt16__throw_bad_castv@plt>
  403167:	48 89 c3             	mov    %rax,%rbx
  40316a:	4c 89 e7             	mov    %r12,%rdi
  40316d:	e8 0e 14 00 00       	callq  404580 <_ZNSt6vectorIiSaIiEED1Ev>
  403172:	48 89 df             	mov    %rbx,%rdi
  403175:	e8 16 de ff ff       	callq  400f90 <_Unwind_Resume@plt>
  40317a:	31 c9                	xor    %ecx,%ecx
  40317c:	e9 ca fd ff ff       	jmpq   402f4b <_Z19GenerateRandomOrderm+0x16b>
  403181:	4d 85 c0             	test   %r8,%r8
  403184:	0f 85 e2 fc ff ff    	jne    402e6c <_Z19GenerateRandomOrderm+0x8c>
  40318a:	48 89 df             	mov    %rbx,%rdi
  40318d:	48 89 c2             	mov    %rax,%rdx
  403190:	e9 ff fc ff ff       	jmpq   402e94 <_Z19GenerateRandomOrderm+0xb4>
  403195:	90                   	nop
  403196:	66 2e 0f 1f 84 00 00 	nopw   %cs:0x0(%rax,%rax,1)
  40319d:	00 00 00 

00000000004031a0 <_ZN11Performance10SetupTestsERSt6vectorINS_4testESaIS1_EERS0_ImSaImEE>:
  4031a0:	41 57                	push   %r15
  4031a2:	b8 71 15 00 00       	mov    $0x1571,%eax
  4031a7:	b9 01 00 00 00       	mov    $0x1,%ecx
  4031ac:	41 56                	push   %r14
  4031ae:	49 89 f6             	mov    %rsi,%r14
  4031b1:	41 55                	push   %r13
  4031b3:	41 54                	push   %r12
  4031b5:	55                   	push   %rbp
  4031b6:	53                   	push   %rbx
  4031b7:	48 81 ec c8 13 00 00 	sub    $0x13c8,%rsp
  4031be:	48 89 7c 24 08       	mov    %rdi,0x8(%rsp)
  4031c3:	48 c7 44 24 10 00 00 	movq   $0x0,0x10(%rsp)
  4031ca:	00 00 
  4031cc:	48 bf 21 0d d2 20 0d 	mov    $0xd20d20d20d20d21,%rdi
  4031d3:	d2 20 0d 
  4031d6:	48 c7 44 24 18 5d 00 	movq   $0x5d,0x18(%rsp)
  4031dd:	00 00 
  4031df:	48 c7 44 24 30 71 15 	movq   $0x1571,0x30(%rsp)
  4031e6:	00 00 
  4031e8:	0f 1f 84 00 00 00 00 	nopl   0x0(%rax,%rax,1)
  4031ef:	00 
  4031f0:	48 89 c2             	mov    %rax,%rdx
  4031f3:	48 c1 ea 1e          	shr    $0x1e,%rdx
  4031f7:	48 31 c2             	xor    %rax,%rdx
  4031fa:	48 69 f2 65 89 07 6c 	imul   $0x6c078965,%rdx,%rsi
  403201:	48 89 ca             	mov    %rcx,%rdx
  403204:	48 c1 ea 04          	shr    $0x4,%rdx
  403208:	48 89 d0             	mov    %rdx,%rax
  40320b:	48 f7 e7             	mul    %rdi
  40320e:	48 89 c8             	mov    %rcx,%rax
  403211:	48 d1 ea             	shr    %rdx
  403214:	48 69 d2 70 02 00 00 	imul   $0x270,%rdx,%rdx
  40321b:	48 29 d0             	sub    %rdx,%rax
  40321e:	01 f0                	add    %esi,%eax
  403220:	48 89 44 cc 30       	mov    %rax,0x30(%rsp,%rcx,8)
  403225:	48 83 c1 01          	add    $0x1,%rcx
  403229:	48 81 f9 70 02 00 00 	cmp    $0x270,%rcx
  403230:	75 be                	jne    4031f0 <_ZN11Performance10SetupTestsERSt6vectorINS_4testESaIS1_EERS0_ImSaImEE+0x50>
  403232:	45 31 e4             	xor    %r12d,%r12d
  403235:	bb 5d 00 00 00       	mov    $0x5d,%ebx
  40323a:	b9 fe ff ff ff       	mov    $0xfffffffe,%ecx
  40323f:	4c 29 e3             	sub    %r12,%rbx
  403242:	31 ed                	xor    %ebp,%ebp
  403244:	48 c7 84 24 b0 13 00 	movq   $0x270,0x13b0(%rsp)
  40324b:	00 70 02 00 00 
  403250:	48 39 cb             	cmp    %rcx,%rbx
  403253:	77 6a                	ja     4032bf <_ZN11Performance10SetupTestsERSt6vectorINS_4testESaIS1_EERS0_ImSaImEE+0x11f>
  403255:	0f 1f 00             	nopl   (%rax)
  403258:	48 83 c3 01          	add    $0x1,%rbx
  40325c:	b8 ff ff ff ff       	mov    $0xffffffff,%eax
  403261:	31 d2                	xor    %edx,%edx
  403263:	48 f7 f3             	div    %rbx
  403266:	48 0f af d8          	imul   %rax,%rbx
  40326a:	49 89 c7             	mov    %rax,%r15
  40326d:	0f 1f 00             	nopl   (%rax)
  403270:	48 8d 7c 24 30       	lea    0x30(%rsp),%rdi
  403275:	e8 e6 14 00 00       	callq  404760 <_ZNSt23mersenne_twister_engineImLm32ELm624ELm397ELm31ELm2567483615ELm11ELm4294967295ELm7ELm2636928640ELm15ELm4022730752ELm18ELm1812433253EEclEv>
  40327a:	48 39 c3             	cmp    %rax,%rbx
  40327d:	76 f1                	jbe    403270 <_ZN11Performance10SetupTestsERSt6vectorINS_4testESaIS1_EERS0_ImSaImEE+0xd0>
  40327f:	31 d2                	xor    %edx,%edx
  403281:	49 f7 f7             	div    %r15
  403284:	48 8b 4c 24 08       	mov    0x8(%rsp),%rcx
  403289:	4c 01 e0             	add    %r12,%rax
  40328c:	48 8b 11             	mov    (%rcx),%rdx
  40328f:	48 89 04 2a          	mov    %rax,(%rdx,%rbp,1)
  403293:	49 8b 16             	mov    (%r14),%rdx
  403296:	48 83 c5 10          	add    $0x10,%rbp
  40329a:	48 83 04 c2 01       	addq   $0x1,(%rdx,%rax,8)
  40329f:	48 81 fd 00 09 3d 00 	cmp    $0x3d0900,%rbp
  4032a6:	74 7f                	je     403327 <_ZN11Performance10SetupTestsERSt6vectorINS_4testESaIS1_EERS0_ImSaImEE+0x187>
  4032a8:	4c 8b 64 24 10       	mov    0x10(%rsp),%r12
  4032ad:	48 8b 5c 24 18       	mov    0x18(%rsp),%rbx
  4032b2:	b9 fe ff ff ff       	mov    $0xfffffffe,%ecx
  4032b7:	4c 29 e3             	sub    %r12,%rbx
  4032ba:	48 39 cb             	cmp    %rcx,%rbx
  4032bd:	76 99                	jbe    403258 <_ZN11Performance10SetupTestsERSt6vectorINS_4testESaIS1_EERS0_ImSaImEE+0xb8>
  4032bf:	b9 ff ff ff ff       	mov    $0xffffffff,%ecx
  4032c4:	48 39 cb             	cmp    %rcx,%rbx
  4032c7:	74 4f                	je     403318 <_ZN11Performance10SetupTestsERSt6vectorINS_4testESaIS1_EERS0_ImSaImEE+0x178>
  4032c9:	49 89 df             	mov    %rbx,%r15
  4032cc:	49 c1 ef 20          	shr    $0x20,%r15
  4032d0:	48 8d 54 24 20       	lea    0x20(%rsp),%rdx
  4032d5:	48 8d 74 24 30       	lea    0x30(%rsp),%rsi
  4032da:	48 8d 7c 24 10       	lea    0x10(%rsp),%rdi
  4032df:	48 c7 44 24 20 00 00 	movq   $0x0,0x20(%rsp)
  4032e6:	00 00 
  4032e8:	4c 89 7c 24 28       	mov    %r15,0x28(%rsp)
  4032ed:	e8 ce 15 00 00       	callq  4048c0 <_ZNSt24uniform_int_distributionImEclISt23mersenne_twister_engineImLm32ELm624ELm397ELm31ELm2567483615ELm11ELm4294967295ELm7ELm2636928640ELm15ELm4022730752ELm18ELm1812433253EEEEmRT_RKNS0_10param_typeE>
  4032f2:	48 8d 7c 24 30       	lea    0x30(%rsp),%rdi
  4032f7:	49 89 c5             	mov    %rax,%r13
  4032fa:	49 c1 e5 20          	shl    $0x20,%r13
  4032fe:	e8 5d 14 00 00       	callq  404760 <_ZNSt23mersenne_twister_engineImLm32ELm624ELm397ELm31ELm2567483615ELm11ELm4294967295ELm7ELm2636928640ELm15ELm4022730752ELm18ELm1812433253EEclEv>
  403303:	4c 01 e8             	add    %r13,%rax
  403306:	72 c8                	jb     4032d0 <_ZN11Performance10SetupTestsERSt6vectorINS_4testESaIS1_EERS0_ImSaImEE+0x130>
  403308:	48 39 c3             	cmp    %rax,%rbx
  40330b:	72 c3                	jb     4032d0 <_ZN11Performance10SetupTestsERSt6vectorINS_4testESaIS1_EERS0_ImSaImEE+0x130>
  40330d:	0f 1f 00             	nopl   (%rax)
  403310:	e9 6f ff ff ff       	jmpq   403284 <_ZN11Performance10SetupTestsERSt6vectorINS_4testESaIS1_EERS0_ImSaImEE+0xe4>
  403315:	0f 1f 00             	nopl   (%rax)
  403318:	48 8d 7c 24 30       	lea    0x30(%rsp),%rdi
  40331d:	e8 3e 14 00 00       	callq  404760 <_ZNSt23mersenne_twister_engineImLm32ELm624ELm397ELm31ELm2567483615ELm11ELm4294967295ELm7ELm2636928640ELm15ELm4022730752ELm18ELm1812433253EEclEv>
  403322:	e9 5d ff ff ff       	jmpq   403284 <_ZN11Performance10SetupTestsERSt6vectorINS_4testESaIS1_EERS0_ImSaImEE+0xe4>
  403327:	48 81 c4 c8 13 00 00 	add    $0x13c8,%rsp
  40332e:	5b                   	pop    %rbx
  40332f:	5d                   	pop    %rbp
  403330:	41 5c                	pop    %r12
  403332:	41 5d                	pop    %r13
  403334:	41 5e                	pop    %r14
  403336:	41 5f                	pop    %r15
  403338:	c3                   	retq   
  403339:	90                   	nop
  40333a:	66 0f 1f 44 00 00    	nopw   0x0(%rax,%rax,1)

0000000000403340 <_ZN11Performance7CompareEv>:
  403340:	41 57                	push   %r15
  403342:	bf 00 09 3d 00       	mov    $0x3d0900,%edi
  403347:	41 56                	push   %r14
  403349:	41 55                	push   %r13
  40334b:	41 54                	push   %r12
  40334d:	55                   	push   %rbp
  40334e:	53                   	push   %rbx
  40334f:	48 81 ec e8 01 00 00 	sub    $0x1e8,%rsp
  403356:	48 c7 84 24 f0 00 00 	movq   $0x0,0xf0(%rsp)
  40335d:	00 00 00 00 00 
  403362:	48 c7 84 24 f8 00 00 	movq   $0x0,0xf8(%rsp)
  403369:	00 00 00 00 00 
  40336e:	48 c7 84 24 00 01 00 	movq   $0x0,0x100(%rsp)
  403375:	00 00 00 00 00 
  40337a:	e8 01 dc ff ff       	callq  400f80 <_Znwm@plt>
  40337f:	48 8d 90 00 09 3d 00 	lea    0x3d0900(%rax),%rdx
  403386:	48 89 84 24 f0 00 00 	mov    %rax,0xf0(%rsp)
  40338d:	00 
  40338e:	48 89 94 24 00 01 00 	mov    %rdx,0x100(%rsp)
  403395:	00 
  403396:	66 2e 0f 1f 84 00 00 	nopw   %cs:0x0(%rax,%rax,1)
  40339d:	00 00 00 
  4033a0:	48 c7 00 00 00 00 00 	movq   $0x0,(%rax)
  4033a7:	48 c7 40 08 00 00 00 	movq   $0x0,0x8(%rax)
  4033ae:	00 
  4033af:	48 83 c0 10          	add    $0x10,%rax
  4033b3:	48 39 d0             	cmp    %rdx,%rax
  4033b6:	75 e8                	jne    4033a0 <_ZN11Performance7CompareEv+0x60>
  4033b8:	bf e8 02 00 00       	mov    $0x2e8,%edi
  4033bd:	48 89 84 24 f8 00 00 	mov    %rax,0xf8(%rsp)
  4033c4:	00 
  4033c5:	48 c7 84 24 10 01 00 	movq   $0x0,0x110(%rsp)
  4033cc:	00 00 00 00 00 
  4033d1:	48 c7 84 24 18 01 00 	movq   $0x0,0x118(%rsp)
  4033d8:	00 00 00 00 00 
  4033dd:	48 c7 84 24 20 01 00 	movq   $0x0,0x120(%rsp)
  4033e4:	00 00 00 00 00 
  4033e9:	e8 92 db ff ff       	callq  400f80 <_Znwm@plt>
  4033ee:	48 89 c6             	mov    %rax,%rsi
  4033f1:	4c 8d 80 e8 02 00 00 	lea    0x2e8(%rax),%r8
  4033f8:	48 89 84 24 10 01 00 	mov    %rax,0x110(%rsp)
  4033ff:	00 
  403400:	48 c1 e6 3c          	shl    $0x3c,%rsi
  403404:	48 c1 ee 3f          	shr    $0x3f,%rsi
  403408:	4c 89 84 24 20 01 00 	mov    %r8,0x120(%rsp)
  40340f:	00 
  403410:	48 85 f6             	test   %rsi,%rsi
  403413:	0f 84 0c 10 00 00    	je     404425 <_ZN11Performance7CompareEv+0x10e5>
  403419:	4c 8d 48 08          	lea    0x8(%rax),%r9
  40341d:	48 c7 00 00 00 00 00 	movq   $0x0,(%rax)
  403424:	b9 5c 00 00 00       	mov    $0x5c,%ecx
  403429:	66 0f ef c0          	pxor   %xmm0,%xmm0
  40342d:	bf 5d 00 00 00       	mov    $0x5d,%edi
  403432:	48 8d 14 f0          	lea    (%rax,%rsi,8),%rdx
  403436:	48 29 f7             	sub    %rsi,%rdi
  403439:	31 c0                	xor    %eax,%eax
  40343b:	0f 1f 44 00 00       	nopl   0x0(%rax,%rax,1)
  403440:	48 83 c0 01          	add    $0x1,%rax
  403444:	66 0f 7f 02          	movdqa %xmm0,(%rdx)
  403448:	48 83 c2 10          	add    $0x10,%rdx
  40344c:	48 83 f8 2d          	cmp    $0x2d,%rax
  403450:	76 ee                	jbe    403440 <_ZN11Performance7CompareEv+0x100>
  403452:	48 83 e9 5c          	sub    $0x5c,%rcx
  403456:	48 83 ff 5c          	cmp    $0x5c,%rdi
  40345a:	49 8d 91 e0 02 00 00 	lea    0x2e0(%r9),%rdx
  403461:	74 16                	je     403479 <_ZN11Performance7CompareEv+0x139>
  403463:	31 c0                	xor    %eax,%eax
  403465:	0f 1f 00             	nopl   (%rax)
  403468:	48 c7 04 c2 00 00 00 	movq   $0x0,(%rdx,%rax,8)
  40346f:	00 
  403470:	48 83 c0 01          	add    $0x1,%rax
  403474:	48 39 c1             	cmp    %rax,%rcx
  403477:	75 ef                	jne    403468 <_ZN11Performance7CompareEv+0x128>
  403479:	48 8d bc 24 f0 00 00 	lea    0xf0(%rsp),%rdi
  403480:	00 
  403481:	48 8d b4 24 10 01 00 	lea    0x110(%rsp),%rsi
  403488:	00 
  403489:	4c 89 84 24 18 01 00 	mov    %r8,0x118(%rsp)
  403490:	00 
  403491:	e8 0a fd ff ff       	callq  4031a0 <_ZN11Performance10SetupTestsERSt6vectorINS_4testESaIS1_EERS0_ImSaImEE>
  403496:	48 8d bc 24 10 01 00 	lea    0x110(%rsp),%rdi
  40349d:	00 
  40349e:	e8 dd f6 ff ff       	callq  402b80 <_ZN11Performance4ShowERKSt6vectorImSaImEE>
  4034a3:	4c 8d ac 24 80 01 00 	lea    0x180(%rsp),%r13
  4034aa:	00 
  4034ab:	48 8d 54 24 1f       	lea    0x1f(%rsp),%rdx
  4034b0:	be 80 53 40 00       	mov    $0x405380,%esi
  4034b5:	48 c7 84 24 50 01 00 	movq   $0x401c40,0x150(%rsp)
  4034bc:	00 40 1c 40 00 
  4034c1:	48 c7 84 24 58 01 00 	movq   $0x401bf0,0x158(%rsp)
  4034c8:	00 f0 1b 40 00 
  4034cd:	4c 89 ef             	mov    %r13,%rdi
  4034d0:	48 c7 84 24 60 01 00 	movq   $0x401b50,0x160(%rsp)
  4034d7:	00 50 1b 40 00 
  4034dc:	48 c7 84 24 68 01 00 	movq   $0x404c00,0x168(%rsp)
  4034e3:	00 00 4c 40 00 
  4034e8:	48 c7 84 24 70 01 00 	movq   $0x401b70,0x170(%rsp)
  4034ef:	00 70 1b 40 00 
  4034f4:	e8 d7 d9 ff ff       	callq  400ed0 <_ZNSsC1EPKcRKSaIcE@plt>
  4034f9:	49 8d 7d 08          	lea    0x8(%r13),%rdi
  4034fd:	48 8d 54 24 1f       	lea    0x1f(%rsp),%rdx
  403502:	be a7 55 40 00       	mov    $0x4055a7,%esi
  403507:	e8 c4 d9 ff ff       	callq  400ed0 <_ZNSsC1EPKcRKSaIcE@plt>
  40350c:	49 8d 7d 10          	lea    0x10(%r13),%rdi
  403510:	48 8d 54 24 1f       	lea    0x1f(%rsp),%rdx
  403515:	be a8 53 40 00       	mov    $0x4053a8,%esi
  40351a:	e8 b1 d9 ff ff       	callq  400ed0 <_ZNSsC1EPKcRKSaIcE@plt>
  40351f:	49 8d 7d 18          	lea    0x18(%r13),%rdi
  403523:	48 8d 54 24 1f       	lea    0x1f(%rsp),%rdx
  403528:	be e0 53 40 00       	mov    $0x4053e0,%esi
  40352d:	e8 9e d9 ff ff       	callq  400ed0 <_ZNSsC1EPKcRKSaIcE@plt>
  403532:	49 8d 7d 20          	lea    0x20(%r13),%rdi
  403536:	48 8d 54 24 1f       	lea    0x1f(%rsp),%rdx
  40353b:	be 18 54 40 00       	mov    $0x405418,%esi
  403540:	e8 8b d9 ff ff       	callq  400ed0 <_ZNSsC1EPKcRKSaIcE@plt>
  403545:	48 8b 35 8c 2f 20 00 	mov    0x202f8c(%rip),%rsi        # 6064d8 <_ZL10BeginTitle>
  40354c:	48 8d 84 24 b8 01 00 	lea    0x1b8(%rsp),%rax
  403553:	00 
  403554:	bf 40 63 60 00       	mov    $0x606340,%edi
  403559:	c7 84 24 b8 01 00 00 	movl   $0x0,0x1b8(%rsp)
  403560:	00 00 00 00 
  403564:	48 c7 84 24 c0 01 00 	movq   $0x0,0x1c0(%rsp)
  40356b:	00 00 00 00 00 
  403570:	48 c7 84 24 d8 01 00 	movq   $0x0,0x1d8(%rsp)
  403577:	00 00 00 00 00 
  40357c:	48 89 84 24 c8 01 00 	mov    %rax,0x1c8(%rsp)
  403583:	00 
  403584:	48 8b 56 e8          	mov    -0x18(%rsi),%rdx
  403588:	48 89 84 24 d0 01 00 	mov    %rax,0x1d0(%rsp)
  40358f:	00 
  403590:	e8 6b d9 ff ff       	callq  400f00 <_ZSt16__ostream_insertIcSt11char_traitsIcEERSt13basic_ostreamIT_T0_ES6_PKS3_l@plt>
  403595:	ba 47 00 00 00       	mov    $0x47,%edx
  40359a:	be 48 54 40 00       	mov    $0x405448,%esi
  40359f:	48 89 c7             	mov    %rax,%rdi
  4035a2:	48 89 c3             	mov    %rax,%rbx
  4035a5:	e8 56 d9 ff ff       	callq  400f00 <_ZSt16__ostream_insertIcSt11char_traitsIcEERSt13basic_ostreamIT_T0_ES6_PKS3_l@plt>
  4035aa:	48 8b 35 2f 2f 20 00 	mov    0x202f2f(%rip),%rsi        # 6064e0 <_ZL8EndTitle>
  4035b1:	48 89 df             	mov    %rbx,%rdi
  4035b4:	48 8b 56 e8          	mov    -0x18(%rsi),%rdx
  4035b8:	e8 43 d9 ff ff       	callq  400f00 <_ZSt16__ostream_insertIcSt11char_traitsIcEERSt13basic_ostreamIT_T0_ES6_PKS3_l@plt>
  4035bd:	48 89 c5             	mov    %rax,%rbp
  4035c0:	48 8b 00             	mov    (%rax),%rax
  4035c3:	48 8b 40 e8          	mov    -0x18(%rax),%rax
  4035c7:	48 8b 9c 05 f0 00 00 	mov    0xf0(%rbp,%rax,1),%rbx
  4035ce:	00 
  4035cf:	48 85 db             	test   %rbx,%rbx
  4035d2:	0f 84 50 0d 00 00    	je     404328 <_ZN11Performance7CompareEv+0xfe8>
  4035d8:	80 7b 38 00          	cmpb   $0x0,0x38(%rbx)
  4035dc:	0f 84 75 0a 00 00    	je     404057 <_ZN11Performance7CompareEv+0xd17>
  4035e2:	0f b6 43 43          	movzbl 0x43(%rbx),%eax
  4035e6:	0f be f0             	movsbl %al,%esi
  4035e9:	48 89 ef             	mov    %rbp,%rdi
  4035ec:	e8 af d9 ff ff       	callq  400fa0 <_ZNSo3putEc@plt>
  4035f1:	48 89 c7             	mov    %rax,%rdi
  4035f4:	e8 27 d9 ff ff       	callq  400f20 <_ZNSo5flushEv@plt>
  4035f9:	48 8d bc 24 30 01 00 	lea    0x130(%rsp),%rdi
  403600:	00 
  403601:	be 05 00 00 00       	mov    $0x5,%esi
  403606:	e8 d5 f7 ff ff       	callq  402de0 <_Z19GenerateRandomOrderm>
  40360b:	4c 8d b4 24 88 00 00 	lea    0x88(%rsp),%r14
  403612:	00 
  403613:	c7 44 24 0c 05 00 00 	movl   $0x5,0xc(%rsp)
  40361a:	00 
  40361b:	45 31 e4             	xor    %r12d,%r12d
  40361e:	66 90                	xchg   %ax,%ax
  403620:	48 8b 84 24 30 01 00 	mov    0x130(%rsp),%rax
  403627:	00 
  403628:	48 8d 7c 24 70       	lea    0x70(%rsp),%rdi
  40362d:	4a 63 04 20          	movslq (%rax,%r12,1),%rax
  403631:	49 8d 74 c5 00       	lea    0x0(%r13,%rax,8),%rsi
  403636:	48 8b ac c4 50 01 00 	mov    0x150(%rsp,%rax,8),%rbp
  40363d:	00 
  40363e:	e8 0d d8 ff ff       	callq  400e50 <_ZNSsC1ERKSs@plt>
  403643:	48 8d 74 24 70       	lea    0x70(%rsp),%rsi
  403648:	48 8d 7c 24 20       	lea    0x20(%rsp),%rdi
  40364d:	e8 fe d7 ff ff       	callq  400e50 <_ZNSsC1ERKSs@plt>
  403652:	e8 89 d8 ff ff       	callq  400ee0 <_ZNSt6chrono12system_clock3nowEv@plt>
  403657:	48 8b 94 24 f0 00 00 	mov    0xf0(%rsp),%rdx
  40365e:	00 
  40365f:	48 8b 9c 24 f8 00 00 	mov    0xf8(%rsp),%rbx
  403666:	00 
  403667:	48 89 84 24 e0 00 00 	mov    %rax,0xe0(%rsp)
  40366e:	00 
  40366f:	48 39 da             	cmp    %rbx,%rdx
  403672:	74 1a                	je     40368e <_ZN11Performance7CompareEv+0x34e>
  403674:	49 89 d7             	mov    %rdx,%r15
  403677:	66 0f 1f 84 00 00 00 	nopw   0x0(%rax,%rax,1)
  40367e:	00 00 
  403680:	49 8b 3f             	mov    (%r15),%rdi
  403683:	49 83 c7 10          	add    $0x10,%r15
  403687:	ff d5                	callq  *%rbp
  403689:	4c 39 fb             	cmp    %r15,%rbx
  40368c:	75 f2                	jne    403680 <_ZN11Performance7CompareEv+0x340>
  40368e:	e8 4d d8 ff ff       	callq  400ee0 <_ZNSt6chrono12system_clock3nowEv@plt>
  403693:	48 89 84 24 e8 00 00 	mov    %rax,0xe8(%rsp)
  40369a:	00 
  40369b:	48 2b 84 24 e0 00 00 	sub    0xe0(%rsp),%rax
  4036a2:	00 
  4036a3:	48 8d 74 24 20       	lea    0x20(%rsp),%rsi
  4036a8:	4c 89 f7             	mov    %r14,%rdi
  4036ab:	48 69 c0 e8 03 00 00 	imul   $0x3e8,%rax,%rax
  4036b2:	48 89 84 24 80 00 00 	mov    %rax,0x80(%rsp)
  4036b9:	00 
  4036ba:	e8 91 d7 ff ff       	callq  400e50 <_ZNSsC1ERKSs@plt>
  4036bf:	48 8b 9c 24 c0 01 00 	mov    0x1c0(%rsp),%rbx
  4036c6:	00 
  4036c7:	48 85 db             	test   %rbx,%rbx
  4036ca:	0f 84 9b 08 00 00    	je     403f6b <_ZN11Performance7CompareEv+0xc2b>
  4036d0:	48 8b 8c 24 80 00 00 	mov    0x80(%rsp),%rcx
  4036d7:	00 
  4036d8:	eb 12                	jmp    4036ec <_ZN11Performance7CompareEv+0x3ac>
  4036da:	66 0f 1f 44 00 00    	nopw   0x0(%rax,%rax,1)
  4036e0:	48 8b 43 10          	mov    0x10(%rbx),%rax
  4036e4:	48 85 c0             	test   %rax,%rax
  4036e7:	74 15                	je     4036fe <_ZN11Performance7CompareEv+0x3be>
  4036e9:	48 89 c3             	mov    %rax,%rbx
  4036ec:	48 8b 53 20          	mov    0x20(%rbx),%rdx
  4036f0:	48 39 ca             	cmp    %rcx,%rdx
  4036f3:	7f eb                	jg     4036e0 <_ZN11Performance7CompareEv+0x3a0>
  4036f5:	48 8b 43 18          	mov    0x18(%rbx),%rax
  4036f9:	48 85 c0             	test   %rax,%rax
  4036fc:	75 eb                	jne    4036e9 <_ZN11Performance7CompareEv+0x3a9>
  4036fe:	48 8d 84 24 b8 01 00 	lea    0x1b8(%rsp),%rax
  403705:	00 
  403706:	48 39 c3             	cmp    %rax,%rbx
  403709:	0f 84 63 09 00 00    	je     404072 <_ZN11Performance7CompareEv+0xd32>
  40370f:	48 39 ca             	cmp    %rcx,%rdx
  403712:	40 0f 9f c5          	setg   %bpl
  403716:	bf 30 00 00 00       	mov    $0x30,%edi
  40371b:	e8 60 d8 ff ff       	callq  400f80 <_Znwm@plt>
  403720:	48 85 c0             	test   %rax,%rax
  403723:	74 42                	je     403767 <_ZN11Performance7CompareEv+0x427>
  403725:	48 8b 94 24 80 00 00 	mov    0x80(%rsp),%rdx
  40372c:	00 
  40372d:	c7 00 00 00 00 00    	movl   $0x0,(%rax)
  403733:	48 c7 40 08 00 00 00 	movq   $0x0,0x8(%rax)
  40373a:	00 
  40373b:	48 c7 40 10 00 00 00 	movq   $0x0,0x10(%rax)
  403742:	00 
  403743:	48 c7 40 18 00 00 00 	movq   $0x0,0x18(%rax)
  40374a:	00 
  40374b:	48 89 50 20          	mov    %rdx,0x20(%rax)
  40374f:	48 8b 94 24 88 00 00 	mov    0x88(%rsp),%rdx
  403756:	00 
  403757:	48 c7 84 24 88 00 00 	movq   $0x606478,0x88(%rsp)
  40375e:	00 78 64 60 00 
  403763:	48 89 50 28          	mov    %rdx,0x28(%rax)
  403767:	48 8d 8c 24 b8 01 00 	lea    0x1b8(%rsp),%rcx
  40376e:	00 
  40376f:	48 89 da             	mov    %rbx,%rdx
  403772:	40 0f b6 fd          	movzbl %bpl,%edi
  403776:	48 89 c6             	mov    %rax,%rsi
  403779:	e8 92 d7 ff ff       	callq  400f10 <_ZSt29_Rb_tree_insert_and_rebalancebPSt18_Rb_tree_node_baseS0_RS_@plt>
  40377e:	48 8b 9c 24 88 00 00 	mov    0x88(%rsp),%rbx
  403785:	00 
  403786:	48 83 84 24 d8 01 00 	addq   $0x1,0x1d8(%rsp)
  40378d:	00 01 
  40378f:	48 83 eb 18          	sub    $0x18,%rbx
  403793:	48 81 fb 60 64 60 00 	cmp    $0x606460,%rbx
  40379a:	0f 85 88 0a 00 00    	jne    404228 <_ZN11Performance7CompareEv+0xee8>
  4037a0:	48 8b 5c 24 20       	mov    0x20(%rsp),%rbx
  4037a5:	48 83 eb 18          	sub    $0x18,%rbx
  4037a9:	48 81 fb 60 64 60 00 	cmp    $0x606460,%rbx
  4037b0:	0f 85 4f 0a 00 00    	jne    404205 <_ZN11Performance7CompareEv+0xec5>
  4037b6:	48 8b 5c 24 70       	mov    0x70(%rsp),%rbx
  4037bb:	48 83 eb 18          	sub    $0x18,%rbx
  4037bf:	48 81 fb 60 64 60 00 	cmp    $0x606460,%rbx
  4037c6:	0f 85 16 0a 00 00    	jne    4041e2 <_ZN11Performance7CompareEv+0xea2>
  4037cc:	49 83 c4 04          	add    $0x4,%r12
  4037d0:	49 83 fc 14          	cmp    $0x14,%r12
  4037d4:	0f 85 46 fe ff ff    	jne    403620 <_ZN11Performance7CompareEv+0x2e0>
  4037da:	83 6c 24 0c 01       	subl   $0x1,0xc(%rsp)
  4037df:	0f 85 36 fe ff ff    	jne    40361b <_ZN11Performance7CompareEv+0x2db>
  4037e5:	ba 0a 00 00 00       	mov    $0xa,%edx
  4037ea:	be c2 55 40 00       	mov    $0x4055c2,%esi
  4037ef:	bf 40 63 60 00       	mov    $0x606340,%edi
  4037f4:	e8 07 d7 ff ff       	callq  400f00 <_ZSt16__ostream_insertIcSt11char_traitsIcEERSt13basic_ostreamIT_T0_ES6_PKS3_l@plt>
  4037f9:	48 8d 54 24 1e       	lea    0x1e(%rsp),%rdx
  4037fe:	48 8d 7c 24 30       	lea    0x30(%rsp),%rdi
  403803:	be 90 54 40 00       	mov    $0x405490,%esi
  403808:	e8 c3 d6 ff ff       	callq  400ed0 <_ZNSsC1EPKcRKSaIcE@plt>
  40380d:	48 8d bc 24 f0 00 00 	lea    0xf0(%rsp),%rdi
  403814:	00 
  403815:	e8 46 ed ff ff       	callq  402560 <_ZN11Performance18InlinedArrayLookupERSt6vectorINS_4testESaIS1_EE>
  40381a:	48 8d bc 24 98 00 00 	lea    0x98(%rsp),%rdi
  403821:	00 
  403822:	48 8d 74 24 30       	lea    0x30(%rsp),%rsi
  403827:	48 89 84 24 90 00 00 	mov    %rax,0x90(%rsp)
  40382e:	00 
  40382f:	e8 1c d6 ff ff       	callq  400e50 <_ZNSsC1ERKSs@plt>
  403834:	48 8b 9c 24 c0 01 00 	mov    0x1c0(%rsp),%rbx
  40383b:	00 
  40383c:	48 85 db             	test   %rbx,%rbx
  40383f:	0f 84 6d 08 00 00    	je     4040b2 <_ZN11Performance7CompareEv+0xd72>
  403845:	48 8b 8c 24 90 00 00 	mov    0x90(%rsp),%rcx
  40384c:	00 
  40384d:	eb 0d                	jmp    40385c <_ZN11Performance7CompareEv+0x51c>
  40384f:	90                   	nop
  403850:	48 8b 43 10          	mov    0x10(%rbx),%rax
  403854:	48 85 c0             	test   %rax,%rax
  403857:	74 15                	je     40386e <_ZN11Performance7CompareEv+0x52e>
  403859:	48 89 c3             	mov    %rax,%rbx
  40385c:	48 8b 53 20          	mov    0x20(%rbx),%rdx
  403860:	48 39 ca             	cmp    %rcx,%rdx
  403863:	7f eb                	jg     403850 <_ZN11Performance7CompareEv+0x510>
  403865:	48 8b 43 18          	mov    0x18(%rbx),%rax
  403869:	48 85 c0             	test   %rax,%rax
  40386c:	75 eb                	jne    403859 <_ZN11Performance7CompareEv+0x519>
  40386e:	48 8d 84 24 b8 01 00 	lea    0x1b8(%rsp),%rax
  403875:	00 
  403876:	48 39 c3             	cmp    %rax,%rbx
  403879:	0f 84 7f 08 00 00    	je     4040fe <_ZN11Performance7CompareEv+0xdbe>
  40387f:	48 39 ca             	cmp    %rcx,%rdx
  403882:	40 0f 9f c5          	setg   %bpl
  403886:	bf 30 00 00 00       	mov    $0x30,%edi
  40388b:	e8 f0 d6 ff ff       	callq  400f80 <_Znwm@plt>
  403890:	48 85 c0             	test   %rax,%rax
  403893:	74 42                	je     4038d7 <_ZN11Performance7CompareEv+0x597>
  403895:	48 8b 94 24 90 00 00 	mov    0x90(%rsp),%rdx
  40389c:	00 
  40389d:	c7 00 00 00 00 00    	movl   $0x0,(%rax)
  4038a3:	48 c7 40 08 00 00 00 	movq   $0x0,0x8(%rax)
  4038aa:	00 
  4038ab:	48 c7 40 10 00 00 00 	movq   $0x0,0x10(%rax)
  4038b2:	00 
  4038b3:	48 c7 40 18 00 00 00 	movq   $0x0,0x18(%rax)
  4038ba:	00 
  4038bb:	48 89 50 20          	mov    %rdx,0x20(%rax)
  4038bf:	48 8b 94 24 98 00 00 	mov    0x98(%rsp),%rdx
  4038c6:	00 
  4038c7:	48 c7 84 24 98 00 00 	movq   $0x606478,0x98(%rsp)
  4038ce:	00 78 64 60 00 
  4038d3:	48 89 50 28          	mov    %rdx,0x28(%rax)
  4038d7:	48 8d 8c 24 b8 01 00 	lea    0x1b8(%rsp),%rcx
  4038de:	00 
  4038df:	48 89 da             	mov    %rbx,%rdx
  4038e2:	40 0f b6 fd          	movzbl %bpl,%edi
  4038e6:	48 89 c6             	mov    %rax,%rsi
  4038e9:	e8 22 d6 ff ff       	callq  400f10 <_ZSt29_Rb_tree_insert_and_rebalancebPSt18_Rb_tree_node_baseS0_RS_@plt>
  4038ee:	48 8b 9c 24 98 00 00 	mov    0x98(%rsp),%rbx
  4038f5:	00 
  4038f6:	48 83 84 24 d8 01 00 	addq   $0x1,0x1d8(%rsp)
  4038fd:	00 01 
  4038ff:	48 83 eb 18          	sub    $0x18,%rbx
  403903:	48 81 fb 60 64 60 00 	cmp    $0x606460,%rbx
  40390a:	0f 85 f5 09 00 00    	jne    404305 <_ZN11Performance7CompareEv+0xfc5>
  403910:	48 8b 5c 24 30       	mov    0x30(%rsp),%rbx
  403915:	48 83 eb 18          	sub    $0x18,%rbx
  403919:	48 81 fb 60 64 60 00 	cmp    $0x606460,%rbx
  403920:	0f 85 bc 09 00 00    	jne    4042e2 <_ZN11Performance7CompareEv+0xfa2>
  403926:	48 8d 54 24 1e       	lea    0x1e(%rsp),%rdx
  40392b:	48 8d 7c 24 40       	lea    0x40(%rsp),%rdi
  403930:	be c0 54 40 00       	mov    $0x4054c0,%esi
  403935:	e8 96 d5 ff ff       	callq  400ed0 <_ZNSsC1EPKcRKSaIcE@plt>
  40393a:	48 8d bc 24 f0 00 00 	lea    0xf0(%rsp),%rdi
  403941:	00 
  403942:	e8 19 ed ff ff       	callq  402660 <_ZN11Performance19InlinedStandardLoopERKSt6vectorINS_4testESaIS1_EE>
  403947:	48 8d bc 24 a8 00 00 	lea    0xa8(%rsp),%rdi
  40394e:	00 
  40394f:	48 8d 74 24 40       	lea    0x40(%rsp),%rsi
  403954:	48 89 84 24 a0 00 00 	mov    %rax,0xa0(%rsp)
  40395b:	00 
  40395c:	e8 ef d4 ff ff       	callq  400e50 <_ZNSsC1ERKSs@plt>
  403961:	48 8b 9c 24 c0 01 00 	mov    0x1c0(%rsp),%rbx
  403968:	00 
  403969:	48 85 db             	test   %rbx,%rbx
  40396c:	0f 84 52 07 00 00    	je     4040c4 <_ZN11Performance7CompareEv+0xd84>
  403972:	48 8b 8c 24 a0 00 00 	mov    0xa0(%rsp),%rcx
  403979:	00 
  40397a:	eb 10                	jmp    40398c <_ZN11Performance7CompareEv+0x64c>
  40397c:	0f 1f 40 00          	nopl   0x0(%rax)
  403980:	48 8b 43 10          	mov    0x10(%rbx),%rax
  403984:	48 85 c0             	test   %rax,%rax
  403987:	74 15                	je     40399e <_ZN11Performance7CompareEv+0x65e>
  403989:	48 89 c3             	mov    %rax,%rbx
  40398c:	48 8b 53 20          	mov    0x20(%rbx),%rdx
  403990:	48 39 ca             	cmp    %rcx,%rdx
  403993:	7f eb                	jg     403980 <_ZN11Performance7CompareEv+0x640>
  403995:	48 8b 43 18          	mov    0x18(%rbx),%rax
  403999:	48 85 c0             	test   %rax,%rax
  40399c:	75 eb                	jne    403989 <_ZN11Performance7CompareEv+0x649>
  40399e:	48 8d 84 24 b8 01 00 	lea    0x1b8(%rsp),%rax
  4039a5:	00 
  4039a6:	48 39 c3             	cmp    %rax,%rbx
  4039a9:	0f 84 31 07 00 00    	je     4040e0 <_ZN11Performance7CompareEv+0xda0>
  4039af:	48 39 ca             	cmp    %rcx,%rdx
  4039b2:	40 0f 9f c5          	setg   %bpl
  4039b6:	bf 30 00 00 00       	mov    $0x30,%edi
  4039bb:	e8 c0 d5 ff ff       	callq  400f80 <_Znwm@plt>
  4039c0:	48 85 c0             	test   %rax,%rax
  4039c3:	74 42                	je     403a07 <_ZN11Performance7CompareEv+0x6c7>
  4039c5:	48 8b 94 24 a0 00 00 	mov    0xa0(%rsp),%rdx
  4039cc:	00 
  4039cd:	c7 00 00 00 00 00    	movl   $0x0,(%rax)
  4039d3:	48 c7 40 08 00 00 00 	movq   $0x0,0x8(%rax)
  4039da:	00 
  4039db:	48 c7 40 10 00 00 00 	movq   $0x0,0x10(%rax)
  4039e2:	00 
  4039e3:	48 c7 40 18 00 00 00 	movq   $0x0,0x18(%rax)
  4039ea:	00 
  4039eb:	48 89 50 20          	mov    %rdx,0x20(%rax)
  4039ef:	48 8b 94 24 a8 00 00 	mov    0xa8(%rsp),%rdx
  4039f6:	00 
  4039f7:	48 c7 84 24 a8 00 00 	movq   $0x606478,0xa8(%rsp)
  4039fe:	00 78 64 60 00 
  403a03:	48 89 50 28          	mov    %rdx,0x28(%rax)
  403a07:	48 8d 8c 24 b8 01 00 	lea    0x1b8(%rsp),%rcx
  403a0e:	00 
  403a0f:	48 89 da             	mov    %rbx,%rdx
  403a12:	40 0f b6 fd          	movzbl %bpl,%edi
  403a16:	48 89 c6             	mov    %rax,%rsi
  403a19:	e8 f2 d4 ff ff       	callq  400f10 <_ZSt29_Rb_tree_insert_and_rebalancebPSt18_Rb_tree_node_baseS0_RS_@plt>
  403a1e:	48 8b 9c 24 a8 00 00 	mov    0xa8(%rsp),%rbx
  403a25:	00 
  403a26:	48 83 84 24 d8 01 00 	addq   $0x1,0x1d8(%rsp)
  403a2d:	00 01 
  403a2f:	48 83 eb 18          	sub    $0x18,%rbx
  403a33:	48 81 fb 60 64 60 00 	cmp    $0x606460,%rbx
  403a3a:	0f 85 58 08 00 00    	jne    404298 <_ZN11Performance7CompareEv+0xf58>
  403a40:	48 8b 5c 24 40       	mov    0x40(%rsp),%rbx
  403a45:	48 83 eb 18          	sub    $0x18,%rbx
  403a49:	48 81 fb 60 64 60 00 	cmp    $0x606460,%rbx
  403a50:	0f 85 1e 08 00 00    	jne    404274 <_ZN11Performance7CompareEv+0xf34>
  403a56:	48 8d 54 24 1e       	lea    0x1e(%rsp),%rdx
  403a5b:	48 8d 7c 24 50       	lea    0x50(%rsp),%rdi
  403a60:	be f0 54 40 00       	mov    $0x4054f0,%esi
  403a65:	e8 66 d4 ff ff       	callq  400ed0 <_ZNSsC1EPKcRKSaIcE@plt>
  403a6a:	48 8d bc 24 f0 00 00 	lea    0xf0(%rsp),%rdi
  403a71:	00 
  403a72:	e8 89 ee ff ff       	callq  402900 <_ZN11Performance13InlinedMatrixERSt6vectorINS_4testESaIS1_EE>
  403a77:	48 8d bc 24 b8 00 00 	lea    0xb8(%rsp),%rdi
  403a7e:	00 
  403a7f:	48 8d 74 24 50       	lea    0x50(%rsp),%rsi
  403a84:	48 89 84 24 b0 00 00 	mov    %rax,0xb0(%rsp)
  403a8b:	00 
  403a8c:	e8 bf d3 ff ff       	callq  400e50 <_ZNSsC1ERKSs@plt>
  403a91:	48 8b 9c 24 c0 01 00 	mov    0x1c0(%rsp),%rbx
  403a98:	00 
  403a99:	48 85 db             	test   %rbx,%rbx
  403a9c:	0f 84 ec 05 00 00    	je     40408e <_ZN11Performance7CompareEv+0xd4e>
  403aa2:	48 8b 8c 24 b0 00 00 	mov    0xb0(%rsp),%rcx
  403aa9:	00 
  403aaa:	eb 10                	jmp    403abc <_ZN11Performance7CompareEv+0x77c>
  403aac:	0f 1f 40 00          	nopl   0x0(%rax)
  403ab0:	48 8b 43 10          	mov    0x10(%rbx),%rax
  403ab4:	48 85 c0             	test   %rax,%rax
  403ab7:	74 15                	je     403ace <_ZN11Performance7CompareEv+0x78e>
  403ab9:	48 89 c3             	mov    %rax,%rbx
  403abc:	48 8b 53 20          	mov    0x20(%rbx),%rdx
  403ac0:	48 39 ca             	cmp    %rcx,%rdx
  403ac3:	7f eb                	jg     403ab0 <_ZN11Performance7CompareEv+0x770>
  403ac5:	48 8b 43 18          	mov    0x18(%rbx),%rax
  403ac9:	48 85 c0             	test   %rax,%rax
  403acc:	75 eb                	jne    403ab9 <_ZN11Performance7CompareEv+0x779>
  403ace:	48 8d 84 24 b8 01 00 	lea    0x1b8(%rsp),%rax
  403ad5:	00 
  403ad6:	48 39 c3             	cmp    %rax,%rbx
  403ad9:	0f 84 0b 06 00 00    	je     4040ea <_ZN11Performance7CompareEv+0xdaa>
  403adf:	48 39 d1             	cmp    %rdx,%rcx
  403ae2:	40 0f 9c c5          	setl   %bpl
  403ae6:	bf 30 00 00 00       	mov    $0x30,%edi
  403aeb:	e8 90 d4 ff ff       	callq  400f80 <_Znwm@plt>
  403af0:	48 85 c0             	test   %rax,%rax
  403af3:	74 42                	je     403b37 <_ZN11Performance7CompareEv+0x7f7>
  403af5:	48 8b 94 24 b0 00 00 	mov    0xb0(%rsp),%rdx
  403afc:	00 
  403afd:	c7 00 00 00 00 00    	movl   $0x0,(%rax)
  403b03:	48 c7 40 08 00 00 00 	movq   $0x0,0x8(%rax)
  403b0a:	00 
  403b0b:	48 c7 40 10 00 00 00 	movq   $0x0,0x10(%rax)
  403b12:	00 
  403b13:	48 c7 40 18 00 00 00 	movq   $0x0,0x18(%rax)
  403b1a:	00 
  403b1b:	48 89 50 20          	mov    %rdx,0x20(%rax)
  403b1f:	48 8b 94 24 b8 00 00 	mov    0xb8(%rsp),%rdx
  403b26:	00 
  403b27:	48 c7 84 24 b8 00 00 	movq   $0x606478,0xb8(%rsp)
  403b2e:	00 78 64 60 00 
  403b33:	48 89 50 28          	mov    %rdx,0x28(%rax)
  403b37:	48 8d 8c 24 b8 01 00 	lea    0x1b8(%rsp),%rcx
  403b3e:	00 
  403b3f:	48 89 da             	mov    %rbx,%rdx
  403b42:	40 0f b6 fd          	movzbl %bpl,%edi
  403b46:	48 89 c6             	mov    %rax,%rsi
  403b49:	e8 c2 d3 ff ff       	callq  400f10 <_ZSt29_Rb_tree_insert_and_rebalancebPSt18_Rb_tree_node_baseS0_RS_@plt>
  403b4e:	48 8b 9c 24 b8 00 00 	mov    0xb8(%rsp),%rbx
  403b55:	00 
  403b56:	48 83 84 24 d8 01 00 	addq   $0x1,0x1d8(%rsp)
  403b5d:	00 01 
  403b5f:	48 83 eb 18          	sub    $0x18,%rbx
  403b63:	48 81 fb 60 64 60 00 	cmp    $0x606460,%rbx
  403b6a:	0f 85 25 08 00 00    	jne    404395 <_ZN11Performance7CompareEv+0x1055>
  403b70:	48 8b 5c 24 50       	mov    0x50(%rsp),%rbx
  403b75:	48 83 eb 18          	sub    $0x18,%rbx
  403b79:	48 81 fb 60 64 60 00 	cmp    $0x606460,%rbx
  403b80:	0f 85 ec 07 00 00    	jne    404372 <_ZN11Performance7CompareEv+0x1032>
  403b86:	48 8d 54 24 1e       	lea    0x1e(%rsp),%rdx
  403b8b:	48 8d 7c 24 60       	lea    0x60(%rsp),%rdi
  403b90:	be 28 55 40 00       	mov    $0x405528,%esi
  403b95:	e8 36 d3 ff ff       	callq  400ed0 <_ZNSsC1EPKcRKSaIcE@plt>
  403b9a:	48 8d bc 24 f0 00 00 	lea    0xf0(%rsp),%rdi
  403ba1:	00 
  403ba2:	e8 59 ee ff ff       	callq  402a00 <_ZN11Performance30InlinedWithoutLoopsOrRecursionERSt6vectorINS_4testESaIS1_EE>
  403ba7:	48 8d bc 24 c8 00 00 	lea    0xc8(%rsp),%rdi
  403bae:	00 
  403baf:	48 8d 74 24 60       	lea    0x60(%rsp),%rsi
  403bb4:	48 89 84 24 c0 00 00 	mov    %rax,0xc0(%rsp)
  403bbb:	00 
  403bbc:	e8 8f d2 ff ff       	callq  400e50 <_ZNSsC1ERKSs@plt>
  403bc1:	48 8b 9c 24 c0 01 00 	mov    0x1c0(%rsp),%rbx
  403bc8:	00 
  403bc9:	48 85 db             	test   %rbx,%rbx
  403bcc:	0f 84 ce 04 00 00    	je     4040a0 <_ZN11Performance7CompareEv+0xd60>
  403bd2:	48 8b 8c 24 c0 00 00 	mov    0xc0(%rsp),%rcx
  403bd9:	00 
  403bda:	eb 10                	jmp    403bec <_ZN11Performance7CompareEv+0x8ac>
  403bdc:	0f 1f 40 00          	nopl   0x0(%rax)
  403be0:	48 8b 43 10          	mov    0x10(%rbx),%rax
  403be4:	48 85 c0             	test   %rax,%rax
  403be7:	74 15                	je     403bfe <_ZN11Performance7CompareEv+0x8be>
  403be9:	48 89 c3             	mov    %rax,%rbx
  403bec:	48 8b 53 20          	mov    0x20(%rbx),%rdx
  403bf0:	48 39 d1             	cmp    %rdx,%rcx
  403bf3:	7c eb                	jl     403be0 <_ZN11Performance7CompareEv+0x8a0>
  403bf5:	48 8b 43 18          	mov    0x18(%rbx),%rax
  403bf9:	48 85 c0             	test   %rax,%rax
  403bfc:	75 eb                	jne    403be9 <_ZN11Performance7CompareEv+0x8a9>
  403bfe:	48 8d 84 24 b8 01 00 	lea    0x1b8(%rsp),%rax
  403c05:	00 
  403c06:	48 39 c3             	cmp    %rax,%rbx
  403c09:	0f 84 c7 04 00 00    	je     4040d6 <_ZN11Performance7CompareEv+0xd96>
  403c0f:	48 39 d1             	cmp    %rdx,%rcx
  403c12:	40 0f 9c c5          	setl   %bpl
  403c16:	bf 30 00 00 00       	mov    $0x30,%edi
  403c1b:	e8 60 d3 ff ff       	callq  400f80 <_Znwm@plt>
  403c20:	48 85 c0             	test   %rax,%rax
  403c23:	74 42                	je     403c67 <_ZN11Performance7CompareEv+0x927>
  403c25:	48 8b 94 24 c0 00 00 	mov    0xc0(%rsp),%rdx
  403c2c:	00 
  403c2d:	c7 00 00 00 00 00    	movl   $0x0,(%rax)
  403c33:	48 c7 40 08 00 00 00 	movq   $0x0,0x8(%rax)
  403c3a:	00 
  403c3b:	48 c7 40 10 00 00 00 	movq   $0x0,0x10(%rax)
  403c42:	00 
  403c43:	48 c7 40 18 00 00 00 	movq   $0x0,0x18(%rax)
  403c4a:	00 
  403c4b:	48 89 50 20          	mov    %rdx,0x20(%rax)
  403c4f:	48 8b 94 24 c8 00 00 	mov    0xc8(%rsp),%rdx
  403c56:	00 
  403c57:	48 c7 84 24 c8 00 00 	movq   $0x606478,0xc8(%rsp)
  403c5e:	00 78 64 60 00 
  403c63:	48 89 50 28          	mov    %rdx,0x28(%rax)
  403c67:	48 8d 8c 24 b8 01 00 	lea    0x1b8(%rsp),%rcx
  403c6e:	00 
  403c6f:	48 89 da             	mov    %rbx,%rdx
  403c72:	40 0f b6 fd          	movzbl %bpl,%edi
  403c76:	48 89 c6             	mov    %rax,%rsi
  403c79:	e8 92 d2 ff ff       	callq  400f10 <_ZSt29_Rb_tree_insert_and_rebalancebPSt18_Rb_tree_node_baseS0_RS_@plt>
  403c7e:	48 8b 9c 24 c8 00 00 	mov    0xc8(%rsp),%rbx
  403c85:	00 
  403c86:	48 83 84 24 d8 01 00 	addq   $0x1,0x1d8(%rsp)
  403c8d:	00 01 
  403c8f:	48 83 eb 18          	sub    $0x18,%rbx
  403c93:	48 81 fb 60 64 60 00 	cmp    $0x606460,%rbx
  403c9a:	0f 85 1f 05 00 00    	jne    4041bf <_ZN11Performance7CompareEv+0xe7f>
  403ca0:	48 8b 5c 24 60       	mov    0x60(%rsp),%rbx
  403ca5:	48 83 eb 18          	sub    $0x18,%rbx
  403ca9:	48 81 fb 60 64 60 00 	cmp    $0x606460,%rbx
  403cb0:	0f 85 e6 04 00 00    	jne    40419c <_ZN11Performance7CompareEv+0xe5c>
  403cb6:	48 8d 54 24 1e       	lea    0x1e(%rsp),%rdx
  403cbb:	48 8d 7c 24 70       	lea    0x70(%rsp),%rdi
  403cc0:	be 60 55 40 00       	mov    $0x405560,%esi
  403cc5:	e8 06 d2 ff ff       	callq  400ed0 <_ZNSsC1EPKcRKSaIcE@plt>
  403cca:	48 8d bc 24 f0 00 00 	lea    0xf0(%rsp),%rdi
  403cd1:	00 
  403cd2:	e8 d9 ea ff ff       	callq  4027b0 <_ZN11Performance16InlinedRecursionERSt6vectorINS_4testESaIS1_EE>
  403cd7:	48 8d bc 24 d8 00 00 	lea    0xd8(%rsp),%rdi
  403cde:	00 
  403cdf:	48 8d 74 24 70       	lea    0x70(%rsp),%rsi
  403ce4:	48 89 84 24 d0 00 00 	mov    %rax,0xd0(%rsp)
  403ceb:	00 
  403cec:	e8 5f d1 ff ff       	callq  400e50 <_ZNSsC1ERKSs@plt>
  403cf1:	48 8b 9c 24 c0 01 00 	mov    0x1c0(%rsp),%rbx
  403cf8:	00 
  403cf9:	48 85 db             	test   %rbx,%rbx
  403cfc:	0f 84 7a 03 00 00    	je     40407c <_ZN11Performance7CompareEv+0xd3c>
  403d02:	48 8b 8c 24 d0 00 00 	mov    0xd0(%rsp),%rcx
  403d09:	00 
  403d0a:	eb 10                	jmp    403d1c <_ZN11Performance7CompareEv+0x9dc>
  403d0c:	0f 1f 40 00          	nopl   0x0(%rax)
  403d10:	48 8b 43 10          	mov    0x10(%rbx),%rax
  403d14:	48 85 c0             	test   %rax,%rax
  403d17:	74 15                	je     403d2e <_ZN11Performance7CompareEv+0x9ee>
  403d19:	48 89 c3             	mov    %rax,%rbx
  403d1c:	48 8b 53 20          	mov    0x20(%rbx),%rdx
  403d20:	48 39 ca             	cmp    %rcx,%rdx
  403d23:	7f eb                	jg     403d10 <_ZN11Performance7CompareEv+0x9d0>
  403d25:	48 8b 43 18          	mov    0x18(%rbx),%rax
  403d29:	48 85 c0             	test   %rax,%rax
  403d2c:	75 eb                	jne    403d19 <_ZN11Performance7CompareEv+0x9d9>
  403d2e:	48 8d 84 24 b8 01 00 	lea    0x1b8(%rsp),%rax
  403d35:	00 
  403d36:	48 39 c3             	cmp    %rax,%rbx
  403d39:	0f 84 b5 03 00 00    	je     4040f4 <_ZN11Performance7CompareEv+0xdb4>
  403d3f:	48 39 d1             	cmp    %rdx,%rcx
  403d42:	40 0f 9c c5          	setl   %bpl
  403d46:	bf 30 00 00 00       	mov    $0x30,%edi
  403d4b:	e8 30 d2 ff ff       	callq  400f80 <_Znwm@plt>
  403d50:	48 85 c0             	test   %rax,%rax
  403d53:	74 42                	je     403d97 <_ZN11Performance7CompareEv+0xa57>
  403d55:	48 8b 94 24 d0 00 00 	mov    0xd0(%rsp),%rdx
  403d5c:	00 
  403d5d:	48 c7 40 08 00 00 00 	movq   $0x0,0x8(%rax)
  403d64:	00 
  403d65:	48 c7 40 10 00 00 00 	movq   $0x0,0x10(%rax)
  403d6c:	00 
  403d6d:	48 c7 40 18 00 00 00 	movq   $0x0,0x18(%rax)
  403d74:	00 
  403d75:	c7 00 00 00 00 00    	movl   $0x0,(%rax)
  403d7b:	48 89 50 20          	mov    %rdx,0x20(%rax)
  403d7f:	48 8b 94 24 d8 00 00 	mov    0xd8(%rsp),%rdx
  403d86:	00 
  403d87:	48 89 50 28          	mov    %rdx,0x28(%rax)
  403d8b:	48 c7 84 24 d8 00 00 	movq   $0x606478,0xd8(%rsp)
  403d92:	00 78 64 60 00 
  403d97:	48 8d 8c 24 b8 01 00 	lea    0x1b8(%rsp),%rcx
  403d9e:	00 
  403d9f:	48 89 da             	mov    %rbx,%rdx
  403da2:	40 0f b6 fd          	movzbl %bpl,%edi
  403da6:	48 89 c6             	mov    %rax,%rsi
  403da9:	e8 62 d1 ff ff       	callq  400f10 <_ZSt29_Rb_tree_insert_and_rebalancebPSt18_Rb_tree_node_baseS0_RS_@plt>
  403dae:	48 8b 9c 24 d8 00 00 	mov    0xd8(%rsp),%rbx
  403db5:	00 
  403db6:	48 83 84 24 d8 01 00 	addq   $0x1,0x1d8(%rsp)
  403dbd:	00 01 
  403dbf:	48 83 eb 18          	sub    $0x18,%rbx
  403dc3:	48 81 fb 60 64 60 00 	cmp    $0x606460,%rbx
  403dca:	0f 85 32 06 00 00    	jne    404402 <_ZN11Performance7CompareEv+0x10c2>
  403dd0:	48 8b 5c 24 70       	mov    0x70(%rsp),%rbx
  403dd5:	48 83 eb 18          	sub    $0x18,%rbx
  403dd9:	48 81 fb 60 64 60 00 	cmp    $0x606460,%rbx
  403de0:	0f 85 f9 05 00 00    	jne    4043df <_ZN11Performance7CompareEv+0x109f>
  403de6:	48 8b 35 fb 26 20 00 	mov    0x2026fb(%rip),%rsi        # 6064e8 <_ZL5Reset>
  403ded:	bf 40 63 60 00       	mov    $0x606340,%edi
  403df2:	48 8b 56 e8          	mov    -0x18(%rsi),%rdx
  403df6:	e8 05 d1 ff ff       	callq  400f00 <_ZSt16__ostream_insertIcSt11char_traitsIcEERSt13basic_ostreamIT_T0_ES6_PKS3_l@plt>
  403dfb:	48 8b 9c 24 c8 01 00 	mov    0x1c8(%rsp),%rbx
  403e02:	00 
  403e03:	4c 8d b4 24 b8 01 00 	lea    0x1b8(%rsp),%r14
  403e0a:	00 
  403e0b:	4c 39 f3             	cmp    %r14,%rbx
  403e0e:	0f 84 69 01 00 00    	je     403f7d <_ZN11Performance7CompareEv+0xc3d>
  403e14:	4c 8d a4 24 d8 00 00 	lea    0xd8(%rsp),%r12
  403e1b:	00 
  403e1c:	eb 47                	jmp    403e65 <_ZN11Performance7CompareEv+0xb25>
  403e1e:	66 90                	xchg   %ax,%ax
  403e20:	41 0f b6 47 43       	movzbl 0x43(%r15),%eax
  403e25:	0f be f0             	movsbl %al,%esi
  403e28:	48 89 ef             	mov    %rbp,%rdi
  403e2b:	e8 70 d1 ff ff       	callq  400fa0 <_ZNSo3putEc@plt>
  403e30:	48 89 c7             	mov    %rax,%rdi
  403e33:	e8 e8 d0 ff ff       	callq  400f20 <_ZNSo5flushEv@plt>
  403e38:	48 8b ac 24 d8 00 00 	mov    0xd8(%rsp),%rbp
  403e3f:	00 
  403e40:	48 83 ed 18          	sub    $0x18,%rbp
  403e44:	48 81 fd 60 64 60 00 	cmp    $0x606460,%rbp
  403e4b:	0f 85 7b 06 00 00    	jne    4044cc <_ZN11Performance7CompareEv+0x118c>
  403e51:	48 89 df             	mov    %rbx,%rdi
  403e54:	e8 57 d0 ff ff       	callq  400eb0 <_ZSt18_Rb_tree_incrementPKSt18_Rb_tree_node_base@plt>
  403e59:	4c 39 f0             	cmp    %r14,%rax
  403e5c:	48 89 c3             	mov    %rax,%rbx
  403e5f:	0f 84 18 01 00 00    	je     403f7d <_ZN11Performance7CompareEv+0xc3d>
  403e65:	48 8b 43 20          	mov    0x20(%rbx),%rax
  403e69:	48 8d 73 28          	lea    0x28(%rbx),%rsi
  403e6d:	4c 89 e7             	mov    %r12,%rdi
  403e70:	48 89 84 24 d0 00 00 	mov    %rax,0xd0(%rsp)
  403e77:	00 
  403e78:	e8 d3 cf ff ff       	callq  400e50 <_ZNSsC1ERKSs@plt>
  403e7d:	48 8b 05 bc 24 20 00 	mov    0x2024bc(%rip),%rax        # 606340 <__TMC_END__>
  403e84:	48 8b b4 24 d8 00 00 	mov    0xd8(%rsp),%rsi
  403e8b:	00 
  403e8c:	bf 40 63 60 00       	mov    $0x606340,%edi
  403e91:	4c 8b bc 24 d0 00 00 	mov    0xd0(%rsp),%r15
  403e98:	00 
  403e99:	48 8b 40 e8          	mov    -0x18(%rax),%rax
  403e9d:	48 c7 80 50 63 60 00 	movq   $0x3c,0x606350(%rax)
  403ea4:	3c 00 00 00 
  403ea8:	48 8b 56 e8          	mov    -0x18(%rsi),%rdx
  403eac:	e8 4f d0 ff ff       	callq  400f00 <_ZSt16__ostream_insertIcSt11char_traitsIcEERSt13basic_ostreamIT_T0_ES6_PKS3_l@plt>
  403eb1:	ba 02 00 00 00       	mov    $0x2,%edx
  403eb6:	be 91 55 40 00       	mov    $0x405591,%esi
  403ebb:	48 89 c7             	mov    %rax,%rdi
  403ebe:	48 89 c5             	mov    %rax,%rbp
  403ec1:	e8 3a d0 ff ff       	callq  400f00 <_ZSt16__ostream_insertIcSt11char_traitsIcEERSt13basic_ostreamIT_T0_ES6_PKS3_l@plt>
  403ec6:	be 90 d0 03 00       	mov    $0x3d090,%esi
  403ecb:	48 89 ef             	mov    %rbp,%rdi
  403ece:	e8 1d cf ff ff       	callq  400df0 <_ZNSolsEi@plt>
  403ed3:	ba 11 00 00 00       	mov    $0x11,%edx
  403ed8:	be cd 55 40 00       	mov    $0x4055cd,%esi
  403edd:	48 89 c7             	mov    %rax,%rdi
  403ee0:	48 89 c5             	mov    %rax,%rbp
  403ee3:	e8 18 d0 ff ff       	callq  400f00 <_ZSt16__ostream_insertIcSt11char_traitsIcEERSt13basic_ostreamIT_T0_ES6_PKS3_l@plt>
  403ee8:	48 8b 45 00          	mov    0x0(%rbp),%rax
  403eec:	4c 89 fe             	mov    %r15,%rsi
  403eef:	48 89 ef             	mov    %rbp,%rdi
  403ef2:	48 8b 40 e8          	mov    -0x18(%rax),%rax
  403ef6:	48 c7 44 05 10 0a 00 	movq   $0xa,0x10(%rbp,%rax,1)
  403efd:	00 00 
  403eff:	e8 ac d0 ff ff       	callq  400fb0 <_ZNSo9_M_insertIxEERSoT_@plt>
  403f04:	48 8b 35 dd 25 20 00 	mov    0x2025dd(%rip),%rsi        # 6064e8 <_ZL5Reset>
  403f0b:	48 89 c7             	mov    %rax,%rdi
  403f0e:	48 8b 56 e8          	mov    -0x18(%rsi),%rdx
  403f12:	e8 e9 cf ff ff       	callq  400f00 <_ZSt16__ostream_insertIcSt11char_traitsIcEERSt13basic_ostreamIT_T0_ES6_PKS3_l@plt>
  403f17:	ba 0d 00 00 00       	mov    $0xd,%edx
  403f1c:	be df 55 40 00       	mov    $0x4055df,%esi
  403f21:	48 89 c7             	mov    %rax,%rdi
  403f24:	48 89 c5             	mov    %rax,%rbp
  403f27:	e8 d4 cf ff ff       	callq  400f00 <_ZSt16__ostream_insertIcSt11char_traitsIcEERSt13basic_ostreamIT_T0_ES6_PKS3_l@plt>
  403f2c:	48 8b 45 00          	mov    0x0(%rbp),%rax
  403f30:	48 8b 40 e8          	mov    -0x18(%rax),%rax
  403f34:	4c 8b bc 05 f0 00 00 	mov    0xf0(%rbp,%rax,1),%r15
  403f3b:	00 
  403f3c:	4d 85 ff             	test   %r15,%r15
  403f3f:	0f 84 80 04 00 00    	je     4043c5 <_ZN11Performance7CompareEv+0x1085>
  403f45:	41 80 7f 38 00       	cmpb   $0x0,0x38(%r15)
  403f4a:	0f 85 d0 fe ff ff    	jne    403e20 <_ZN11Performance7CompareEv+0xae0>
  403f50:	4c 89 ff             	mov    %r15,%rdi
  403f53:	e8 c8 ce ff ff       	callq  400e20 <_ZNKSt5ctypeIcE13_M_widen_initEv@plt>
  403f58:	49 8b 07             	mov    (%r15),%rax
  403f5b:	be 0a 00 00 00       	mov    $0xa,%esi
  403f60:	4c 89 ff             	mov    %r15,%rdi
  403f63:	ff 50 30             	callq  *0x30(%rax)
  403f66:	e9 ba fe ff ff       	jmpq   403e25 <_ZN11Performance7CompareEv+0xae5>
  403f6b:	48 8d 9c 24 b8 01 00 	lea    0x1b8(%rsp),%rbx
  403f72:	00 
  403f73:	bd 01 00 00 00       	mov    $0x1,%ebp
  403f78:	e9 99 f7 ff ff       	jmpq   403716 <_ZN11Performance7CompareEv+0x3d6>
  403f7d:	48 8b bc 24 30 01 00 	mov    0x130(%rsp),%rdi
  403f84:	00 
  403f85:	48 85 ff             	test   %rdi,%rdi
  403f88:	74 05                	je     403f8f <_ZN11Performance7CompareEv+0xc4f>
  403f8a:	e8 81 ce ff ff       	callq  400e10 <_ZdlPv@plt>
  403f8f:	48 8b b4 24 c0 01 00 	mov    0x1c0(%rsp),%rsi
  403f96:	00 
  403f97:	48 8d bc 24 b0 01 00 	lea    0x1b0(%rsp),%rdi
  403f9e:	00 
  403f9f:	e8 4c e1 ff ff       	callq  4020f0 <_ZNSt8_Rb_treeIZN11Performance7CompareEvE6resultS1_St9_IdentityIS1_ESt4lessIS1_ESaIS1_EE8_M_eraseEPSt13_Rb_tree_nodeIS1_E>
  403fa4:	48 8b 9c 24 a0 01 00 	mov    0x1a0(%rsp),%rbx
  403fab:	00 
  403fac:	48 83 eb 18          	sub    $0x18,%rbx
  403fb0:	48 81 fb 60 64 60 00 	cmp    $0x606460,%rbx
  403fb7:	0f 85 ec 04 00 00    	jne    4044a9 <_ZN11Performance7CompareEv+0x1169>
  403fbd:	48 8b 9c 24 98 01 00 	mov    0x198(%rsp),%rbx
  403fc4:	00 
  403fc5:	48 83 eb 18          	sub    $0x18,%rbx
  403fc9:	48 81 fb 60 64 60 00 	cmp    $0x606460,%rbx
  403fd0:	0f 85 82 05 00 00    	jne    404558 <_ZN11Performance7CompareEv+0x1218>
  403fd6:	48 8b 9c 24 90 01 00 	mov    0x190(%rsp),%rbx
  403fdd:	00 
  403fde:	48 83 eb 18          	sub    $0x18,%rbx
  403fe2:	48 81 fb 60 64 60 00 	cmp    $0x606460,%rbx
  403fe9:	0f 85 46 05 00 00    	jne    404535 <_ZN11Performance7CompareEv+0x11f5>
  403fef:	48 8b 9c 24 88 01 00 	mov    0x188(%rsp),%rbx
  403ff6:	00 
  403ff7:	48 83 eb 18          	sub    $0x18,%rbx
  403ffb:	48 81 fb 60 64 60 00 	cmp    $0x606460,%rbx
  404002:	0f 85 0a 05 00 00    	jne    404512 <_ZN11Performance7CompareEv+0x11d2>
  404008:	48 8b 9c 24 80 01 00 	mov    0x180(%rsp),%rbx
  40400f:	00 
  404010:	48 83 eb 18          	sub    $0x18,%rbx
  404014:	48 81 fb 60 64 60 00 	cmp    $0x606460,%rbx
  40401b:	0f 85 ce 04 00 00    	jne    4044ef <_ZN11Performance7CompareEv+0x11af>
  404021:	48 8b bc 24 10 01 00 	mov    0x110(%rsp),%rdi
  404028:	00 
  404029:	48 85 ff             	test   %rdi,%rdi
  40402c:	74 05                	je     404033 <_ZN11Performance7CompareEv+0xcf3>
  40402e:	e8 dd cd ff ff       	callq  400e10 <_ZdlPv@plt>
  404033:	48 8b bc 24 f0 00 00 	mov    0xf0(%rsp),%rdi
  40403a:	00 
  40403b:	48 85 ff             	test   %rdi,%rdi
  40403e:	74 05                	je     404045 <_ZN11Performance7CompareEv+0xd05>
  404040:	e8 cb cd ff ff       	callq  400e10 <_ZdlPv@plt>
  404045:	48 81 c4 e8 01 00 00 	add    $0x1e8,%rsp
  40404c:	5b                   	pop    %rbx
  40404d:	5d                   	pop    %rbp
  40404e:	41 5c                	pop    %r12
  404050:	41 5d                	pop    %r13
  404052:	41 5e                	pop    %r14
  404054:	41 5f                	pop    %r15
  404056:	c3                   	retq   
  404057:	48 89 df             	mov    %rbx,%rdi
  40405a:	e8 c1 cd ff ff       	callq  400e20 <_ZNKSt5ctypeIcE13_M_widen_initEv@plt>
  40405f:	48 8b 03             	mov    (%rbx),%rax
  404062:	be 0a 00 00 00       	mov    $0xa,%esi
  404067:	48 89 df             	mov    %rbx,%rdi
  40406a:	ff 50 30             	callq  *0x30(%rax)
  40406d:	e9 74 f5 ff ff       	jmpq   4035e6 <_ZN11Performance7CompareEv+0x2a6>
  404072:	bd 01 00 00 00       	mov    $0x1,%ebp
  404077:	e9 9a f6 ff ff       	jmpq   403716 <_ZN11Performance7CompareEv+0x3d6>
  40407c:	48 8d 9c 24 b8 01 00 	lea    0x1b8(%rsp),%rbx
  404083:	00 
  404084:	bd 01 00 00 00       	mov    $0x1,%ebp
  404089:	e9 b8 fc ff ff       	jmpq   403d46 <_ZN11Performance7CompareEv+0xa06>
  40408e:	48 8d 9c 24 b8 01 00 	lea    0x1b8(%rsp),%rbx
  404095:	00 
  404096:	bd 01 00 00 00       	mov    $0x1,%ebp
  40409b:	e9 46 fa ff ff       	jmpq   403ae6 <_ZN11Performance7CompareEv+0x7a6>
  4040a0:	48 8d 9c 24 b8 01 00 	lea    0x1b8(%rsp),%rbx
  4040a7:	00 
  4040a8:	bd 01 00 00 00       	mov    $0x1,%ebp
  4040ad:	e9 64 fb ff ff       	jmpq   403c16 <_ZN11Performance7CompareEv+0x8d6>
  4040b2:	48 8d 9c 24 b8 01 00 	lea    0x1b8(%rsp),%rbx
  4040b9:	00 
  4040ba:	bd 01 00 00 00       	mov    $0x1,%ebp
  4040bf:	e9 c2 f7 ff ff       	jmpq   403886 <_ZN11Performance7CompareEv+0x546>
  4040c4:	48 8d 9c 24 b8 01 00 	lea    0x1b8(%rsp),%rbx
  4040cb:	00 
  4040cc:	bd 01 00 00 00       	mov    $0x1,%ebp
  4040d1:	e9 e0 f8 ff ff       	jmpq   4039b6 <_ZN11Performance7CompareEv+0x676>
  4040d6:	bd 01 00 00 00       	mov    $0x1,%ebp
  4040db:	e9 36 fb ff ff       	jmpq   403c16 <_ZN11Performance7CompareEv+0x8d6>
  4040e0:	bd 01 00 00 00       	mov    $0x1,%ebp
  4040e5:	e9 cc f8 ff ff       	jmpq   4039b6 <_ZN11Performance7CompareEv+0x676>
  4040ea:	bd 01 00 00 00       	mov    $0x1,%ebp
  4040ef:	e9 f2 f9 ff ff       	jmpq   403ae6 <_ZN11Performance7CompareEv+0x7a6>
  4040f4:	bd 01 00 00 00       	mov    $0x1,%ebp
  4040f9:	e9 48 fc ff ff       	jmpq   403d46 <_ZN11Performance7CompareEv+0xa06>
  4040fe:	bd 01 00 00 00       	mov    $0x1,%ebp
  404103:	e9 7e f7 ff ff       	jmpq   403886 <_ZN11Performance7CompareEv+0x546>
  404108:	48 8d bc 24 90 00 00 	lea    0x90(%rsp),%rdi
  40410f:	00 
  404110:	48 89 c3             	mov    %rax,%rbx
  404113:	e8 b8 e3 ff ff       	callq  4024d0 <_ZZN11Performance7CompareEvEN6resultD1Ev>
  404118:	48 8d 7c 24 30       	lea    0x30(%rsp),%rdi
  40411d:	e8 5e cd ff ff       	callq  400e80 <_ZNSsD1Ev@plt>
  404122:	48 8d bc 24 30 01 00 	lea    0x130(%rsp),%rdi
  404129:	00 
  40412a:	e8 51 04 00 00       	callq  404580 <_ZNSt6vectorIiSaIiEED1Ev>
  40412f:	48 8b b4 24 c0 01 00 	mov    0x1c0(%rsp),%rsi
  404136:	00 
  404137:	48 8d bc 24 b0 01 00 	lea    0x1b0(%rsp),%rdi
  40413e:	00 
  40413f:	e8 ac df ff ff       	callq  4020f0 <_ZNSt8_Rb_treeIZN11Performance7CompareEvE6resultS1_St9_IdentityIS1_ESt4lessIS1_ESaIS1_EE8_M_eraseEPSt13_Rb_tree_nodeIS1_E>
  404144:	49 8d 7d 20          	lea    0x20(%r13),%rdi
  404148:	e8 33 cd ff ff       	callq  400e80 <_ZNSsD1Ev@plt>
  40414d:	49 8d 7d 18          	lea    0x18(%r13),%rdi
  404151:	e8 2a cd ff ff       	callq  400e80 <_ZNSsD1Ev@plt>
  404156:	49 8d 7d 10          	lea    0x10(%r13),%rdi
  40415a:	e8 21 cd ff ff       	callq  400e80 <_ZNSsD1Ev@plt>
  40415f:	49 8d 7d 08          	lea    0x8(%r13),%rdi
  404163:	e8 18 cd ff ff       	callq  400e80 <_ZNSsD1Ev@plt>
  404168:	4c 89 ef             	mov    %r13,%rdi
  40416b:	e8 10 cd ff ff       	callq  400e80 <_ZNSsD1Ev@plt>
  404170:	48 8b bc 24 10 01 00 	mov    0x110(%rsp),%rdi
  404177:	00 
  404178:	48 85 ff             	test   %rdi,%rdi
  40417b:	74 05                	je     404182 <_ZN11Performance7CompareEv+0xe42>
  40417d:	e8 8e cc ff ff       	callq  400e10 <_ZdlPv@plt>
  404182:	48 8b bc 24 f0 00 00 	mov    0xf0(%rsp),%rdi
  404189:	00 
  40418a:	48 85 ff             	test   %rdi,%rdi
  40418d:	74 05                	je     404194 <_ZN11Performance7CompareEv+0xe54>
  40418f:	e8 7c cc ff ff       	callq  400e10 <_ZdlPv@plt>
  404194:	48 89 df             	mov    %rbx,%rdi
  404197:	e8 f4 cd ff ff       	callq  400f90 <_Unwind_Resume@plt>
  40419c:	48 8d 7b 10          	lea    0x10(%rbx),%rdi
  4041a0:	e8 1b ce ff ff       	callq  400fc0 <_ZN9__gnu_cxxL27__exchange_and_add_dispatchEPii.constprop.84>
  4041a5:	85 c0                	test   %eax,%eax
  4041a7:	0f 8f 09 fb ff ff    	jg     403cb6 <_ZN11Performance7CompareEv+0x976>
  4041ad:	48 8d 74 24 1f       	lea    0x1f(%rsp),%rsi
  4041b2:	48 89 df             	mov    %rbx,%rdi
  4041b5:	e8 e6 cc ff ff       	callq  400ea0 <_ZNSs4_Rep10_M_destroyERKSaIcE@plt>
  4041ba:	e9 f7 fa ff ff       	jmpq   403cb6 <_ZN11Performance7CompareEv+0x976>
  4041bf:	48 8d 7b 10          	lea    0x10(%rbx),%rdi
  4041c3:	e8 f8 cd ff ff       	callq  400fc0 <_ZN9__gnu_cxxL27__exchange_and_add_dispatchEPii.constprop.84>
  4041c8:	85 c0                	test   %eax,%eax
  4041ca:	0f 8f d0 fa ff ff    	jg     403ca0 <_ZN11Performance7CompareEv+0x960>
  4041d0:	48 8d 74 24 1f       	lea    0x1f(%rsp),%rsi
  4041d5:	48 89 df             	mov    %rbx,%rdi
  4041d8:	e8 c3 cc ff ff       	callq  400ea0 <_ZNSs4_Rep10_M_destroyERKSaIcE@plt>
  4041dd:	e9 be fa ff ff       	jmpq   403ca0 <_ZN11Performance7CompareEv+0x960>
  4041e2:	48 8d 7b 10          	lea    0x10(%rbx),%rdi
  4041e6:	e8 d5 cd ff ff       	callq  400fc0 <_ZN9__gnu_cxxL27__exchange_and_add_dispatchEPii.constprop.84>
  4041eb:	85 c0                	test   %eax,%eax
  4041ed:	0f 8f d9 f5 ff ff    	jg     4037cc <_ZN11Performance7CompareEv+0x48c>
  4041f3:	48 8d 74 24 1f       	lea    0x1f(%rsp),%rsi
  4041f8:	48 89 df             	mov    %rbx,%rdi
  4041fb:	e8 a0 cc ff ff       	callq  400ea0 <_ZNSs4_Rep10_M_destroyERKSaIcE@plt>
  404200:	e9 c7 f5 ff ff       	jmpq   4037cc <_ZN11Performance7CompareEv+0x48c>
  404205:	48 8d 7b 10          	lea    0x10(%rbx),%rdi
  404209:	e8 b2 cd ff ff       	callq  400fc0 <_ZN9__gnu_cxxL27__exchange_and_add_dispatchEPii.constprop.84>
  40420e:	85 c0                	test   %eax,%eax
  404210:	0f 8f a0 f5 ff ff    	jg     4037b6 <_ZN11Performance7CompareEv+0x476>
  404216:	48 8d 74 24 1f       	lea    0x1f(%rsp),%rsi
  40421b:	48 89 df             	mov    %rbx,%rdi
  40421e:	e8 7d cc ff ff       	callq  400ea0 <_ZNSs4_Rep10_M_destroyERKSaIcE@plt>
  404223:	e9 8e f5 ff ff       	jmpq   4037b6 <_ZN11Performance7CompareEv+0x476>
  404228:	48 8d 7b 10          	lea    0x10(%rbx),%rdi
  40422c:	e8 8f cd ff ff       	callq  400fc0 <_ZN9__gnu_cxxL27__exchange_and_add_dispatchEPii.constprop.84>
  404231:	85 c0                	test   %eax,%eax
  404233:	0f 8f 67 f5 ff ff    	jg     4037a0 <_ZN11Performance7CompareEv+0x460>
  404239:	48 8d 74 24 1f       	lea    0x1f(%rsp),%rsi
  40423e:	48 89 df             	mov    %rbx,%rdi
  404241:	e8 5a cc ff ff       	callq  400ea0 <_ZNSs4_Rep10_M_destroyERKSaIcE@plt>
  404246:	e9 55 f5 ff ff       	jmpq   4037a0 <_ZN11Performance7CompareEv+0x460>
  40424b:	48 8d bc 24 88 00 00 	lea    0x88(%rsp),%rdi
  404252:	00 
  404253:	48 89 c3             	mov    %rax,%rbx
  404256:	e8 25 cc ff ff       	callq  400e80 <_ZNSsD1Ev@plt>
  40425b:	48 8d 7c 24 20       	lea    0x20(%rsp),%rdi
  404260:	e8 1b cc ff ff       	callq  400e80 <_ZNSsD1Ev@plt>
  404265:	48 8d 7c 24 70       	lea    0x70(%rsp),%rdi
  40426a:	e8 11 cc ff ff       	callq  400e80 <_ZNSsD1Ev@plt>
  40426f:	e9 ae fe ff ff       	jmpq   404122 <_ZN11Performance7CompareEv+0xde2>
  404274:	48 8d 7b 10          	lea    0x10(%rbx),%rdi
  404278:	e8 43 cd ff ff       	callq  400fc0 <_ZN9__gnu_cxxL27__exchange_and_add_dispatchEPii.constprop.84>
  40427d:	85 c0                	test   %eax,%eax
  40427f:	90                   	nop
  404280:	0f 8f d0 f7 ff ff    	jg     403a56 <_ZN11Performance7CompareEv+0x716>
  404286:	48 8d 74 24 1f       	lea    0x1f(%rsp),%rsi
  40428b:	48 89 df             	mov    %rbx,%rdi
  40428e:	e8 0d cc ff ff       	callq  400ea0 <_ZNSs4_Rep10_M_destroyERKSaIcE@plt>
  404293:	e9 be f7 ff ff       	jmpq   403a56 <_ZN11Performance7CompareEv+0x716>
  404298:	48 8d 7b 10          	lea    0x10(%rbx),%rdi
  40429c:	e8 1f cd ff ff       	callq  400fc0 <_ZN9__gnu_cxxL27__exchange_and_add_dispatchEPii.constprop.84>
  4042a1:	85 c0                	test   %eax,%eax
  4042a3:	0f 8f 97 f7 ff ff    	jg     403a40 <_ZN11Performance7CompareEv+0x700>
  4042a9:	48 8d 74 24 1f       	lea    0x1f(%rsp),%rsi
  4042ae:	48 89 df             	mov    %rbx,%rdi
  4042b1:	e8 ea cb ff ff       	callq  400ea0 <_ZNSs4_Rep10_M_destroyERKSaIcE@plt>
  4042b6:	e9 85 f7 ff ff       	jmpq   403a40 <_ZN11Performance7CompareEv+0x700>
  4042bb:	48 89 c3             	mov    %rax,%rbx
  4042be:	48 8d 7c 24 40       	lea    0x40(%rsp),%rdi
  4042c3:	e8 b8 cb ff ff       	callq  400e80 <_ZNSsD1Ev@plt>
  4042c8:	e9 55 fe ff ff       	jmpq   404122 <_ZN11Performance7CompareEv+0xde2>
  4042cd:	48 89 c3             	mov    %rax,%rbx
  4042d0:	e9 43 fe ff ff       	jmpq   404118 <_ZN11Performance7CompareEv+0xdd8>
  4042d5:	48 89 c3             	mov    %rax,%rbx
  4042d8:	eb 8b                	jmp    404265 <_ZN11Performance7CompareEv+0xf25>
  4042da:	48 89 c3             	mov    %rax,%rbx
  4042dd:	e9 40 fe ff ff       	jmpq   404122 <_ZN11Performance7CompareEv+0xde2>
  4042e2:	48 8d 7b 10          	lea    0x10(%rbx),%rdi
  4042e6:	e8 d5 cc ff ff       	callq  400fc0 <_ZN9__gnu_cxxL27__exchange_and_add_dispatchEPii.constprop.84>
  4042eb:	85 c0                	test   %eax,%eax
  4042ed:	0f 8f 33 f6 ff ff    	jg     403926 <_ZN11Performance7CompareEv+0x5e6>
  4042f3:	48 8d 74 24 1f       	lea    0x1f(%rsp),%rsi
  4042f8:	48 89 df             	mov    %rbx,%rdi
  4042fb:	e8 a0 cb ff ff       	callq  400ea0 <_ZNSs4_Rep10_M_destroyERKSaIcE@plt>
  404300:	e9 21 f6 ff ff       	jmpq   403926 <_ZN11Performance7CompareEv+0x5e6>
  404305:	48 8d 7b 10          	lea    0x10(%rbx),%rdi
  404309:	e8 b2 cc ff ff       	callq  400fc0 <_ZN9__gnu_cxxL27__exchange_and_add_dispatchEPii.constprop.84>
  40430e:	85 c0                	test   %eax,%eax
  404310:	0f 8f fa f5 ff ff    	jg     403910 <_ZN11Performance7CompareEv+0x5d0>
  404316:	48 8d 74 24 1f       	lea    0x1f(%rsp),%rsi
  40431b:	48 89 df             	mov    %rbx,%rdi
  40431e:	e8 7d cb ff ff       	callq  400ea0 <_ZNSs4_Rep10_M_destroyERKSaIcE@plt>
  404323:	e9 e8 f5 ff ff       	jmpq   403910 <_ZN11Performance7CompareEv+0x5d0>
  404328:	e8 d3 ca ff ff       	callq  400e00 <_ZSt16__throw_bad_castv@plt>
  40432d:	48 89 c3             	mov    %rax,%rbx
  404330:	e9 fa fd ff ff       	jmpq   40412f <_ZN11Performance7CompareEv+0xdef>
  404335:	49 8d 5d 20          	lea    0x20(%r13),%rbx
  404339:	48 83 eb 08          	sub    $0x8,%rbx
  40433d:	48 89 04 24          	mov    %rax,(%rsp)
  404341:	48 89 df             	mov    %rbx,%rdi
  404344:	e8 37 cb ff ff       	callq  400e80 <_ZNSsD1Ev@plt>
  404349:	4c 39 eb             	cmp    %r13,%rbx
  40434c:	48 8b 04 24          	mov    (%rsp),%rax
  404350:	75 e7                	jne    404339 <_ZN11Performance7CompareEv+0xff9>
  404352:	48 89 c3             	mov    %rax,%rbx
  404355:	e9 16 fe ff ff       	jmpq   404170 <_ZN11Performance7CompareEv+0xe30>
  40435a:	49 8d 5d 18          	lea    0x18(%r13),%rbx
  40435e:	eb d9                	jmp    404339 <_ZN11Performance7CompareEv+0xff9>
  404360:	49 8d 5d 10          	lea    0x10(%r13),%rbx
  404364:	eb d3                	jmp    404339 <_ZN11Performance7CompareEv+0xff9>
  404366:	49 8d 5d 08          	lea    0x8(%r13),%rbx
  40436a:	eb cd                	jmp    404339 <_ZN11Performance7CompareEv+0xff9>
  40436c:	eb e4                	jmp    404352 <_ZN11Performance7CompareEv+0x1012>
  40436e:	66 90                	xchg   %ax,%ax
  404370:	eb e0                	jmp    404352 <_ZN11Performance7CompareEv+0x1012>
  404372:	48 8d 7b 10          	lea    0x10(%rbx),%rdi
  404376:	e8 45 cc ff ff       	callq  400fc0 <_ZN9__gnu_cxxL27__exchange_and_add_dispatchEPii.constprop.84>
  40437b:	85 c0                	test   %eax,%eax
  40437d:	0f 8f 03 f8 ff ff    	jg     403b86 <_ZN11Performance7CompareEv+0x846>
  404383:	48 8d 74 24 1f       	lea    0x1f(%rsp),%rsi
  404388:	48 89 df             	mov    %rbx,%rdi
  40438b:	e8 10 cb ff ff       	callq  400ea0 <_ZNSs4_Rep10_M_destroyERKSaIcE@plt>
  404390:	e9 f1 f7 ff ff       	jmpq   403b86 <_ZN11Performance7CompareEv+0x846>
  404395:	48 8d 7b 10          	lea    0x10(%rbx),%rdi
  404399:	e8 22 cc ff ff       	callq  400fc0 <_ZN9__gnu_cxxL27__exchange_and_add_dispatchEPii.constprop.84>
  40439e:	85 c0                	test   %eax,%eax
  4043a0:	0f 8f ca f7 ff ff    	jg     403b70 <_ZN11Performance7CompareEv+0x830>
  4043a6:	48 8d 74 24 1f       	lea    0x1f(%rsp),%rsi
  4043ab:	48 89 df             	mov    %rbx,%rdi
  4043ae:	e8 ed ca ff ff       	callq  400ea0 <_ZNSs4_Rep10_M_destroyERKSaIcE@plt>
  4043b3:	e9 b8 f7 ff ff       	jmpq   403b70 <_ZN11Performance7CompareEv+0x830>
  4043b8:	48 89 c3             	mov    %rax,%rbx
  4043bb:	e9 9b fe ff ff       	jmpq   40425b <_ZN11Performance7CompareEv+0xf1b>
  4043c0:	e9 10 ff ff ff       	jmpq   4042d5 <_ZN11Performance7CompareEv+0xf95>
  4043c5:	e8 36 ca ff ff       	callq  400e00 <_ZSt16__throw_bad_castv@plt>
  4043ca:	48 8d bc 24 d0 00 00 	lea    0xd0(%rsp),%rdi
  4043d1:	00 
  4043d2:	48 89 c3             	mov    %rax,%rbx
  4043d5:	e8 f6 e0 ff ff       	callq  4024d0 <_ZZN11Performance7CompareEvEN6resultD1Ev>
  4043da:	e9 43 fd ff ff       	jmpq   404122 <_ZN11Performance7CompareEv+0xde2>
  4043df:	48 8d 7b 10          	lea    0x10(%rbx),%rdi
  4043e3:	e8 d8 cb ff ff       	callq  400fc0 <_ZN9__gnu_cxxL27__exchange_and_add_dispatchEPii.constprop.84>
  4043e8:	85 c0                	test   %eax,%eax
  4043ea:	0f 8f f6 f9 ff ff    	jg     403de6 <_ZN11Performance7CompareEv+0xaa6>
  4043f0:	48 8d 74 24 1f       	lea    0x1f(%rsp),%rsi
  4043f5:	48 89 df             	mov    %rbx,%rdi
  4043f8:	e8 a3 ca ff ff       	callq  400ea0 <_ZNSs4_Rep10_M_destroyERKSaIcE@plt>
  4043fd:	e9 e4 f9 ff ff       	jmpq   403de6 <_ZN11Performance7CompareEv+0xaa6>
  404402:	48 8d 7b 10          	lea    0x10(%rbx),%rdi
  404406:	e8 b5 cb ff ff       	callq  400fc0 <_ZN9__gnu_cxxL27__exchange_and_add_dispatchEPii.constprop.84>
  40440b:	85 c0                	test   %eax,%eax
  40440d:	0f 8f bd f9 ff ff    	jg     403dd0 <_ZN11Performance7CompareEv+0xa90>
  404413:	48 8d 74 24 1f       	lea    0x1f(%rsp),%rsi
  404418:	48 89 df             	mov    %rbx,%rdi
  40441b:	e8 80 ca ff ff       	callq  400ea0 <_ZNSs4_Rep10_M_destroyERKSaIcE@plt>
  404420:	e9 ab f9 ff ff       	jmpq   403dd0 <_ZN11Performance7CompareEv+0xa90>
  404425:	49 89 c1             	mov    %rax,%r9
  404428:	b9 5d 00 00 00       	mov    $0x5d,%ecx
  40442d:	e9 f7 ef ff ff       	jmpq   403429 <_ZN11Performance7CompareEv+0xe9>
  404432:	e9 1b ff ff ff       	jmpq   404352 <_ZN11Performance7CompareEv+0x1012>
  404437:	48 89 c3             	mov    %rax,%rbx
  40443a:	48 8d 7c 24 60       	lea    0x60(%rsp),%rdi
  40443f:	e8 3c ca ff ff       	callq  400e80 <_ZNSsD1Ev@plt>
  404444:	e9 d9 fc ff ff       	jmpq   404122 <_ZN11Performance7CompareEv+0xde2>
  404449:	48 89 c3             	mov    %rax,%rbx
  40444c:	48 8d 7c 24 50       	lea    0x50(%rsp),%rdi
  404451:	e8 2a ca ff ff       	callq  400e80 <_ZNSsD1Ev@plt>
  404456:	e9 c7 fc ff ff       	jmpq   404122 <_ZN11Performance7CompareEv+0xde2>
  40445b:	48 8d bc 24 a0 00 00 	lea    0xa0(%rsp),%rdi
  404462:	00 
  404463:	48 89 c3             	mov    %rax,%rbx
  404466:	e8 65 e0 ff ff       	callq  4024d0 <_ZZN11Performance7CompareEvEN6resultD1Ev>
  40446b:	e9 4e fe ff ff       	jmpq   4042be <_ZN11Performance7CompareEv+0xf7e>
  404470:	48 8d bc 24 c0 00 00 	lea    0xc0(%rsp),%rdi
  404477:	00 
  404478:	48 89 c3             	mov    %rax,%rbx
  40447b:	e8 50 e0 ff ff       	callq  4024d0 <_ZZN11Performance7CompareEvEN6resultD1Ev>
  404480:	eb b8                	jmp    40443a <_ZN11Performance7CompareEv+0x10fa>
  404482:	48 8d bc 24 d0 00 00 	lea    0xd0(%rsp),%rdi
  404489:	00 
  40448a:	48 89 c3             	mov    %rax,%rbx
  40448d:	e8 3e e0 ff ff       	callq  4024d0 <_ZZN11Performance7CompareEvEN6resultD1Ev>
  404492:	e9 ce fd ff ff       	jmpq   404265 <_ZN11Performance7CompareEv+0xf25>
  404497:	48 8d bc 24 b0 00 00 	lea    0xb0(%rsp),%rdi
  40449e:	00 
  40449f:	48 89 c3             	mov    %rax,%rbx
  4044a2:	e8 29 e0 ff ff       	callq  4024d0 <_ZZN11Performance7CompareEvEN6resultD1Ev>
  4044a7:	eb a3                	jmp    40444c <_ZN11Performance7CompareEv+0x110c>
  4044a9:	48 8d 7b 10          	lea    0x10(%rbx),%rdi
  4044ad:	e8 0e cb ff ff       	callq  400fc0 <_ZN9__gnu_cxxL27__exchange_and_add_dispatchEPii.constprop.84>
  4044b2:	85 c0                	test   %eax,%eax
  4044b4:	0f 8f 03 fb ff ff    	jg     403fbd <_ZN11Performance7CompareEv+0xc7d>
  4044ba:	48 8d 74 24 1f       	lea    0x1f(%rsp),%rsi
  4044bf:	48 89 df             	mov    %rbx,%rdi
  4044c2:	e8 d9 c9 ff ff       	callq  400ea0 <_ZNSs4_Rep10_M_destroyERKSaIcE@plt>
  4044c7:	e9 f1 fa ff ff       	jmpq   403fbd <_ZN11Performance7CompareEv+0xc7d>
  4044cc:	48 8d 7d 10          	lea    0x10(%rbp),%rdi
  4044d0:	e8 eb ca ff ff       	callq  400fc0 <_ZN9__gnu_cxxL27__exchange_and_add_dispatchEPii.constprop.84>
  4044d5:	85 c0                	test   %eax,%eax
  4044d7:	0f 8f 74 f9 ff ff    	jg     403e51 <_ZN11Performance7CompareEv+0xb11>
  4044dd:	48 8d 74 24 1f       	lea    0x1f(%rsp),%rsi
  4044e2:	48 89 ef             	mov    %rbp,%rdi
  4044e5:	e8 b6 c9 ff ff       	callq  400ea0 <_ZNSs4_Rep10_M_destroyERKSaIcE@plt>
  4044ea:	e9 62 f9 ff ff       	jmpq   403e51 <_ZN11Performance7CompareEv+0xb11>
  4044ef:	48 8d 7b 10          	lea    0x10(%rbx),%rdi
  4044f3:	e8 c8 ca ff ff       	callq  400fc0 <_ZN9__gnu_cxxL27__exchange_and_add_dispatchEPii.constprop.84>
  4044f8:	85 c0                	test   %eax,%eax
  4044fa:	0f 8f 21 fb ff ff    	jg     404021 <_ZN11Performance7CompareEv+0xce1>
  404500:	48 8d 74 24 1f       	lea    0x1f(%rsp),%rsi
  404505:	48 89 df             	mov    %rbx,%rdi
  404508:	e8 93 c9 ff ff       	callq  400ea0 <_ZNSs4_Rep10_M_destroyERKSaIcE@plt>
  40450d:	e9 0f fb ff ff       	jmpq   404021 <_ZN11Performance7CompareEv+0xce1>
  404512:	48 8d 7b 10          	lea    0x10(%rbx),%rdi
  404516:	e8 a5 ca ff ff       	callq  400fc0 <_ZN9__gnu_cxxL27__exchange_and_add_dispatchEPii.constprop.84>
  40451b:	85 c0                	test   %eax,%eax
  40451d:	0f 8f e5 fa ff ff    	jg     404008 <_ZN11Performance7CompareEv+0xcc8>
  404523:	48 8d 74 24 1f       	lea    0x1f(%rsp),%rsi
  404528:	48 89 df             	mov    %rbx,%rdi
  40452b:	e8 70 c9 ff ff       	callq  400ea0 <_ZNSs4_Rep10_M_destroyERKSaIcE@plt>
  404530:	e9 d3 fa ff ff       	jmpq   404008 <_ZN11Performance7CompareEv+0xcc8>
  404535:	48 8d 7b 10          	lea    0x10(%rbx),%rdi
  404539:	e8 82 ca ff ff       	callq  400fc0 <_ZN9__gnu_cxxL27__exchange_and_add_dispatchEPii.constprop.84>
  40453e:	85 c0                	test   %eax,%eax
  404540:	0f 8f a9 fa ff ff    	jg     403fef <_ZN11Performance7CompareEv+0xcaf>
  404546:	48 8d 74 24 1f       	lea    0x1f(%rsp),%rsi
  40454b:	48 89 df             	mov    %rbx,%rdi
  40454e:	e8 4d c9 ff ff       	callq  400ea0 <_ZNSs4_Rep10_M_destroyERKSaIcE@plt>
  404553:	e9 97 fa ff ff       	jmpq   403fef <_ZN11Performance7CompareEv+0xcaf>
  404558:	48 8d 7b 10          	lea    0x10(%rbx),%rdi
  40455c:	e8 5f ca ff ff       	callq  400fc0 <_ZN9__gnu_cxxL27__exchange_and_add_dispatchEPii.constprop.84>
  404561:	85 c0                	test   %eax,%eax
  404563:	0f 8f 6d fa ff ff    	jg     403fd6 <_ZN11Performance7CompareEv+0xc96>
  404569:	48 8d 74 24 1f       	lea    0x1f(%rsp),%rsi
  40456e:	48 89 df             	mov    %rbx,%rdi
  404571:	e8 2a c9 ff ff       	callq  400ea0 <_ZNSs4_Rep10_M_destroyERKSaIcE@plt>
  404576:	e9 5b fa ff ff       	jmpq   403fd6 <_ZN11Performance7CompareEv+0xc96>
  40457b:	90                   	nop
  40457c:	90                   	nop
  40457d:	90                   	nop
  40457e:	90                   	nop
  40457f:	90                   	nop

0000000000404580 <_ZNSt6vectorIiSaIiEED1Ev>:
  404580:	48 8b 3f             	mov    (%rdi),%rdi
  404583:	48 85 ff             	test   %rdi,%rdi
  404586:	74 08                	je     404590 <_ZNSt6vectorIiSaIiEED1Ev+0x10>
  404588:	e9 83 c8 ff ff       	jmpq   400e10 <_ZdlPv@plt>
  40458d:	0f 1f 00             	nopl   (%rax)
  404590:	f3 c3                	repz retq 
  404592:	90                   	nop
  404593:	90                   	nop
  404594:	90                   	nop
  404595:	90                   	nop
  404596:	90                   	nop
  404597:	90                   	nop
  404598:	90                   	nop
  404599:	90                   	nop
  40459a:	90                   	nop
  40459b:	90                   	nop
  40459c:	90                   	nop
  40459d:	90                   	nop
  40459e:	90                   	nop
  40459f:	90                   	nop

00000000004045a0 <_ZNSt24uniform_int_distributionImEclISt26linear_congruential_engineImLm16807ELm0ELm2147483647EEEEmRT_RKNS0_10param_typeE>:
  4045a0:	41 57                	push   %r15
  4045a2:	41 56                	push   %r14
  4045a4:	49 89 f6             	mov    %rsi,%r14
  4045a7:	41 55                	push   %r13
  4045a9:	41 54                	push   %r12
  4045ab:	55                   	push   %rbp
  4045ac:	48 89 fd             	mov    %rdi,%rbp
  4045af:	53                   	push   %rbx
  4045b0:	48 89 d3             	mov    %rdx,%rbx
  4045b3:	48 83 ec 18          	sub    $0x18,%rsp
  4045b7:	48 8b 3a             	mov    (%rdx),%rdi
  4045ba:	4c 8b 7a 08          	mov    0x8(%rdx),%r15
  4045be:	49 29 ff             	sub    %rdi,%r15
  4045c1:	49 81 ff fc ff ff 7f 	cmp    $0x7ffffffc,%r15
  4045c8:	77 7e                	ja     404648 <_ZNSt24uniform_int_distributionImEclISt26linear_congruential_engineImLm16807ELm0ELm2147483647EEEEmRT_RKNS0_10param_typeE+0xa8>
  4045ca:	49 83 c7 01          	add    $0x1,%r15
  4045ce:	b8 fd ff ff 7f       	mov    $0x7ffffffd,%eax
  4045d3:	31 d2                	xor    %edx,%edx
  4045d5:	49 f7 f7             	div    %r15
  4045d8:	48 8b 0e             	mov    (%rsi),%rcx
  4045db:	49 b8 79 fb e3 1f af 	mov    $0x41a705af1fe3fb79,%r8
  4045e2:	05 a7 41 
  4045e5:	4c 0f af f8          	imul   %rax,%r15
  4045e9:	49 89 c1             	mov    %rax,%r9
  4045ec:	0f 1f 40 00          	nopl   0x0(%rax)
  4045f0:	48 89 c8             	mov    %rcx,%rax
  4045f3:	49 f7 e0             	mul    %r8
  4045f6:	48 c1 ea 0f          	shr    $0xf,%rdx
  4045fa:	48 69 f2 1d f3 01 00 	imul   $0x1f31d,%rdx,%rsi
  404601:	48 69 d2 14 0b 00 00 	imul   $0xb14,%rdx,%rdx
  404608:	48 29 f1             	sub    %rsi,%rcx
  40460b:	48 69 c9 a7 41 00 00 	imul   $0x41a7,%rcx,%rcx
  404612:	48 39 d1             	cmp    %rdx,%rcx
  404615:	73 07                	jae    40461e <_ZNSt24uniform_int_distributionImEclISt26linear_congruential_engineImLm16807ELm0ELm2147483647EEEEmRT_RKNS0_10param_typeE+0x7e>
  404617:	48 81 c1 ff ff ff 7f 	add    $0x7fffffff,%rcx
  40461e:	48 29 d1             	sub    %rdx,%rcx
  404621:	48 8d 41 ff          	lea    -0x1(%rcx),%rax
  404625:	49 39 c7             	cmp    %rax,%r15
  404628:	76 c6                	jbe    4045f0 <_ZNSt24uniform_int_distributionImEclISt26linear_congruential_engineImLm16807ELm0ELm2147483647EEEEmRT_RKNS0_10param_typeE+0x50>
  40462a:	31 d2                	xor    %edx,%edx
  40462c:	49 89 0e             	mov    %rcx,(%r14)
  40462f:	49 f7 f1             	div    %r9
  404632:	48 83 c4 18          	add    $0x18,%rsp
  404636:	48 01 f8             	add    %rdi,%rax
  404639:	5b                   	pop    %rbx
  40463a:	5d                   	pop    %rbp
  40463b:	41 5c                	pop    %r12
  40463d:	41 5d                	pop    %r13
  40463f:	41 5e                	pop    %r14
  404641:	41 5f                	pop    %r15
  404643:	c3                   	retq   
  404644:	0f 1f 40 00          	nopl   0x0(%rax)
  404648:	49 81 ff fd ff ff 7f 	cmp    $0x7ffffffd,%r15
  40464f:	0f 84 ab 00 00 00    	je     404700 <_ZNSt24uniform_int_distributionImEclISt26linear_congruential_engineImLm16807ELm0ELm2147483647EEEEmRT_RKNS0_10param_typeE+0x160>
  404655:	4d 89 fc             	mov    %r15,%r12
  404658:	48 b9 09 00 00 00 02 	mov    $0x8000000200000009,%rcx
  40465f:	00 00 80 
  404662:	49 bd 79 fb e3 1f af 	mov    $0x41a705af1fe3fb79,%r13
  404669:	05 a7 41 
  40466c:	49 d1 ec             	shr    %r12
  40466f:	4c 89 e0             	mov    %r12,%rax
  404672:	48 f7 e1             	mul    %rcx
  404675:	49 89 d4             	mov    %rdx,%r12
  404678:	49 c1 ec 1d          	shr    $0x1d,%r12
  40467c:	0f 1f 40 00          	nopl   0x0(%rax)
  404680:	48 89 e2             	mov    %rsp,%rdx
  404683:	4c 89 f6             	mov    %r14,%rsi
  404686:	48 89 ef             	mov    %rbp,%rdi
  404689:	48 c7 04 24 00 00 00 	movq   $0x0,(%rsp)
  404690:	00 
  404691:	4c 89 64 24 08       	mov    %r12,0x8(%rsp)
  404696:	e8 05 ff ff ff       	callq  4045a0 <_ZNSt24uniform_int_distributionImEclISt26linear_congruential_engineImLm16807ELm0ELm2147483647EEEEmRT_RKNS0_10param_typeE>
  40469b:	49 8b 36             	mov    (%r14),%rsi
  40469e:	48 8d 14 00          	lea    (%rax,%rax,1),%rdx
  4046a2:	48 89 c1             	mov    %rax,%rcx
  4046a5:	48 c1 e1 1f          	shl    $0x1f,%rcx
  4046a9:	48 29 d1             	sub    %rdx,%rcx
  4046ac:	48 89 f0             	mov    %rsi,%rax
  4046af:	49 f7 e5             	mul    %r13
  4046b2:	48 c1 ea 0f          	shr    $0xf,%rdx
  4046b6:	48 69 c2 1d f3 01 00 	imul   $0x1f31d,%rdx,%rax
  4046bd:	4c 69 c2 14 0b 00 00 	imul   $0xb14,%rdx,%r8
  4046c4:	48 29 c6             	sub    %rax,%rsi
  4046c7:	48 69 c6 a7 41 00 00 	imul   $0x41a7,%rsi,%rax
  4046ce:	4c 39 c0             	cmp    %r8,%rax
  4046d1:	73 06                	jae    4046d9 <_ZNSt24uniform_int_distributionImEclISt26linear_congruential_engineImLm16807ELm0ELm2147483647EEEEmRT_RKNS0_10param_typeE+0x139>
  4046d3:	48 05 ff ff ff 7f    	add    $0x7fffffff,%rax
  4046d9:	4c 29 c0             	sub    %r8,%rax
  4046dc:	49 89 06             	mov    %rax,(%r14)
  4046df:	48 8d 44 08 ff       	lea    -0x1(%rax,%rcx,1),%rax
  4046e4:	48 39 c8             	cmp    %rcx,%rax
  4046e7:	72 97                	jb     404680 <_ZNSt24uniform_int_distributionImEclISt26linear_congruential_engineImLm16807ELm0ELm2147483647EEEEmRT_RKNS0_10param_typeE+0xe0>
  4046e9:	4c 39 f8             	cmp    %r15,%rax
  4046ec:	77 92                	ja     404680 <_ZNSt24uniform_int_distributionImEclISt26linear_congruential_engineImLm16807ELm0ELm2147483647EEEEmRT_RKNS0_10param_typeE+0xe0>
  4046ee:	48 8b 3b             	mov    (%rbx),%rdi
  4046f1:	e9 3c ff ff ff       	jmpq   404632 <_ZNSt24uniform_int_distributionImEclISt26linear_congruential_engineImLm16807ELm0ELm2147483647EEEEmRT_RKNS0_10param_typeE+0x92>
  4046f6:	66 2e 0f 1f 84 00 00 	nopw   %cs:0x0(%rax,%rax,1)
  4046fd:	00 00 00 
  404700:	48 8b 0e             	mov    (%rsi),%rcx
  404703:	48 ba 79 fb e3 1f af 	mov    $0x41a705af1fe3fb79,%rdx
  40470a:	05 a7 41 
  40470d:	48 89 c8             	mov    %rcx,%rax
  404710:	48 f7 e2             	mul    %rdx
  404713:	48 c1 ea 0f          	shr    $0xf,%rdx
  404717:	48 69 c2 1d f3 01 00 	imul   $0x1f31d,%rdx,%rax
  40471e:	48 69 d2 14 0b 00 00 	imul   $0xb14,%rdx,%rdx
  404725:	48 29 c1             	sub    %rax,%rcx
  404728:	48 69 c1 a7 41 00 00 	imul   $0x41a7,%rcx,%rax
  40472f:	48 39 d0             	cmp    %rdx,%rax
  404732:	72 14                	jb     404748 <_ZNSt24uniform_int_distributionImEclISt26linear_congruential_engineImLm16807ELm0ELm2147483647EEEEmRT_RKNS0_10param_typeE+0x1a8>
  404734:	48 29 d0             	sub    %rdx,%rax
  404737:	49 89 06             	mov    %rax,(%r14)
  40473a:	48 83 e8 01          	sub    $0x1,%rax
  40473e:	e9 ef fe ff ff       	jmpq   404632 <_ZNSt24uniform_int_distributionImEclISt26linear_congruential_engineImLm16807ELm0ELm2147483647EEEEmRT_RKNS0_10param_typeE+0x92>
  404743:	0f 1f 44 00 00       	nopl   0x0(%rax,%rax,1)
  404748:	48 05 ff ff ff 7f    	add    $0x7fffffff,%rax
  40474e:	48 29 d0             	sub    %rdx,%rax
  404751:	49 89 06             	mov    %rax,(%r14)
  404754:	48 83 e8 01          	sub    $0x1,%rax
  404758:	e9 d5 fe ff ff       	jmpq   404632 <_ZNSt24uniform_int_distributionImEclISt26linear_congruential_engineImLm16807ELm0ELm2147483647EEEEmRT_RKNS0_10param_typeE+0x92>
  40475d:	90                   	nop
  40475e:	90                   	nop
  40475f:	90                   	nop

0000000000404760 <_ZNSt23mersenne_twister_engineImLm32ELm624ELm397ELm31ELm2567483615ELm11ELm4294967295ELm7ELm2636928640ELm15ELm4022730752ELm18ELm1812433253EEclEv>:
  404760:	48 8b 87 80 13 00 00 	mov    0x1380(%rdi),%rax
  404767:	48 3d 6f 02 00 00    	cmp    $0x26f,%rax
  40476d:	0f 86 3f 01 00 00    	jbe    4048b2 <_ZNSt23mersenne_twister_engineImLm32ELm624ELm397ELm31ELm2567483615ELm11ELm4294967295ELm7ELm2636928640ELm15ELm4022730752ELm18ELm1812433253EEclEv+0x152>
  404773:	4c 8b 07             	mov    (%rdi),%r8
  404776:	48 8d 57 08          	lea    0x8(%rdi),%rdx
  40477a:	31 f6                	xor    %esi,%esi
  40477c:	41 ba df b0 08 99    	mov    $0x9908b0df,%r10d
  404782:	45 31 c9             	xor    %r9d,%r9d
  404785:	0f 1f 00             	nopl   (%rax)
  404788:	4c 89 c0             	mov    %r8,%rax
  40478b:	4c 8b 02             	mov    (%rdx),%r8
  40478e:	48 83 c6 01          	add    $0x1,%rsi
  404792:	48 25 00 00 00 80    	and    $0xffffffff80000000,%rax
  404798:	4c 89 c1             	mov    %r8,%rcx
  40479b:	81 e1 ff ff ff 7f    	and    $0x7fffffff,%ecx
  4047a1:	48 09 c1             	or     %rax,%rcx
  4047a4:	4c 89 c8             	mov    %r9,%rax
  4047a7:	f6 c1 01             	test   $0x1,%cl
  4047aa:	49 0f 45 c2          	cmovne %r10,%rax
  4047ae:	48 33 82 60 0c 00 00 	xor    0xc60(%rdx),%rax
  4047b5:	48 d1 e9             	shr    %rcx
  4047b8:	48 31 c8             	xor    %rcx,%rax
  4047bb:	48 89 42 f8          	mov    %rax,-0x8(%rdx)
  4047bf:	48 83 c2 08          	add    $0x8,%rdx
  4047c3:	48 81 fe e3 00 00 00 	cmp    $0xe3,%rsi
  4047ca:	75 bc                	jne    404788 <_ZNSt23mersenne_twister_engineImLm32ELm624ELm397ELm31ELm2567483615ELm11ELm4294967295ELm7ELm2636928640ELm15ELm4022730752ELm18ELm1812433253EEclEv+0x28>
  4047cc:	4c 8b 87 18 07 00 00 	mov    0x718(%rdi),%r8
  4047d3:	48 8d 97 20 07 00 00 	lea    0x720(%rdi),%rdx
  4047da:	41 ba df b0 08 99    	mov    $0x9908b0df,%r10d
  4047e0:	45 31 c9             	xor    %r9d,%r9d
  4047e3:	0f 1f 44 00 00       	nopl   0x0(%rax,%rax,1)
  4047e8:	4c 89 c0             	mov    %r8,%rax
  4047eb:	4c 8b 02             	mov    (%rdx),%r8
  4047ee:	48 83 c6 01          	add    $0x1,%rsi
  4047f2:	48 25 00 00 00 80    	and    $0xffffffff80000000,%rax
  4047f8:	4c 89 c1             	mov    %r8,%rcx
  4047fb:	81 e1 ff ff ff 7f    	and    $0x7fffffff,%ecx
  404801:	48 09 c1             	or     %rax,%rcx
  404804:	4c 89 c8             	mov    %r9,%rax
  404807:	f6 c1 01             	test   $0x1,%cl
  40480a:	49 0f 45 c2          	cmovne %r10,%rax
  40480e:	48 33 82 e0 f8 ff ff 	xor    -0x720(%rdx),%rax
  404815:	48 d1 e9             	shr    %rcx
  404818:	48 31 c8             	xor    %rcx,%rax
  40481b:	48 89 42 f8          	mov    %rax,-0x8(%rdx)
  40481f:	48 83 c2 08          	add    $0x8,%rdx
  404823:	48 81 fe 6f 02 00 00 	cmp    $0x26f,%rsi
  40482a:	75 bc                	jne    4047e8 <_ZNSt23mersenne_twister_engineImLm32ELm624ELm397ELm31ELm2567483615ELm11ELm4294967295ELm7ELm2636928640ELm15ELm4022730752ELm18ELm1812433253EEclEv+0x88>
  40482c:	48 8b 0f             	mov    (%rdi),%rcx
  40482f:	48 8b 87 78 13 00 00 	mov    0x1378(%rdi),%rax
  404836:	be df b0 08 99       	mov    $0x9908b0df,%esi
  40483b:	48 89 ca             	mov    %rcx,%rdx
  40483e:	48 25 00 00 00 80    	and    $0xffffffff80000000,%rax
  404844:	81 e2 ff ff ff 7f    	and    $0x7fffffff,%edx
  40484a:	48 09 c2             	or     %rax,%rdx
  40484d:	48 89 d0             	mov    %rdx,%rax
  404850:	48 d1 e8             	shr    %rax
  404853:	48 33 87 60 0c 00 00 	xor    0xc60(%rdi),%rax
  40485a:	83 e2 01             	and    $0x1,%edx
  40485d:	ba 00 00 00 00       	mov    $0x0,%edx
  404862:	48 0f 44 f2          	cmove  %rdx,%rsi
  404866:	48 31 f0             	xor    %rsi,%rax
  404869:	48 89 87 78 13 00 00 	mov    %rax,0x1378(%rdi)
  404870:	b8 01 00 00 00       	mov    $0x1,%eax
  404875:	48 89 ca             	mov    %rcx,%rdx
  404878:	48 89 87 80 13 00 00 	mov    %rax,0x1380(%rdi)
  40487f:	48 c1 ea 0b          	shr    $0xb,%rdx
  404883:	89 d2                	mov    %edx,%edx
  404885:	48 31 ca             	xor    %rcx,%rdx
  404888:	48 89 d0             	mov    %rdx,%rax
  40488b:	48 c1 e0 07          	shl    $0x7,%rax
  40488f:	25 80 56 2c 9d       	and    $0x9d2c5680,%eax
  404894:	48 31 d0             	xor    %rdx,%rax
  404897:	48 89 c2             	mov    %rax,%rdx
  40489a:	48 c1 e2 0f          	shl    $0xf,%rdx
  40489e:	81 e2 00 00 c6 ef    	and    $0xefc60000,%edx
  4048a4:	48 31 c2             	xor    %rax,%rdx
  4048a7:	48 89 d0             	mov    %rdx,%rax
  4048aa:	48 c1 e8 12          	shr    $0x12,%rax
  4048ae:	48 31 d0             	xor    %rdx,%rax
  4048b1:	c3                   	retq   
  4048b2:	48 8b 0c c7          	mov    (%rdi,%rax,8),%rcx
  4048b6:	48 83 c0 01          	add    $0x1,%rax
  4048ba:	eb b9                	jmp    404875 <_ZNSt23mersenne_twister_engineImLm32ELm624ELm397ELm31ELm2567483615ELm11ELm4294967295ELm7ELm2636928640ELm15ELm4022730752ELm18ELm1812433253EEclEv+0x115>
  4048bc:	90                   	nop
  4048bd:	90                   	nop
  4048be:	90                   	nop
  4048bf:	90                   	nop

00000000004048c0 <_ZNSt24uniform_int_distributionImEclISt23mersenne_twister_engineImLm32ELm624ELm397ELm31ELm2567483615ELm11ELm4294967295ELm7ELm2636928640ELm15ELm4022730752ELm18ELm1812433253EEEEmRT_RKNS0_10param_typeE>:
  4048c0:	41 57                	push   %r15
  4048c2:	b8 fe ff ff ff       	mov    $0xfffffffe,%eax
  4048c7:	41 56                	push   %r14
  4048c9:	49 89 d6             	mov    %rdx,%r14
  4048cc:	41 55                	push   %r13
  4048ce:	41 54                	push   %r12
  4048d0:	55                   	push   %rbp
  4048d1:	53                   	push   %rbx
  4048d2:	48 89 f3             	mov    %rsi,%rbx
  4048d5:	48 83 ec 18          	sub    $0x18,%rsp
  4048d9:	4c 8b 62 08          	mov    0x8(%rdx),%r12
  4048dd:	4c 2b 22             	sub    (%rdx),%r12
  4048e0:	49 39 c4             	cmp    %rax,%r12
  4048e3:	77 43                	ja     404928 <_ZNSt24uniform_int_distributionImEclISt23mersenne_twister_engineImLm32ELm624ELm397ELm31ELm2567483615ELm11ELm4294967295ELm7ELm2636928640ELm15ELm4022730752ELm18ELm1812433253EEEEmRT_RKNS0_10param_typeE+0x68>
  4048e5:	49 83 c4 01          	add    $0x1,%r12
  4048e9:	b0 ff                	mov    $0xff,%al
  4048eb:	31 d2                	xor    %edx,%edx
  4048ed:	49 f7 f4             	div    %r12
  4048f0:	4c 0f af e0          	imul   %rax,%r12
  4048f4:	48 89 c5             	mov    %rax,%rbp
  4048f7:	66 0f 1f 84 00 00 00 	nopw   0x0(%rax,%rax,1)
  4048fe:	00 00 
  404900:	48 89 df             	mov    %rbx,%rdi
  404903:	e8 58 fe ff ff       	callq  404760 <_ZNSt23mersenne_twister_engineImLm32ELm624ELm397ELm31ELm2567483615ELm11ELm4294967295ELm7ELm2636928640ELm15ELm4022730752ELm18ELm1812433253EEclEv>
  404908:	49 39 c4             	cmp    %rax,%r12
  40490b:	76 f3                	jbe    404900 <_ZNSt24uniform_int_distributionImEclISt23mersenne_twister_engineImLm32ELm624ELm397ELm31ELm2567483615ELm11ELm4294967295ELm7ELm2636928640ELm15ELm4022730752ELm18ELm1812433253EEEEmRT_RKNS0_10param_typeE+0x40>
  40490d:	31 d2                	xor    %edx,%edx
  40490f:	48 f7 f5             	div    %rbp
  404912:	49 03 06             	add    (%r14),%rax
  404915:	48 83 c4 18          	add    $0x18,%rsp
  404919:	5b                   	pop    %rbx
  40491a:	5d                   	pop    %rbp
  40491b:	41 5c                	pop    %r12
  40491d:	41 5d                	pop    %r13
  40491f:	41 5e                	pop    %r14
  404921:	41 5f                	pop    %r15
  404923:	c3                   	retq   
  404924:	0f 1f 40 00          	nopl   0x0(%rax)
  404928:	41 bd ff ff ff ff    	mov    $0xffffffff,%r13d
  40492e:	4d 39 ec             	cmp    %r13,%r12
  404931:	74 65                	je     404998 <_ZNSt24uniform_int_distributionImEclISt23mersenne_twister_engineImLm32ELm624ELm397ELm31ELm2567483615ELm11ELm4294967295ELm7ELm2636928640ELm15ELm4022730752ELm18ELm1812433253EEEEmRT_RKNS0_10param_typeE+0xd8>
  404933:	4d 89 e7             	mov    %r12,%r15
  404936:	49 c1 ef 20          	shr    $0x20,%r15
  40493a:	49 8d 47 01          	lea    0x1(%r15),%rax
  40493e:	48 89 44 24 08       	mov    %rax,0x8(%rsp)
  404943:	eb 1f                	jmp    404964 <_ZNSt24uniform_int_distributionImEclISt23mersenne_twister_engineImLm32ELm624ELm397ELm31ELm2567483615ELm11ELm4294967295ELm7ELm2636928640ELm15ELm4022730752ELm18ELm1812433253EEEEmRT_RKNS0_10param_typeE+0xa4>
  404945:	0f 1f 00             	nopl   (%rax)
  404948:	48 89 df             	mov    %rbx,%rdi
  40494b:	e8 10 fe ff ff       	callq  404760 <_ZNSt23mersenne_twister_engineImLm32ELm624ELm397ELm31ELm2567483615ELm11ELm4294967295ELm7ELm2636928640ELm15ELm4022730752ELm18ELm1812433253EEclEv>
  404950:	48 89 c5             	mov    %rax,%rbp
  404953:	48 89 df             	mov    %rbx,%rdi
  404956:	48 c1 e5 20          	shl    $0x20,%rbp
  40495a:	e8 01 fe ff ff       	callq  404760 <_ZNSt23mersenne_twister_engineImLm32ELm624ELm397ELm31ELm2567483615ELm11ELm4294967295ELm7ELm2636928640ELm15ELm4022730752ELm18ELm1812433253EEclEv>
  40495f:	48 01 e8             	add    %rbp,%rax
  404962:	73 44                	jae    4049a8 <_ZNSt24uniform_int_distributionImEclISt23mersenne_twister_engineImLm32ELm624ELm397ELm31ELm2567483615ELm11ELm4294967295ELm7ELm2636928640ELm15ELm4022730752ELm18ELm1812433253EEEEmRT_RKNS0_10param_typeE+0xe8>
  404964:	4d 39 ef             	cmp    %r13,%r15
  404967:	74 df                	je     404948 <_ZNSt24uniform_int_distributionImEclISt23mersenne_twister_engineImLm32ELm624ELm397ELm31ELm2567483615ELm11ELm4294967295ELm7ELm2636928640ELm15ELm4022730752ELm18ELm1812433253EEEEmRT_RKNS0_10param_typeE+0x88>
  404969:	4c 89 e8             	mov    %r13,%rax
  40496c:	31 d2                	xor    %edx,%edx
  40496e:	48 f7 74 24 08       	divq   0x8(%rsp)
  404973:	48 89 c5             	mov    %rax,%rbp
  404976:	48 89 04 24          	mov    %rax,(%rsp)
  40497a:	48 0f af 6c 24 08    	imul   0x8(%rsp),%rbp
  404980:	48 89 df             	mov    %rbx,%rdi
  404983:	e8 d8 fd ff ff       	callq  404760 <_ZNSt23mersenne_twister_engineImLm32ELm624ELm397ELm31ELm2567483615ELm11ELm4294967295ELm7ELm2636928640ELm15ELm4022730752ELm18ELm1812433253EEclEv>
  404988:	48 39 c5             	cmp    %rax,%rbp
  40498b:	76 f3                	jbe    404980 <_ZNSt24uniform_int_distributionImEclISt23mersenne_twister_engineImLm32ELm624ELm397ELm31ELm2567483615ELm11ELm4294967295ELm7ELm2636928640ELm15ELm4022730752ELm18ELm1812433253EEEEmRT_RKNS0_10param_typeE+0xc0>
  40498d:	31 d2                	xor    %edx,%edx
  40498f:	48 f7 34 24          	divq   (%rsp)
  404993:	eb bb                	jmp    404950 <_ZNSt24uniform_int_distributionImEclISt23mersenne_twister_engineImLm32ELm624ELm397ELm31ELm2567483615ELm11ELm4294967295ELm7ELm2636928640ELm15ELm4022730752ELm18ELm1812433253EEEEmRT_RKNS0_10param_typeE+0x90>
  404995:	0f 1f 00             	nopl   (%rax)
  404998:	48 89 f7             	mov    %rsi,%rdi
  40499b:	e8 c0 fd ff ff       	callq  404760 <_ZNSt23mersenne_twister_engineImLm32ELm624ELm397ELm31ELm2567483615ELm11ELm4294967295ELm7ELm2636928640ELm15ELm4022730752ELm18ELm1812433253EEclEv>
  4049a0:	e9 6d ff ff ff       	jmpq   404912 <_ZNSt24uniform_int_distributionImEclISt23mersenne_twister_engineImLm32ELm624ELm397ELm31ELm2567483615ELm11ELm4294967295ELm7ELm2636928640ELm15ELm4022730752ELm18ELm1812433253EEEEmRT_RKNS0_10param_typeE+0x52>
  4049a5:	0f 1f 00             	nopl   (%rax)
  4049a8:	4c 39 e0             	cmp    %r12,%rax
  4049ab:	77 b7                	ja     404964 <_ZNSt24uniform_int_distributionImEclISt23mersenne_twister_engineImLm32ELm624ELm397ELm31ELm2567483615ELm11ELm4294967295ELm7ELm2636928640ELm15ELm4022730752ELm18ELm1812433253EEEEmRT_RKNS0_10param_typeE+0xa4>
  4049ad:	0f 1f 00             	nopl   (%rax)
  4049b0:	e9 5d ff ff ff       	jmpq   404912 <_ZNSt24uniform_int_distributionImEclISt23mersenne_twister_engineImLm32ELm624ELm397ELm31ELm2567483615ELm11ELm4294967295ELm7ELm2636928640ELm15ELm4022730752ELm18ELm1812433253EEEEmRT_RKNS0_10param_typeE+0x52>
  4049b5:	90                   	nop
  4049b6:	90                   	nop
  4049b7:	90                   	nop
  4049b8:	90                   	nop
  4049b9:	90                   	nop
  4049ba:	90                   	nop
  4049bb:	90                   	nop
  4049bc:	90                   	nop
  4049bd:	90                   	nop
  4049be:	90                   	nop
  4049bf:	90                   	nop

00000000004049c0 <_GLOBAL__sub_I__ZN11Performance28TestPerformanceOfOneFunctionERSt6vectorINS_4testESaIS1_EEPFymE>:
  4049c0:	53                   	push   %rbx
  4049c1:	bf f0 64 60 00       	mov    $0x6064f0,%edi
  4049c6:	48 83 ec 10          	sub    $0x10,%rsp
  4049ca:	e8 61 c4 ff ff       	callq  400e30 <_ZNSt8ios_base4InitC1Ev@plt>
  4049cf:	ba 68 4d 40 00       	mov    $0x404d68,%edx
  4049d4:	be f0 64 60 00       	mov    $0x6064f0,%esi
  4049d9:	bf 70 0e 40 00       	mov    $0x400e70,%edi
  4049de:	e8 7d c4 ff ff       	callq  400e60 <__cxa_atexit@plt>
  4049e3:	48 8d 54 24 0f       	lea    0xf(%rsp),%rdx
  4049e8:	be 73 4e 40 00       	mov    $0x404e73,%esi
  4049ed:	bf d8 64 60 00       	mov    $0x6064d8,%edi
  4049f2:	e8 d9 c4 ff ff       	callq  400ed0 <_ZNSsC1EPKcRKSaIcE@plt>
  4049f7:	ba 68 4d 40 00       	mov    $0x404d68,%edx
  4049fc:	be d8 64 60 00       	mov    $0x6064d8,%esi
  404a01:	bf 80 0e 40 00       	mov    $0x400e80,%edi
  404a06:	e8 55 c4 ff ff       	callq  400e60 <__cxa_atexit@plt>
  404a0b:	48 8d 54 24 0f       	lea    0xf(%rsp),%rdx
  404a10:	be 7c 4e 40 00       	mov    $0x404e7c,%esi
  404a15:	bf e0 64 60 00       	mov    $0x6064e0,%edi
  404a1a:	e8 b1 c4 ff ff       	callq  400ed0 <_ZNSsC1EPKcRKSaIcE@plt>
  404a1f:	ba 68 4d 40 00       	mov    $0x404d68,%edx
  404a24:	be e0 64 60 00       	mov    $0x6064e0,%esi
  404a29:	bf 80 0e 40 00       	mov    $0x400e80,%edi
  404a2e:	e8 2d c4 ff ff       	callq  400e60 <__cxa_atexit@plt>
  404a33:	48 8d 54 24 0f       	lea    0xf(%rsp),%rdx
  404a38:	be 85 4e 40 00       	mov    $0x404e85,%esi
  404a3d:	bf d0 64 60 00       	mov    $0x6064d0,%edi
  404a42:	e8 89 c4 ff ff       	callq  400ed0 <_ZNSsC1EPKcRKSaIcE@plt>
  404a47:	ba 68 4d 40 00       	mov    $0x404d68,%edx
  404a4c:	be d0 64 60 00       	mov    $0x6064d0,%esi
  404a51:	bf 80 0e 40 00       	mov    $0x400e80,%edi
  404a56:	e8 05 c4 ff ff       	callq  400e60 <__cxa_atexit@plt>
  404a5b:	48 8d 54 24 0f       	lea    0xf(%rsp),%rdx
  404a60:	be 8a 4e 40 00       	mov    $0x404e8a,%esi
  404a65:	bf f8 64 60 00       	mov    $0x6064f8,%edi
  404a6a:	e8 61 c4 ff ff       	callq  400ed0 <_ZNSsC1EPKcRKSaIcE@plt>
  404a6f:	ba 68 4d 40 00       	mov    $0x404d68,%edx
  404a74:	be f8 64 60 00       	mov    $0x6064f8,%esi
  404a79:	bf 80 0e 40 00       	mov    $0x400e80,%edi
  404a7e:	e8 dd c3 ff ff       	callq  400e60 <__cxa_atexit@plt>
  404a83:	48 8d 54 24 0f       	lea    0xf(%rsp),%rdx
  404a88:	be 50 4e 40 00       	mov    $0x404e50,%esi
  404a8d:	bf 00 65 60 00       	mov    $0x606500,%edi
  404a92:	e8 39 c4 ff ff       	callq  400ed0 <_ZNSsC1EPKcRKSaIcE@plt>
  404a97:	ba 68 4d 40 00       	mov    $0x404d68,%edx
  404a9c:	be 00 65 60 00       	mov    $0x606500,%esi
  404aa1:	bf 80 0e 40 00       	mov    $0x400e80,%edi
  404aa6:	e8 b5 c3 ff ff       	callq  400e60 <__cxa_atexit@plt>
  404aab:	48 8d 54 24 0f       	lea    0xf(%rsp),%rdx
  404ab0:	be 80 4e 40 00       	mov    $0x404e80,%esi
  404ab5:	bf e8 64 60 00       	mov    $0x6064e8,%edi
  404aba:	e8 11 c4 ff ff       	callq  400ed0 <_ZNSsC1EPKcRKSaIcE@plt>
  404abf:	ba 68 4d 40 00       	mov    $0x404d68,%edx
  404ac4:	be e8 64 60 00       	mov    $0x6064e8,%esi
  404ac9:	bf 80 0e 40 00       	mov    $0x400e80,%edi
  404ace:	e8 8d c3 ff ff       	callq  400e60 <__cxa_atexit@plt>
  404ad3:	be d0 64 60 00       	mov    $0x6064d0,%esi
  404ad8:	bf c8 64 60 00       	mov    $0x6064c8,%edi
  404add:	e8 6e c3 ff ff       	callq  400e50 <_ZNSsC1ERKSs@plt>
  404ae2:	ba 05 00 00 00       	mov    $0x5,%edx
  404ae7:	be 92 4e 40 00       	mov    $0x404e92,%esi
  404aec:	bf c8 64 60 00       	mov    $0x6064c8,%edi
  404af1:	e8 ea c2 ff ff       	callq  400de0 <_ZNSs6appendEPKcm@plt>
  404af6:	ba 68 4d 40 00       	mov    $0x404d68,%edx
  404afb:	be c8 64 60 00       	mov    $0x6064c8,%esi
  404b00:	bf 80 0e 40 00       	mov    $0x400e80,%edi
  404b05:	e8 56 c3 ff ff       	callq  400e60 <__cxa_atexit@plt>
  404b0a:	48 83 c4 10          	add    $0x10,%rsp
  404b0e:	5b                   	pop    %rbx
  404b0f:	c3                   	retq   
  404b10:	48 89 c3             	mov    %rax,%rbx
  404b13:	bf c8 64 60 00       	mov    $0x6064c8,%edi
  404b18:	e8 63 c3 ff ff       	callq  400e80 <_ZNSsD1Ev@plt>
  404b1d:	48 89 df             	mov    %rbx,%rdi
  404b20:	e8 6b c4 ff ff       	callq  400f90 <_Unwind_Resume@plt>
  404b25:	90                   	nop
  404b26:	90                   	nop
  404b27:	90                   	nop
  404b28:	90                   	nop
  404b29:	90                   	nop
  404b2a:	90                   	nop
  404b2b:	90                   	nop
  404b2c:	90                   	nop
  404b2d:	90                   	nop
  404b2e:	90                   	nop
  404b2f:	90                   	nop

0000000000404b30 <_ZN20matrixMultiplication6matpowERNS_6MatrixILm2ELm2EyEERKS1_m>:
  404b30:	48 89 5c 24 e8       	mov    %rbx,-0x18(%rsp)
  404b35:	48 89 6c 24 f0       	mov    %rbp,-0x10(%rsp)
  404b3a:	48 89 fb             	mov    %rdi,%rbx
  404b3d:	4c 89 64 24 f8       	mov    %r12,-0x8(%rsp)
  404b42:	48 83 ec 18          	sub    $0x18,%rsp
  404b46:	48 83 fa 01          	cmp    $0x1,%rdx
  404b4a:	49 89 f4             	mov    %rsi,%r12
  404b4d:	48 89 d5             	mov    %rdx,%rbp
  404b50:	76 40                	jbe    404b92 <_ZN20matrixMultiplication6matpowERNS_6MatrixILm2ELm2EyEERKS1_m+0x62>
  404b52:	48 d1 ea             	shr    %rdx
  404b55:	e8 d6 ff ff ff       	callq  404b30 <_ZN20matrixMultiplication6matpowERNS_6MatrixILm2ELm2EyEERKS1_m>
  404b5a:	48 8b 7b 08          	mov    0x8(%rbx),%rdi
  404b5e:	48 8b 0b             	mov    (%rbx),%rcx
  404b61:	48 8b 53 18          	mov    0x18(%rbx),%rdx
  404b65:	48 89 fe             	mov    %rdi,%rsi
  404b68:	48 0f af 73 10       	imul   0x10(%rbx),%rsi
  404b6d:	48 8d 04 0a          	lea    (%rdx,%rcx,1),%rax
  404b71:	48 0f af c9          	imul   %rcx,%rcx
  404b75:	48 0f af d2          	imul   %rdx,%rdx
  404b79:	48 0f af c7          	imul   %rdi,%rax
  404b7d:	48 01 f1             	add    %rsi,%rcx
  404b80:	48 01 d6             	add    %rdx,%rsi
  404b83:	48 89 0b             	mov    %rcx,(%rbx)
  404b86:	48 89 73 18          	mov    %rsi,0x18(%rbx)
  404b8a:	48 89 43 08          	mov    %rax,0x8(%rbx)
  404b8e:	48 89 43 10          	mov    %rax,0x10(%rbx)
  404b92:	83 e5 01             	and    $0x1,%ebp
  404b95:	74 4c                	je     404be3 <_ZN20matrixMultiplication6matpowERNS_6MatrixILm2ELm2EyEERKS1_m+0xb3>
  404b97:	49 8b 74 24 08       	mov    0x8(%r12),%rsi
  404b9c:	49 8b 7c 24 18       	mov    0x18(%r12),%rdi
  404ba1:	48 8b 13             	mov    (%rbx),%rdx
  404ba4:	48 8b 4b 08          	mov    0x8(%rbx),%rcx
  404ba8:	49 89 f8             	mov    %rdi,%r8
  404bab:	48 89 f0             	mov    %rsi,%rax
  404bae:	4c 0f af c1          	imul   %rcx,%r8
  404bb2:	48 0f af c2          	imul   %rdx,%rax
  404bb6:	49 0f af 4c 24 10    	imul   0x10(%r12),%rcx
  404bbc:	49 0f af 14 24       	imul   (%r12),%rdx
  404bc1:	48 0f af 7b 18       	imul   0x18(%rbx),%rdi
  404bc6:	48 0f af 73 10       	imul   0x10(%rbx),%rsi
  404bcb:	4c 01 c0             	add    %r8,%rax
  404bce:	48 89 43 08          	mov    %rax,0x8(%rbx)
  404bd2:	48 89 43 10          	mov    %rax,0x10(%rbx)
  404bd6:	48 01 ca             	add    %rcx,%rdx
  404bd9:	48 89 13             	mov    %rdx,(%rbx)
  404bdc:	48 01 fe             	add    %rdi,%rsi
  404bdf:	48 89 73 18          	mov    %rsi,0x18(%rbx)
  404be3:	48 8b 1c 24          	mov    (%rsp),%rbx
  404be7:	48 8b 6c 24 08       	mov    0x8(%rsp),%rbp
  404bec:	4c 8b 64 24 10       	mov    0x10(%rsp),%r12
  404bf1:	48 83 c4 18          	add    $0x18,%rsp
  404bf5:	c3                   	retq   
  404bf6:	66 2e 0f 1f 84 00 00 	nopw   %cs:0x0(%rax,%rax,1)
  404bfd:	00 00 00 

0000000000404c00 <_ZN20matrixMultiplication11UsingMatrix9fibonacciEm>:
  404c00:	48 83 ec 48          	sub    $0x48,%rsp
  404c04:	48 89 fa             	mov    %rdi,%rdx
  404c07:	48 8d 74 24 20       	lea    0x20(%rsp),%rsi
  404c0c:	48 89 e7             	mov    %rsp,%rdi
  404c0f:	48 c7 44 24 08 00 00 	movq   $0x0,0x8(%rsp)
  404c16:	00 00 
  404c18:	48 c7 44 24 10 00 00 	movq   $0x0,0x10(%rsp)
  404c1f:	00 00 
  404c21:	48 c7 04 24 01 00 00 	movq   $0x1,(%rsp)
  404c28:	00 
  404c29:	48 c7 44 24 18 01 00 	movq   $0x1,0x18(%rsp)
  404c30:	00 00 
  404c32:	48 c7 44 24 20 01 00 	movq   $0x1,0x20(%rsp)
  404c39:	00 00 
  404c3b:	48 c7 44 24 28 01 00 	movq   $0x1,0x28(%rsp)
  404c42:	00 00 
  404c44:	48 c7 44 24 30 01 00 	movq   $0x1,0x30(%rsp)
  404c4b:	00 00 
  404c4d:	48 c7 44 24 38 00 00 	movq   $0x0,0x38(%rsp)
  404c54:	00 00 
  404c56:	e8 d5 fe ff ff       	callq  404b30 <_ZN20matrixMultiplication6matpowERNS_6MatrixILm2ELm2EyEERKS1_m>
  404c5b:	48 8b 04 24          	mov    (%rsp),%rax
  404c5f:	48 83 c4 48          	add    $0x48,%rsp
  404c63:	c3                   	retq   
  404c64:	66 66 66 2e 0f 1f 84 	data32 data32 nopw %cs:0x0(%rax,%rax,1)
  404c6b:	00 00 00 00 00 

0000000000404c70 <_ZN20matrixMultiplication11UsingMatrix14fibonacciNaiveEm>:
  404c70:	48 83 ff 01          	cmp    $0x1,%rdi
  404c74:	76 2f                	jbe    404ca5 <_ZN20matrixMultiplication11UsingMatrix14fibonacciNaiveEm+0x35>
  404c76:	be 01 00 00 00       	mov    $0x1,%esi
  404c7b:	b9 01 00 00 00       	mov    $0x1,%ecx
  404c80:	ba 01 00 00 00       	mov    $0x1,%edx
  404c85:	eb 0c                	jmp    404c93 <_ZN20matrixMultiplication11UsingMatrix14fibonacciNaiveEm+0x23>
  404c87:	66 0f 1f 84 00 00 00 	nopw   0x0(%rax,%rax,1)
  404c8e:	00 00 
  404c90:	48 89 c1             	mov    %rax,%rcx
  404c93:	48 83 c2 01          	add    $0x1,%rdx
  404c97:	48 8d 04 0e          	lea    (%rsi,%rcx,1),%rax
  404c9b:	48 89 ce             	mov    %rcx,%rsi
  404c9e:	48 39 fa             	cmp    %rdi,%rdx
  404ca1:	75 ed                	jne    404c90 <_ZN20matrixMultiplication11UsingMatrix14fibonacciNaiveEm+0x20>
  404ca3:	f3 c3                	repz retq 
  404ca5:	b8 01 00 00 00       	mov    $0x1,%eax
  404caa:	c3                   	retq   
  404cab:	90                   	nop
  404cac:	90                   	nop
  404cad:	90                   	nop
  404cae:	90                   	nop
  404caf:	90                   	nop

0000000000404cb0 <__libc_csu_fini>:
  404cb0:	f3 c3                	repz retq 
  404cb2:	66 66 66 66 66 2e 0f 	data32 data32 data32 data32 nopw %cs:0x0(%rax,%rax,1)
  404cb9:	1f 84 00 00 00 00 00 

0000000000404cc0 <__libc_csu_init>:
  404cc0:	48 89 6c 24 d8       	mov    %rbp,-0x28(%rsp)
  404cc5:	4c 89 64 24 e0       	mov    %r12,-0x20(%rsp)
  404cca:	48 8d 2d 47 13 20 00 	lea    0x201347(%rip),%rbp        # 606018 <__init_array_end>
  404cd1:	4c 8d 25 28 13 20 00 	lea    0x201328(%rip),%r12        # 606000 <__frame_dummy_init_array_entry>
  404cd8:	4c 89 6c 24 e8       	mov    %r13,-0x18(%rsp)
  404cdd:	4c 89 74 24 f0       	mov    %r14,-0x10(%rsp)
  404ce2:	4c 89 7c 24 f8       	mov    %r15,-0x8(%rsp)
  404ce7:	48 89 5c 24 d0       	mov    %rbx,-0x30(%rsp)
  404cec:	48 83 ec 38          	sub    $0x38,%rsp
  404cf0:	4c 29 e5             	sub    %r12,%rbp
  404cf3:	41 89 fd             	mov    %edi,%r13d
  404cf6:	49 89 f6             	mov    %rsi,%r14
  404cf9:	48 c1 fd 03          	sar    $0x3,%rbp
  404cfd:	49 89 d7             	mov    %rdx,%r15
  404d00:	e8 bb c0 ff ff       	callq  400dc0 <_init>
  404d05:	48 85 ed             	test   %rbp,%rbp
  404d08:	74 1c                	je     404d26 <__libc_csu_init+0x66>
  404d0a:	31 db                	xor    %ebx,%ebx
  404d0c:	0f 1f 40 00          	nopl   0x0(%rax)
  404d10:	4c 89 fa             	mov    %r15,%rdx
  404d13:	4c 89 f6             	mov    %r14,%rsi
  404d16:	44 89 ef             	mov    %r13d,%edi
  404d19:	41 ff 14 dc          	callq  *(%r12,%rbx,8)
  404d1d:	48 83 c3 01          	add    $0x1,%rbx
  404d21:	48 39 eb             	cmp    %rbp,%rbx
  404d24:	72 ea                	jb     404d10 <__libc_csu_init+0x50>
  404d26:	48 8b 5c 24 08       	mov    0x8(%rsp),%rbx
  404d2b:	48 8b 6c 24 10       	mov    0x10(%rsp),%rbp
  404d30:	4c 8b 64 24 18       	mov    0x18(%rsp),%r12
  404d35:	4c 8b 6c 24 20       	mov    0x20(%rsp),%r13
  404d3a:	4c 8b 74 24 28       	mov    0x28(%rsp),%r14
  404d3f:	4c 8b 7c 24 30       	mov    0x30(%rsp),%r15
  404d44:	48 83 c4 38          	add    $0x38,%rsp
  404d48:	c3                   	retq   
  404d49:	90                   	nop
  404d4a:	90                   	nop
  404d4b:	90                   	nop

Disassembly of section .fini:

0000000000404d4c <_fini>:
  404d4c:	48 83 ec 08          	sub    $0x8,%rsp
  404d50:	48 83 c4 08          	add    $0x8,%rsp
  404d54:	c3                   	retq   
