	.file	"Fibonacci.cc"
# GNU C++ (GCC) version 4.7.2 20121015 (Red Hat 4.7.2-5) (x86_64-redhat-linux)
#	compiled by GNU C version 4.7.2 20121015 (Red Hat 4.7.2-5), GMP version 4.3.1, MPFR version 2.4.1, MPC version 0.8.1
# GGC heuristics: --param ggc-min-expand=100 --param ggc-min-heapsize=131072
# options passed: 
# -iprefix /usr/libexec/openshift/cartridges/c9-0.1/root/cloud9-gcc-linux-toolchain/bin/../lib/gcc/x86_64-redhat-linux/4.7.2/
# -D_GNU_SOURCE Fibonacci.cc -mtune=generic -march=x86-64
# -auxbase-strip Fibonacci.s -g -O3 -std=c++11 -fverbose-asm
# options enabled:  -fasynchronous-unwind-tables -fauto-inc-dec
# -fbranch-count-reg -fcaller-saves -fcombine-stack-adjustments -fcommon
# -fcompare-elim -fcprop-registers -fcrossjumping -fcse-follow-jumps
# -fdefer-pop -fdelete-null-pointer-checks -fdevirtualize -fdwarf2-cfi-asm
# -fearly-inlining -feliminate-unused-debug-types -fexceptions
# -fexpensive-optimizations -fforward-propagate -ffunction-cse -fgcse
# -fgcse-after-reload -fgcse-lm -fgnu-runtime -fguess-branch-probability
# -fident -fif-conversion -fif-conversion2 -findirect-inlining -finline
# -finline-atomics -finline-functions -finline-functions-called-once
# -finline-small-functions -fipa-cp -fipa-cp-clone -fipa-profile
# -fipa-pure-const -fipa-reference -fipa-sra -fira-share-save-slots
# -fira-share-spill-slots -fivopts -fkeep-static-consts
# -fleading-underscore -fmath-errno -fmerge-constants -fmerge-debug-strings
# -fmove-loop-invariants -fomit-frame-pointer -foptimize-register-move
# -foptimize-sibling-calls -foptimize-strlen -fpartial-inlining -fpeephole
# -fpeephole2 -fpredictive-commoning -fprefetch-loop-arrays -free
# -freg-struct-return -fregmove -freorder-blocks -freorder-functions
# -frerun-cse-after-loop -fsched-critical-path-heuristic
# -fsched-dep-count-heuristic -fsched-group-heuristic -fsched-interblock
# -fsched-last-insn-heuristic -fsched-rank-heuristic -fsched-spec
# -fsched-spec-insn-heuristic -fsched-stalled-insns-dep -fschedule-insns2
# -fshow-column -fshrink-wrap -fsigned-zeros -fsplit-ivs-in-unroller
# -fsplit-wide-types -fstrict-aliasing -fstrict-overflow
# -fstrict-volatile-bitfields -fthread-jumps -ftoplevel-reorder
# -ftrapping-math -ftree-bit-ccp -ftree-builtin-call-dce -ftree-ccp
# -ftree-ch -ftree-copy-prop -ftree-copyrename -ftree-cselim -ftree-dce
# -ftree-dominator-opts -ftree-dse -ftree-forwprop -ftree-fre
# -ftree-loop-distribute-patterns -ftree-loop-if-convert -ftree-loop-im
# -ftree-loop-ivcanon -ftree-loop-optimize -ftree-parallelize-loops=
# -ftree-phiprop -ftree-pre -ftree-pta -ftree-reassoc -ftree-scev-cprop
# -ftree-sink -ftree-slp-vectorize -ftree-sra -ftree-switch-conversion
# -ftree-tail-merge -ftree-ter -ftree-vect-loop-version -ftree-vectorize
# -ftree-vrp -funit-at-a-time -funswitch-loops -funwind-tables
# -fvar-tracking -fvar-tracking-assignments -fvect-cost-model -fverbose-asm
# -fzero-initialized-in-bss -m128bit-long-double -m64 -m80387
# -maccumulate-outgoing-args -malign-stringops -mfancy-math-387
# -mfp-ret-in-387 -mglibc -mieee-fp -mmmx -mno-sse4 -mpush-args -mred-zone
# -msse -msse2 -mtls-direct-seg-refs

	.text
.Ltext0:
	.section	.text._ZN14metaprogrammed12ConstantTime9fibonacciEm,"axG",@progbits,_ZN14metaprogrammed12ConstantTime9fibonacciEm,comdat
	.p2align 4,,15
	.weak	_ZN14metaprogrammed12ConstantTime9fibonacciEm
	.type	_ZN14metaprogrammed12ConstantTime9fibonacciEm, @function
_ZN14metaprogrammed12ConstantTime9fibonacciEm:
.LFB3251:
	.file 1 "FibonacciInConstantTime.h"
	.loc 1 17 0
	.cfi_startproc
.LVL0:
	.loc 1 20 0
	cmpq	$92, %rdi	#, n
	movq	$-1, %rax	#, D.65673
	jbe	.L5	#,
	.loc 1 21 0 discriminator 3
	rep
	ret
	.p2align 4,,10
	.p2align 3
.L5:
	.loc 1 20 0 discriminator 1
	movq	_ZN14metaprogrammed6ValuesE(,%rdi,8), %rax	# Values, D.65673
	.loc 1 21 0 discriminator 1
	ret
	.cfi_endproc
.LFE3251:
	.size	_ZN14metaprogrammed12ConstantTime9fibonacciEm, .-_ZN14metaprogrammed12ConstantTime9fibonacciEm
	.section	.text._ZN23withoutLoopsOrRecursion9fibonacciEm,"axG",@progbits,_ZN23withoutLoopsOrRecursion9fibonacciEm,comdat
	.p2align 4,,15
	.weak	_ZN23withoutLoopsOrRecursion9fibonacciEm
	.type	_ZN23withoutLoopsOrRecursion9fibonacciEm, @function
_ZN23withoutLoopsOrRecursion9fibonacciEm:
.LFB3249:
	.file 2 "FibonacciWithoutLoopsOrRecursion.h"
	.loc 2 12 0
	.cfi_startproc
.LVL1:
	subq	$8, %rsp	#,
	.cfi_def_cfa_offset 16
.LBB543:
.LBB544:
	.file 3 "/usr/libexec/openshift/cartridges/c9-0.1/root/cloud9-gcc-linux-toolchain/bin/../lib/gcc/x86_64-redhat-linux/4.7.2/../../../../include/c++/4.7.2/cmath"
	.loc 3 440 0
	addq	$1, %rdi	#, tmp67
.LVL2:
	js	.L7	#,
	cvtsi2sdq	%rdi, %xmm1	# tmp67, tmp68
.LVL3:
.L8:
	movsd	.LC0(%rip), %xmm0	#,
	call	pow	#
.LVL4:
.LBE544:
.LBE543:
	.loc 2 17 0
	mulsd	.LC1(%rip), %xmm0	#, tmp78
	movsd	.LC3(%rip), %xmm1	#, tmp80
	addsd	.LC2(%rip), %xmm0	#, tmp78
	ucomisd	%xmm1, %xmm0	# tmp80, tmp78
	jae	.L9	#,
	cvttsd2siq	%xmm0, %rax	# tmp78, tmp75
	.loc 2 18 0
	addq	$8, %rsp	#,
	.cfi_remember_state
	.cfi_def_cfa_offset 8
	ret
	.p2align 4,,10
	.p2align 3
.L9:
	.cfi_restore_state
	.loc 2 17 0
	subsd	%xmm1, %xmm0	# tmp80, tmp81
	movabsq	$-9223372036854775808, %rdx	#, tmp83
	.loc 2 18 0
	addq	$8, %rsp	#,
	.cfi_remember_state
	.cfi_def_cfa_offset 8
	.loc 2 17 0
	cvttsd2siq	%xmm0, %rax	# tmp81, tmp75
	xorq	%rdx, %rax	# tmp83, tmp75
	.loc 2 18 0
	ret
.LVL5:
	.p2align 4,,10
	.p2align 3
.L7:
	.cfi_restore_state
.LBB546:
.LBB545:
	.loc 3 440 0
	movq	%rdi, %rax	# tmp67, tmp70
	andl	$1, %edi	#, tmp71
.LVL6:
	shrq	%rax	# tmp70
.LVL7:
	orq	%rdi, %rax	# tmp71, tmp70
	cvtsi2sdq	%rax, %xmm1	# tmp70, tmp68
	addsd	%xmm1, %xmm1	# tmp68, tmp68
	jmp	.L8	#
.LBE545:
.LBE546:
	.cfi_endproc
.LFE3249:
	.size	_ZN23withoutLoopsOrRecursion9fibonacciEm, .-_ZN23withoutLoopsOrRecursion9fibonacciEm
	.text
	.p2align 4,,15
	.type	_ZStlsISt11char_traitsIcEERSt13basic_ostreamIcT_ES5_PKc.part.1, @function
_ZStlsISt11char_traitsIcEERSt13basic_ostreamIcT_ES5_PKc.part.1:
.LFB3520:
	.file 4 "/usr/libexec/openshift/cartridges/c9-0.1/root/cloud9-gcc-linux-toolchain/bin/../lib/gcc/x86_64-redhat-linux/4.7.2/../../../../include/c++/4.7.2/ostream"
	.loc 4 528 0
	.cfi_startproc
.LVL8:
	subq	$8, %rsp	#,
	.cfi_def_cfa_offset 16
	.loc 4 531 0
	movq	(%rdi), %rax	# __out_1(D)->_vptr.basic_ostream, __out_1(D)->_vptr.basic_ostream
	addq	-24(%rax), %rdi	# MEM[(long int *)D.65866_2 + -24B], D.65863
.LVL9:
.LBB554:
.LBB555:
.LBB556:
	.file 5 "/usr/libexec/openshift/cartridges/c9-0.1/root/cloud9-gcc-linux-toolchain/bin/../lib/gcc/x86_64-redhat-linux/4.7.2/../../../../include/c++/4.7.2/bits/ios_base.h"
	.loc 5 160 0
	movl	32(%rdi), %esi	# MEM[(const struct basic_ios *)D.65863_5 + 32B], tmp69
	orl	$1, %esi	#, tmp69
.LBE556:
	.file 6 "/usr/libexec/openshift/cartridges/c9-0.1/root/cloud9-gcc-linux-toolchain/bin/../lib/gcc/x86_64-redhat-linux/4.7.2/../../../../include/c++/4.7.2/bits/basic_ios.h"
	.loc 6 150 0
	call	_ZNSt9basic_iosIcSt11char_traitsIcEE5clearESt12_Ios_Iostate	#
.LVL10:
.LBE555:
.LBE554:
	.loc 4 536 0
	addq	$8, %rsp	#,
	.cfi_def_cfa_offset 8
	ret
	.cfi_endproc
.LFE3520:
	.size	_ZStlsISt11char_traitsIcEERSt13basic_ostreamIcT_ES5_PKc.part.1, .-_ZStlsISt11char_traitsIcEERSt13basic_ostreamIcT_ES5_PKc.part.1
	.section	.text._ZN4loop9fibonacciEm,"axG",@progbits,_ZN4loop9fibonacciEm,comdat
	.p2align 4,,15
	.weak	_ZN4loop9fibonacciEm
	.type	_ZN4loop9fibonacciEm, @function
_ZN4loop9fibonacciEm:
.LFB3246:
	.file 7 "BasicLoopFibonacci.h"
	.loc 7 20 0
	.cfi_startproc
.LVL11:
	.loc 7 24 0
	cmpq	$92, %rdi	#, n
	movq	$-1, %rax	#, f2
	jbe	.L23	#,
.LVL12:
.L15:
	.loc 7 25 0 discriminator 6
	rep
	ret
.LVL13:
	.p2align 4,,10
	.p2align 3
.L23:
.LBB563:
.LBB564:
	.loc 7 24 0
	testq	%rdi, %rdi	# n
	movl	$1, %eax	#, f2
	je	.L15	#,
.LVL14:
.LBB565:
.LBB566:
	.loc 7 10 0
	subq	$1, %rdi	#, n
.LVL15:
	je	.L15	#,
	movl	$1, %ecx	#, f2
	movl	$1, %edx	#, f2
	jmp	.L17	#
.LVL16:
	.p2align 4,,10
	.p2align 3
.L21:
	.loc 7 13 0
	movq	%rax, %rdx	# f2, f2
.LVL17:
.L17:
	.loc 7 10 0
	subq	$1, %rdi	#, n
	.loc 7 13 0
	leaq	(%rcx,%rdx), %rax	#, f2
.LVL18:
	movq	%rdx, %rcx	# f2, f2
	.loc 7 10 0
	jne	.L21	#,
.LBE566:
.LBE565:
.LBE564:
.LBE563:
	.loc 7 25 0
	rep
	ret
	.cfi_endproc
.LFE3246:
	.size	_ZN4loop9fibonacciEm, .-_ZN4loop9fibonacciEm
	.section	.text._ZN17goodRecursionImplIyE9fibonacciEm,"axG",@progbits,_ZN17goodRecursionImplIyE9fibonacciEm,comdat
	.p2align 4,,15
	.weak	_ZN17goodRecursionImplIyE9fibonacciEm
	.type	_ZN17goodRecursionImplIyE9fibonacciEm, @function
_ZN17goodRecursionImplIyE9fibonacciEm:
.LFB3253:
	.file 8 "BasicRecursiveFibonacci.h"
	.loc 8 17 0
	.cfi_startproc
.LVL19:
	.loc 8 19 0
	cmpq	$92, %rdi	#, n
	movq	$-1, %rax	#, last
	jbe	.L31	#,
	.loc 8 20 0 discriminator 3
	rep
	ret
	.p2align 4,,10
	.p2align 3
.L31:
.LBB572:
.LBB573:
.LBB574:
	.loc 8 14 0
	testq	%rdi, %rdi	# n
	je	.L29	#,
	xorl	%ecx, %ecx	# last
	movl	$1, %edx	#, last
	jmp	.L27	#
.LVL20:
	.p2align 4,,10
	.p2align 3
.L30:
	movq	%rax, %rdx	# last, last
.LVL21:
.L27:
	subq	$1, %rdi	#, n
.LVL22:
	leaq	(%rcx,%rdx), %rax	#, last
	movq	%rdx, %rcx	# last, last
	jne	.L30	#,
	rep
	ret
.LVL23:
.L29:
	movl	$1, %eax	#, last
.LBE574:
.LBE573:
.LBE572:
	.loc 8 20 0
	ret
	.cfi_endproc
.LFE3253:
	.size	_ZN17goodRecursionImplIyE9fibonacciEm, .-_ZN17goodRecursionImplIyE9fibonacciEm
	.section	.text._ZN21evilBadAndInefficient9fibonacciEm,"axG",@progbits,_ZN21evilBadAndInefficient9fibonacciEm,comdat
	.p2align 4,,15
	.weak	_ZN21evilBadAndInefficient9fibonacciEm
	.type	_ZN21evilBadAndInefficient9fibonacciEm, @function
_ZN21evilBadAndInefficient9fibonacciEm:
.LFB3244:
	.file 9 "HorribleRecursiveFibonacci.h"
	.loc 9 22 0
	.cfi_startproc
	.loc 9 25 0
	cmpq	$92, %rdi	#, n
	movq	$-1, %rax	#, prephitmp.283
	ja	.L75	#,
	.loc 9 22 0
	pushq	%r15	#
	.cfi_def_cfa_offset 16
	.cfi_offset 15, -16
	.loc 9 25 0
	movl	$1, %eax	#, prephitmp.283
	.loc 9 22 0
	pushq	%r14	#
	.cfi_def_cfa_offset 24
	.cfi_offset 14, -24
	pushq	%r13	#
	.cfi_def_cfa_offset 32
	.cfi_offset 13, -32
	pushq	%r12	#
	.cfi_def_cfa_offset 40
	.cfi_offset 12, -40
	pushq	%rbp	#
	.cfi_def_cfa_offset 48
	.cfi_offset 6, -48
	pushq	%rbx	#
	.cfi_def_cfa_offset 56
	.cfi_offset 3, -56
	subq	$104, %rsp	#,
	.cfi_def_cfa_offset 160
	.loc 9 25 0
	cmpq	$1, %rdi	#, n
	movq	$0, 32(%rsp)	#, %sfp
	jbe	.L33	#,
.L62:
.LBB591:
.LBB592:
	.loc 9 25 0 is_stmt 0 discriminator 3
	leaq	-1(%rdi), %rax	#, tmp277
	cmpq	$1, %rax	#, tmp277
	jbe	.L54	#,
	subq	$2, %rdi	#,
	.loc 9 25 0
	movq	$0, 40(%rsp)	#, %sfp
	movq	%rdi, 24(%rsp)	#, %sfp
	movq	%rdi, (%rsp)	#, %sfp
.L51:
.LBB593:
.LBB594:
	cmpq	$1, (%rsp)	#, %sfp
	jbe	.L55	#,
	movq	(%rsp), %rax	# %sfp, n
	movq	$0, 48(%rsp)	#, %sfp
.L50:
.LBB595:
.LBB596:
	leaq	-1(%rax), %rdx	#, tmp278
	cmpq	$1, %rdx	#, tmp278
	jbe	.L56	#,
	subq	$2, %rax	#,
	movq	$0, 64(%rsp)	#, %sfp
	movq	%rax, 80(%rsp)	#, %sfp
	movq	%rax, 8(%rsp)	#, %sfp
.L49:
.LBB597:
.LBB598:
	cmpq	$1, 8(%rsp)	#, %sfp
	jbe	.L57	#,
	movq	8(%rsp), %rax	# %sfp, n
	movq	$0, 72(%rsp)	#, %sfp
.L48:
.LBB599:
.LBB600:
	leaq	-1(%rax), %rdx	#, tmp279
	cmpq	$1, %rdx	#, tmp279
	jbe	.L58	#,
	subq	$2, %rax	#,
	movq	$0, 56(%rsp)	#, %sfp
	movq	%rax, 88(%rsp)	#, %sfp
	movq	%rax, 16(%rsp)	#, %sfp
.L47:
.LBB601:
.LBB602:
	cmpq	$1, 16(%rsp)	#, %sfp
	jbe	.L59	#,
	movq	16(%rsp), %r13	# %sfp, n
	xorl	%r14d, %r14d	# add_acc.161
	movq	%r13, %r15	# n, n
.L46:
.LBB603:
.LBB604:
	leaq	-1(%r15), %rax	#, tmp280
	cmpq	$1, %rax	#, tmp280
	jbe	.L60	#,
	subq	$2, %r15	#, n
	xorl	%r13d, %r13d	# add_acc.161
	movq	%r15, %r12	# n, n
	.p2align 4,,10
	.p2align 3
.L45:
.LBB605:
.LBB606:
	cmpq	$1, %r12	#, n
	jbe	.L61	#,
	movq	%r12, %rbx	# n, n
	xorl	%ebp, %ebp	# add_acc.161
	.p2align 4,,10
	.p2align 3
.L44:
	.loc 9 22 0 is_stmt 1
	leaq	-1(%rbx), %rdi	#, tmp281
	.loc 9 25 0
	subq	$2, %rbx	#, n
	call	_ZN21evilBadAndInefficient9fibonacciEm	#
	addq	%rax, %rbp	# D.67058, add_acc.161
	cmpq	$1, %rbx	#, n
	ja	.L44	#,
	addq	$1, %rbp	#, prephitmp.283
.L43:
	subq	$2, %r12	#, n
	addq	%rbp, %r13	# prephitmp.283, add_acc.161
.LBE606:
.LBE605:
	leaq	1(%r12), %rax	#, tmp282
	cmpq	$1, %rax	#, tmp282
	ja	.L45	#,
	addq	$1, %r13	#, prephitmp.283
.L42:
	addq	%r13, %r14	# prephitmp.283, add_acc.161
.LBE604:
.LBE603:
	cmpq	$1, %r15	#, n
	ja	.L46	#,
	addq	$1, %r14	#, prephitmp.283
.L41:
	subq	$2, 16(%rsp)	#, %sfp
	addq	%r14, 56(%rsp)	# prephitmp.283, %sfp
.LBE602:
.LBE601:
	movq	16(%rsp), %rax	# %sfp, tmp283
	addq	$1, %rax	#, tmp283
	cmpq	$1, %rax	#, tmp283
	ja	.L47	#,
	movq	56(%rsp), %rdx	# %sfp, prephitmp.283
	movq	88(%rsp), %rax	# %sfp, n
	addq	$1, %rdx	#, prephitmp.283
.L40:
	addq	%rdx, 72(%rsp)	# prephitmp.283, %sfp
.LBE600:
.LBE599:
	cmpq	$1, %rax	#, n
	ja	.L48	#,
	movq	72(%rsp), %rax	# %sfp, prephitmp.283
	addq	$1, %rax	#, prephitmp.283
	jmp	.L39	#
	.p2align 4,,10
	.p2align 3
.L61:
.LBB615:
.LBB613:
.LBB612:
.LBB611:
.LBB610:
.LBB609:
.LBB608:
.LBB607:
	movl	$1, %ebp	#, prephitmp.283
	jmp	.L43	#
.L60:
.LBE607:
.LBE608:
	movl	$1, %r13d	#, prephitmp.283
	subq	$2, %r15	#, n
	jmp	.L42	#
.L59:
.LBE609:
.LBE610:
	movl	$1, %r14d	#, prephitmp.283
	jmp	.L41	#
.L55:
.LBE611:
.LBE612:
.LBE613:
.LBE615:
.LBE598:
.LBE597:
.LBE596:
.LBE595:
	movl	$1, %eax	#, prephitmp.283
.L37:
	subq	$2, (%rsp)	#, %sfp
	addq	%rax, 40(%rsp)	# prephitmp.283, %sfp
.LBE594:
.LBE593:
	movq	(%rsp), %rax	# %sfp, tmp285
	addq	$1, %rax	#, tmp285
	cmpq	$1, %rax	#, tmp285
	ja	.L51	#,
	movq	40(%rsp), %rax	# %sfp, prephitmp.283
	movq	24(%rsp), %rdi	# %sfp, n
	addq	$1, %rax	#, prephitmp.283
	jmp	.L36	#
.L54:
	subq	$2, %rdi	#,
	movl	$1, %eax	#, prephitmp.283
	movq	%rdi, 24(%rsp)	#, %sfp
.L36:
	addq	%rax, 32(%rsp)	# prephitmp.283, %sfp
.LBE592:
.LBE591:
	cmpq	$92, %rdi	#,
	ja	.L76	#,
	.loc 9 25 0 is_stmt 0 discriminator 1
	cmpq	$1, 24(%rsp)	#, %sfp
	ja	.L62	#,
	movq	32(%rsp), %rax	# %sfp, prephitmp.283
	addq	$1, %rax	#, prephitmp.283
.L33:
	.loc 9 26 0 is_stmt 1 discriminator 6
	addq	$104, %rsp	#,
	.cfi_def_cfa_offset 56
	popq	%rbx	#
	.cfi_restore 3
	.cfi_def_cfa_offset 48
	popq	%rbp	#
	.cfi_restore 6
	.cfi_def_cfa_offset 40
	popq	%r12	#
	.cfi_restore 12
	.cfi_def_cfa_offset 32
	popq	%r13	#
	.cfi_restore 13
	.cfi_def_cfa_offset 24
	popq	%r14	#
	.cfi_restore 14
	.cfi_def_cfa_offset 16
	popq	%r15	#
	.cfi_restore 15
	.cfi_def_cfa_offset 8
.L75:
	ret
.L76:
	.cfi_def_cfa_offset 160
	.cfi_offset 3, -56
	.cfi_offset 6, -48
	.cfi_offset 12, -40
	.cfi_offset 13, -32
	.cfi_offset 14, -24
	.cfi_offset 15, -16
	movq	32(%rsp), %rax	# %sfp, prephitmp.283
	subq	$1, %rax	#, prephitmp.283
	jmp	.L33	#
.L57:
.LBB628:
.LBB627:
.LBB626:
.LBB625:
.LBB623:
.LBB621:
.LBB619:
.LBB617:
	.loc 9 25 0
	movl	$1, %eax	#, prephitmp.283
.L39:
	subq	$2, 8(%rsp)	#, %sfp
	addq	%rax, 64(%rsp)	# prephitmp.283, %sfp
.LBE617:
.LBE619:
	movq	8(%rsp), %rax	# %sfp, tmp284
	addq	$1, %rax	#, tmp284
	cmpq	$1, %rax	#, tmp284
	ja	.L49	#,
	movq	64(%rsp), %rdx	# %sfp, prephitmp.283
	movq	80(%rsp), %rax	# %sfp, n
	addq	$1, %rdx	#, prephitmp.283
	jmp	.L38	#
.L56:
	subq	$2, %rax	#,
	movl	$1, %edx	#, prephitmp.283
	movq	%rax, 80(%rsp)	#, %sfp
.L38:
	addq	%rdx, 48(%rsp)	# prephitmp.283, %sfp
.LBE621:
.LBE623:
	cmpq	$1, %rax	#, n
	ja	.L50	#,
	movq	48(%rsp), %rax	# %sfp, prephitmp.283
	addq	$1, %rax	#, prephitmp.283
	jmp	.L37	#
.L58:
	subq	$2, %rax	#,
.LBB624:
.LBB622:
.LBB620:
.LBB618:
.LBB616:
.LBB614:
	movl	$1, %edx	#, prephitmp.283
	movq	%rax, 88(%rsp)	#, %sfp
	jmp	.L40	#
.LBE614:
.LBE616:
.LBE618:
.LBE620:
.LBE622:
.LBE624:
.LBE625:
.LBE626:
.LBE627:
.LBE628:
	.cfi_endproc
.LFE3244:
	.size	_ZN21evilBadAndInefficient9fibonacciEm, .-_ZN21evilBadAndInefficient9fibonacciEm
	.section	.rodata.str1.8,"aMS",@progbits,1
	.align 8
.LC4:
	.string	"Fibonacci series, comparing the results of several algorithms"
	.section	.rodata.str1.1,"aMS",@progbits,1
.LC5:
	.string	"  "
.LC6:
	.string	"   "
	.section	.rodata.str1.8
	.align 8
.LC7:
	.string	"Overflow, computed as f(92) + f(91)"
	.text
	.p2align 4,,15
	.globl	_Z14CompareResultsv
	.type	_Z14CompareResultsv, @function
_Z14CompareResultsv:
.LFB3252:
	.file 10 "Fibonacci.cc"
	.loc 10 29 0
	.cfi_startproc
	.cfi_personality 0x3,__gxx_personality_v0
	.cfi_lsda 0x3,.LLSDA3252
.LVL24:
	pushq	%r14	#
	.cfi_def_cfa_offset 16
	.cfi_offset 14, -16
.LBB868:
.LBB869:
.LBB870:
	.file 11 "/usr/libexec/openshift/cartridges/c9-0.1/root/cloud9-gcc-linux-toolchain/bin/../lib/gcc/x86_64-redhat-linux/4.7.2/../../../../include/c++/4.7.2/bits/basic_string.h"
	.loc 11 2755 0
	movl	$_ZSt4cout, %edi	#,
.LBE870:
.LBE869:
.LBE868:
	.loc 10 29 0
	pushq	%r13	#
	.cfi_def_cfa_offset 24
	.cfi_offset 13, -24
	pushq	%r12	#
	.cfi_def_cfa_offset 32
	.cfi_offset 12, -32
	pushq	%rbp	#
	.cfi_def_cfa_offset 40
	.cfi_offset 6, -40
	pushq	%rbx	#
	.cfi_def_cfa_offset 48
	.cfi_offset 3, -48
	subq	$48, %rsp	#,
	.cfi_def_cfa_offset 96
.LBB1320:
.LBB878:
.LBB876:
.LBB871:
.LBB872:
.LBB873:
.LBB874:
.LBB875:
	.loc 11 290 0
	movq	_ZL10BeginTitle(%rip), %rsi	# BeginTitle._M_dataplus._M_p, D.67155
.LVL25:
.LBE875:
.LBE874:
.LBE873:
.LBE872:
.LBE871:
	.loc 11 2755 0
	movq	-24(%rsi), %rdx	# MEM[(struct _Rep *)D.67155_258 + -24B].D.19289._M_length, MEM[(struct _Rep *)D.67155_258 + -24B].D.19289._M_length
.LEHB0:
	call	_ZSt16__ostream_insertIcSt11char_traitsIcEERSt13basic_ostreamIT_T0_ES6_PKS3_l	#
.LVL26:
.LBE876:
.LBE878:
.LBB879:
.LBB880:
	.loc 4 533 0
	movl	$61, %edx	#,
	movl	$.LC4, %esi	#,
	movq	%rax, %rdi	# D.67152,
.LBE880:
.LBE879:
.LBB882:
.LBB877:
	.loc 11 2755 0
	movq	%rax, %rbx	#, D.67152
.LVL27:
.LBE877:
.LBE882:
.LBB883:
.LBB881:
	.loc 4 533 0
	call	_ZSt16__ostream_insertIcSt11char_traitsIcEERSt13basic_ostreamIT_T0_ES6_PKS3_l	#
.LVL28:
.LBE881:
.LBE883:
.LBB884:
.LBB885:
.LBB886:
.LBB887:
.LBB888:
.LBB889:
.LBB890:
	.loc 11 290 0
	movq	_ZL8EndTitle(%rip), %rsi	# EndTitle._M_dataplus._M_p, D.67168
.LVL29:
.LBE890:
.LBE889:
.LBE888:
.LBE887:
.LBE886:
	.loc 11 2755 0
	movq	%rbx, %rdi	# D.67152,
	movq	-24(%rsi), %rdx	# MEM[(struct _Rep *)D.67168_264 + -24B].D.19289._M_length, MEM[(struct _Rep *)D.67168_264 + -24B].D.19289._M_length
	call	_ZSt16__ostream_insertIcSt11char_traitsIcEERSt13basic_ostreamIT_T0_ES6_PKS3_l	#
.LVL30:
	movq	%rax, %rbp	#, D.67171
.LVL31:
.LBE885:
.LBE884:
.LBB891:
.LBB892:
.LBB893:
	.loc 4 563 0
	movq	(%rax), %rax	# D.67171_267->_vptr.basic_ostream, D.67171_267->_vptr.basic_ostream
.LVL32:
.LBE893:
	.loc 10 104 0
	movq	-24(%rax), %rax	# MEM[(long int *)D.67183_268 + -24B], MEM[(long int *)D.67183_268 + -24B]
	movq	240(%rbp,%rax), %rbx	# MEM[(const struct basic_ios *)D.67180_271 + 240B], D.67192
.LVL33:
.LBB907:
.LBB894:
.LBB895:
.LBB896:
	.loc 6 50 0
	testq	%rbx, %rbx	# D.67192
	je	.L84	#,
.LVL34:
.LBE896:
.LBE895:
.LBB898:
.LBB899:
	.file 12 "/usr/libexec/openshift/cartridges/c9-0.1/root/cloud9-gcc-linux-toolchain/bin/../lib/gcc/x86_64-redhat-linux/4.7.2/../../../../include/c++/4.7.2/bits/locale_facets.h"
	.loc 12 869 0
	cmpb	$0, 56(%rbx)	#, MEM[(const struct ctype *)D.67192_272]._M_widen_ok
	je	.L79	#,
	.loc 12 870 0
	movzbl	67(%rbx), %eax	# MEM[(const struct ctype *)D.67192_272]._M_widen, D.67197
.LVL35:
.L80:
.LBE899:
.LBE898:
.LBE894:
	.loc 4 563 0
	movsbl	%al, %esi	# D.67197, D.67197
	movq	%rbp, %rdi	# D.67171,
	movl	$._92, %ebx	#, ivtmp.404
.LVL36:
	call	_ZNSo3putEc	#
.LVL37:
.LBB903:
.LBB904:
	.loc 4 585 0
	movq	%rax, %rdi	# D.67177,
	call	_ZNSo5flushEv	#
.LVL38:
.LBE904:
.LBE903:
.LBE907:
.LBE892:
.LBE891:
.LBB912:
.LBB913:
	.loc 4 533 0
	movl	$2, %edx	#,
	movl	$.LC5, %esi	#,
	movl	$_ZSt4cout, %edi	#,
.LBE913:
.LBE912:
	.loc 10 37 0
	movq	$_ZN4loop9fibonacciEm, (%rsp)	#, functors
	movq	$_ZN17goodRecursionImplIyE9fibonacciEm, 8(%rsp)	#, functors
	movq	$_ZN14metaprogrammed12ConstantTime9fibonacciEm, 16(%rsp)	#, functors
	movq	$_ZN20matrixMultiplication11UsingMatrix9fibonacciEm, 24(%rsp)	#, functors
	movq	$_ZN23withoutLoopsOrRecursion9fibonacciEm, 32(%rsp)	#, functors
.LVL39:
.LBB915:
.LBB914:
	.loc 4 533 0
	call	_ZSt16__ostream_insertIcSt11char_traitsIcEERSt13basic_ostreamIT_T0_ES6_PKS3_l	#
.LVL40:
.L83:
.LBE914:
.LBE915:
.LBB916:
.LBB917:
.LBB918:
	.file 13 "/usr/libexec/openshift/cartridges/c9-0.1/root/cloud9-gcc-linux-toolchain/bin/../lib/gcc/x86_64-redhat-linux/4.7.2/../../../../include/c++/4.7.2/iomanip"
	.loc 13 239 0
	movq	_ZSt4cout(%rip), %rax	# cout._vptr.basic_ostream, cout._vptr.basic_ostream
.LBE918:
.LBE917:
	.loc 10 45 0
	movq	(%rbx), %rbp	# MEM[base: D.67580_644, offset: 0B], n
.LVL41:
.LBB925:
.LBB923:
.LBB919:
.LBB920:
	.loc 5 658 0
	movq	-24(%rax), %rax	# MEM[(long int *)D.66710_156 + -24B], MEM[(long int *)D.66710_156 + -24B]
.LVL42:
.LBE920:
.LBE919:
.LBE923:
.LBE925:
.LBB926:
.LBB927:
	.loc 4 530 0
	testq	%rbp, %rbp	# n
.LBE927:
.LBE926:
.LBB931:
.LBB924:
.LBB922:
.LBB921:
	.loc 5 658 0
	movq	$37, _ZSt4cout+16(%rax)	#, MEM[(streamsize *)D.66707_159 + 16B]
.LVL43:
.LBE921:
.LBE922:
.LBE924:
.LBE931:
.LBB932:
.LBB930:
	.loc 4 530 0
	je	.L113	#,
.LVL44:
.LBB928:
.LBB929:
	.file 14 "/usr/libexec/openshift/cartridges/c9-0.1/root/cloud9-gcc-linux-toolchain/bin/../lib/gcc/x86_64-redhat-linux/4.7.2/../../../../include/c++/4.7.2/bits/char_traits.h"
	.loc 14 261 0
	movq	%rbp, %rdi	# n,
	call	strlen	#
.LVL45:
.LBE929:
.LBE928:
	.loc 4 533 0
	movq	%rbp, %rsi	# n,
	movq	%rax, %rdx	# tmp332,
	movl	$_ZSt4cout, %edi	#,
	call	_ZSt16__ostream_insertIcSt11char_traitsIcEERSt13basic_ostreamIT_T0_ES6_PKS3_l	#
.LVL46:
.L82:
	addq	$8, %rbx	#, ivtmp.404
.LBE930:
.LBE932:
	.loc 10 39 0
	cmpq	$._92+40, %rbx	#, ivtmp.404
	jne	.L83	#,
.LVL47:
.LBE916:
.LBB933:
.LBB934:
.LBB935:
	.loc 4 563 0
	movq	_ZSt4cout(%rip), %rax	# cout._vptr.basic_ostream, cout._vptr.basic_ostream
.LBE935:
	.loc 10 104 0
	movq	-24(%rax), %rax	# MEM[(long int *)D.67220_294 + -24B], MEM[(long int *)D.67220_294 + -24B]
	movq	_ZSt4cout+240(%rax), %rbx	# MEM[(const struct basic_ios *)D.67223_297 + 240B], D.67237
.LVL48:
.LBB948:
.LBB936:
.LBB937:
.LBB938:
	.loc 6 50 0
	testq	%rbx, %rbx	# D.67237
	je	.L84	#,
.LVL49:
.LBE938:
.LBE937:
.LBB939:
.LBB940:
	.loc 12 869 0
	cmpb	$0, 56(%rbx)	#, MEM[(const struct ctype *)D.67237_298]._M_widen_ok
	je	.L85	#,
	.loc 12 870 0
	movzbl	67(%rbx), %eax	# MEM[(const struct ctype *)D.67237_298]._M_widen, D.67242
.LVL50:
.L86:
.LBE940:
.LBE939:
.LBE936:
	.loc 4 563 0
	movsbl	%al, %esi	# D.67242, D.67242
	movl	$_ZSt4cout, %edi	#,
.LBE948:
.LBE934:
.LBE933:
.LBB955:
.LBB956:
.LBB957:
.LBB958:
.LBB959:
.LBB960:
.LBB961:
.LBB962:
.LBB963:
.LBB964:
.LBB965:
	.file 15 "/usr/libexec/openshift/cartridges/c9-0.1/root/cloud9-gcc-linux-toolchain/bin/../lib/gcc/x86_64-redhat-linux/4.7.2/../../../../include/c++/4.7.2/bits/stl_algobase.h"
	.loc 15 745 0
	xorl	%ebp, %ebp	# n
.LVL51:
.LBE965:
.LBE964:
.LBE963:
.LBE962:
.LBE961:
.LBE960:
.LBE959:
.LBE958:
.LBE957:
.LBE956:
.LBE955:
.LBB981:
.LBB952:
.LBB949:
	.loc 4 563 0
	call	_ZNSo3putEc	#
.LVL52:
.LBB943:
.LBB944:
	.loc 4 585 0
	movq	%rax, %rdi	# D.67226,
.LBE944:
.LBE943:
.LBE949:
.LBE952:
.LBE981:
.LBB982:
.LBB983:
.LBB984:
	.loc 10 60 0
	movl	$_ZL5Reset, %r13d	#, tmp426
.LBE984:
.LBE983:
.LBE982:
.LBB1164:
.LBB953:
.LBB950:
.LBB946:
.LBB945:
	.loc 4 585 0
	call	_ZNSo5flushEv	#
.LVL53:
.LBE945:
.LBE946:
.LBE950:
.LBE953:
.LBE1164:
.LBB1165:
.LBB975:
.LBB976:
.LBB977:
.LBB978:
.LBB979:
	.file 16 "/usr/libexec/openshift/cartridges/c9-0.1/root/cloud9-gcc-linux-toolchain/bin/../lib/gcc/x86_64-redhat-linux/4.7.2/../../../../include/c++/4.7.2/ext/new_allocator.h"
	.loc 16 94 0
	movl	$40, %edi	#,
	call	_Znwm	#
.LEHE0:
.LVL54:
	movq	%rax, %rbx	#, results$_M_impl$_M_start
.LVL55:
.LBE979:
.LBE978:
.LBE977:
.LBE976:
.LBE975:
.LBB980:
.LBB974:
.LBB973:
.LBB972:
.LBB971:
.LBB970:
.LBB969:
.LBB968:
.LBB967:
.LBB966:
	.loc 15 745 0
	movq	$0, (%rax)	#, *results$_M_impl$_M_start_329
.LVL56:
	movq	$0, 8(%rax)	#, MEM[(long long unsigned int *)results$_M_impl$_M_start_329 + 8B]
.LVL57:
	movq	$0, 16(%rax)	#, MEM[(long long unsigned int *)results$_M_impl$_M_start_329 + 16B]
.LVL58:
	movq	$0, 24(%rax)	#, MEM[(long long unsigned int *)results$_M_impl$_M_start_329 + 24B]
.LVL59:
	movq	$0, 32(%rax)	#, MEM[(long long unsigned int *)results$_M_impl$_M_start_329 + 32B]
.LVL60:
	jmp	.L94	#
.LVL61:
	.p2align 4,,10
	.p2align 3
.L116:
.LBE966:
.LBE967:
.LBE968:
.LBE969:
.LBE970:
.LBE971:
.LBE972:
.LBE973:
.LBE974:
.LBE980:
.LBE1165:
.LBB1166:
.LBB1128:
.LBB1129:
.LBB1130:
.LBB1131:
.LBB1132:
.LBB1133:
	.loc 12 870 0
	movzbl	67(%r12), %eax	# MEM[(const struct ctype *)D.67331_346]._M_widen, D.67336
.LVL62:
.L93:
.LBE1133:
.LBE1132:
.LBE1131:
	.loc 4 563 0
	movsbl	%al, %esi	# D.67336, D.67336
	movl	$_ZSt4cout, %edi	#,
.LEHB1:
	call	_ZNSo3putEc	#
.LVL63:
.LBB1140:
.LBB1141:
	.loc 4 585 0
	movq	%rax, %rdi	# D.67320,
	call	_ZNSo5flushEv	#
.LVL64:
.LBE1141:
.LBE1140:
.LBE1130:
.LBE1129:
.LBE1128:
	.loc 10 50 0
	addq	$1, %rbp	#, n
.LVL65:
	cmpq	$93, %rbp	#, n
	je	.L114	#,
.LVL66:
.L94:
.LBB1149:
.LBB1150:
	.loc 13 239 0
	movq	_ZSt4cout(%rip), %rax	# cout._vptr.basic_ostream, cout._vptr.basic_ostream
.LBE1150:
.LBE1149:
.LBB1154:
.LBB1155:
	.loc 4 169 0
	movq	%rbp, %rsi	# n,
	movl	$_ZSt4cout, %edi	#,
.LVL67:
.LBE1155:
.LBE1154:
.LBB1157:
.LBB1153:
.LBB1151:
.LBB1152:
	.loc 5 658 0
	movq	-24(%rax), %rax	# MEM[(long int *)D.66728_163 + -24B], MEM[(long int *)D.66728_163 + -24B]
.LVL68:
	movq	$2, _ZSt4cout+16(%rax)	#, MEM[(streamsize *)D.66725_166 + 16B]
.LVL69:
.LBE1152:
.LBE1151:
.LBE1153:
.LBE1157:
.LBB1158:
.LBB1156:
	.loc 4 169 0
	call	_ZNSo9_M_insertImEERSoT_	#
.LVL70:
.LBE1156:
.LBE1158:
.LBB1159:
.LBB1160:
	.loc 4 533 0
	movl	$3, %edx	#,
	movl	$.LC6, %esi	#,
	movq	%rax, %rdi	# D.66734,
	call	_ZSt16__ostream_insertIcSt11char_traitsIcEERSt13basic_ostreamIT_T0_ES6_PKS3_l	#
.LVL71:
.LBE1160:
.LBE1159:
.LBB1161:
.LBB1127:
	.loc 10 56 0
	movq	%rbp, %rdi	# n,
	call	_ZN4loop9fibonacciEm	#
.LVL72:
.LBB985:
.LBB986:
.LBB987:
.LBB988:
.LBB989:
.LBB990:
.LBB991:
	.loc 11 290 0
	movq	_ZL5Empty(%rip), %rsi	# Empty._M_dataplus._M_p, D.67294
.LBE991:
.LBE990:
.LBE989:
.LBE988:
.LBE987:
.LBE986:
.LBE985:
	.loc 10 56 0
	movq	%rax, (%rbx)	# D.65522, MEM[(value_type &)results$_M_impl$_M_start_329]
.LVL73:
.LBB1022:
.LBB1012:
	.loc 11 2755 0
	movl	$_ZSt4cout, %edi	#,
.LBE1012:
.LBE1022:
	.loc 10 56 0
	movq	%rax, %r12	#, D.65522
.LBB1023:
.LBB1013:
	.loc 11 2755 0
	movq	-24(%rsi), %rdx	# MEM[(struct _Rep *)D.67294_525 + -24B].D.19289._M_length, MEM[(struct _Rep *)D.67294_525 + -24B].D.19289._M_length
	call	_ZSt16__ostream_insertIcSt11char_traitsIcEERSt13basic_ostreamIT_T0_ES6_PKS3_l	#
.LVL74:
	movq	%rax, %rdi	#, D.67291
.LVL75:
.LBE1013:
.LBE1023:
.LBB1024:
.LBB1025:
	.loc 13 239 0
	movq	(%rax), %rax	# D.67291_529->_vptr.basic_ostream, D.67291_529->_vptr.basic_ostream
.LVL76:
.LBE1025:
.LBE1024:
.LBB1045:
.LBB1046:
	.loc 4 204 0
	movq	%r12, %rsi	# D.65522,
.LBE1046:
.LBE1045:
.LBB1056:
.LBB1036:
.LBB1026:
.LBB1027:
	.loc 5 658 0
	movq	-24(%rax), %rax	# MEM[(long int *)D.66788_532 + -24B], MEM[(long int *)D.66788_532 + -24B]
.LVL77:
	movq	$23, 16(%rdi,%rax)	#, MEM[(streamsize *)D.66785_535 + 16B]
.LVL78:
.LBE1027:
.LBE1026:
.LBE1036:
.LBE1056:
.LBB1057:
.LBB1047:
	.loc 4 204 0
	call	_ZNSo9_M_insertIyEERSoT_	#
.LVL79:
.LBE1047:
.LBE1057:
.LBB1058:
.LBB1059:
.LBB1060:
.LBB1061:
.LBB1062:
.LBB1063:
.LBB1064:
	.loc 11 290 0
	movq	_ZL5Empty(%rip), %rsi	# Empty._M_dataplus._M_p, D.67301
.LVL80:
.LBE1064:
.LBE1063:
.LBE1062:
.LBE1061:
.LBE1060:
	.loc 11 2755 0
	movq	%rax, %rdi	# D.66794,
	movq	-24(%rsi), %rdx	# MEM[(struct _Rep *)D.67301_539 + -24B].D.19289._M_length, MEM[(struct _Rep *)D.67301_539 + -24B].D.19289._M_length
	call	_ZSt16__ostream_insertIcSt11char_traitsIcEERSt13basic_ostreamIT_T0_ES6_PKS3_l	#
.LVL81:
.LBE1059:
.LBE1058:
.LBB1089:
.LBB1090:
	.loc 4 533 0
	movl	$3, %edx	#,
	movl	$.LC6, %esi	#,
	movq	%rax, %rdi	# D.67304,
	call	_ZSt16__ostream_insertIcSt11char_traitsIcEERSt13basic_ostreamIT_T0_ES6_PKS3_l	#
.LVL82:
.LBE1090:
.LBE1089:
	.loc 10 56 0
	movq	%rbp, %rdi	# n,
	call	_ZN17goodRecursionImplIyE9fibonacciEm	#
.LVL83:
	movq	%rax, %r12	#, D.65522
.LVL84:
	.loc 10 60 0
	cmpq	(%rbx), %r12	# MEM[(value_type &)results$_M_impl$_M_start_329], D.65522
	movl	$_ZL3Red, %edx	#, tmp412
	.loc 10 56 0
	movq	%rax, 8(%rbx)	# D.65522, MEM[(value_type &)results$_M_impl$_M_start_329 + 8]
.LVL85:
	.loc 10 60 0
	movl	$_ZL5Empty, %eax	#, tmp411
.LBB1095:
.LBB1014:
	.loc 11 2755 0
	movl	$_ZSt4cout, %edi	#,
.LBE1014:
.LBE1095:
	.loc 10 60 0
	movq	%rax, %r14	# tmp411, iftmp.65
	cmovne	%rdx, %rax	# tmp412,, iftmp.66
.LVL86:
	cmovne	%r13, %r14	# tmp426,, iftmp.65
.LBB1096:
.LBB1015:
.LBB1008:
.LBB1004:
.LBB1000:
.LBB996:
.LBB992:
	.loc 11 290 0
	movq	(%rax), %rsi	# MEM[(const struct basic_string *)iftmp.66_567]._M_dataplus._M_p, D.67294
.LVL87:
.LBE992:
.LBE996:
.LBE1000:
.LBE1004:
.LBE1008:
	.loc 11 2755 0
	movq	-24(%rsi), %rdx	# MEM[(struct _Rep *)D.67294_568 + -24B].D.19289._M_length, MEM[(struct _Rep *)D.67294_568 + -24B].D.19289._M_length
	call	_ZSt16__ostream_insertIcSt11char_traitsIcEERSt13basic_ostreamIT_T0_ES6_PKS3_l	#
.LVL88:
.LBE1015:
.LBE1096:
.LBB1097:
.LBB1037:
	.loc 13 239 0
	movq	(%rax), %rdx	# D.67291_572->_vptr.basic_ostream, D.67291_572->_vptr.basic_ostream
.LBE1037:
.LBE1097:
.LBB1098:
.LBB1048:
	.loc 4 204 0
	movq	%r12, %rsi	# D.65522,
	movq	%rax, %rdi	# D.67291,
.LBE1048:
.LBE1098:
.LBB1099:
.LBB1038:
.LBB1032:
.LBB1028:
	.loc 5 658 0
	movq	-24(%rdx), %rdx	# MEM[(long int *)D.66788_575 + -24B], MEM[(long int *)D.66788_575 + -24B]
	movq	$23, 16(%rax,%rdx)	#, MEM[(streamsize *)D.66785_578 + 16B]
.LVL89:
.LBE1028:
.LBE1032:
.LBE1038:
.LBE1099:
.LBB1100:
.LBB1049:
	.loc 4 204 0
	call	_ZNSo9_M_insertIyEERSoT_	#
.LVL90:
.LBE1049:
.LBE1100:
.LBB1101:
.LBB1085:
.LBB1081:
.LBB1077:
.LBB1073:
.LBB1069:
.LBB1065:
	.loc 11 290 0
	movq	(%r14), %rsi	# MEM[(const struct basic_string *)iftmp.65_305]._M_dataplus._M_p, D.67301
.LVL91:
.LBE1065:
.LBE1069:
.LBE1073:
.LBE1077:
.LBE1081:
	.loc 11 2755 0
	movq	%rax, %rdi	# D.66794,
	movq	-24(%rsi), %rdx	# MEM[(struct _Rep *)D.67301_582 + -24B].D.19289._M_length, MEM[(struct _Rep *)D.67301_582 + -24B].D.19289._M_length
	call	_ZSt16__ostream_insertIcSt11char_traitsIcEERSt13basic_ostreamIT_T0_ES6_PKS3_l	#
.LVL92:
.LBE1085:
.LBE1101:
.LBB1102:
.LBB1091:
	.loc 4 533 0
	movl	$3, %edx	#,
	movl	$.LC6, %esi	#,
	movq	%rax, %rdi	# D.67304,
	call	_ZSt16__ostream_insertIcSt11char_traitsIcEERSt13basic_ostreamIT_T0_ES6_PKS3_l	#
.LVL93:
.LBE1091:
.LBE1102:
	.loc 10 56 0
	movq	%rbp, %rdi	# n,
	.loc 10 60 0
	movq	%r13, %r14	# tmp426, iftmp.65
.LVL94:
	.loc 10 56 0
	call	_ZN14metaprogrammed12ConstantTime9fibonacciEm	#
.LVL95:
	.loc 10 60 0
	cmpq	(%rbx), %rax	# MEM[(value_type &)results$_M_impl$_M_start_329], D.65522
	movl	$_ZL5Empty, %edx	#, tmp414
	.loc 10 56 0
	movq	%rax, %r12	#, D.65522
.LVL96:
	movq	%rax, 16(%rbx)	# D.65522, MEM[(value_type &)results$_M_impl$_M_start_329 + 16]
.LVL97:
	.loc 10 60 0
	movl	$_ZL3Red, %eax	#, iftmp.66
.LBB1103:
.LBB1016:
	.loc 11 2755 0
	movl	$_ZSt4cout, %edi	#,
.LBE1016:
.LBE1103:
	.loc 10 60 0
	cmove	%rdx, %rax	# tmp414,, iftmp.66
.LVL98:
	cmove	%rdx, %r14	# tmp414,, iftmp.65
.LBB1104:
.LBB1017:
.LBB1009:
.LBB1005:
.LBB1001:
.LBB997:
.LBB993:
	.loc 11 290 0
	movq	(%rax), %rsi	# MEM[(const struct basic_string *)iftmp.66_610]._M_dataplus._M_p, D.67294
.LBE993:
.LBE997:
.LBE1001:
.LBE1005:
.LBE1009:
	.loc 11 2755 0
	movq	-24(%rsi), %rdx	# MEM[(struct _Rep *)D.67294_611 + -24B].D.19289._M_length, MEM[(struct _Rep *)D.67294_611 + -24B].D.19289._M_length
	call	_ZSt16__ostream_insertIcSt11char_traitsIcEERSt13basic_ostreamIT_T0_ES6_PKS3_l	#
.LVL99:
.LBE1017:
.LBE1104:
.LBB1105:
.LBB1039:
	.loc 13 239 0
	movq	(%rax), %rdx	# D.67291_615->_vptr.basic_ostream, D.67291_615->_vptr.basic_ostream
.LBE1039:
.LBE1105:
.LBB1106:
.LBB1050:
	.loc 4 204 0
	movq	%r12, %rsi	# D.65522,
	movq	%rax, %rdi	# D.67291,
.LBE1050:
.LBE1106:
.LBB1107:
.LBB1040:
.LBB1033:
.LBB1029:
	.loc 5 658 0
	movq	-24(%rdx), %rdx	# MEM[(long int *)D.66788_618 + -24B], MEM[(long int *)D.66788_618 + -24B]
	movq	$23, 16(%rax,%rdx)	#, MEM[(streamsize *)D.66785_621 + 16B]
.LVL100:
.LBE1029:
.LBE1033:
.LBE1040:
.LBE1107:
.LBB1108:
.LBB1051:
	.loc 4 204 0
	call	_ZNSo9_M_insertIyEERSoT_	#
.LVL101:
.LBE1051:
.LBE1108:
.LBB1109:
.LBB1086:
.LBB1082:
.LBB1078:
.LBB1074:
.LBB1070:
.LBB1066:
	.loc 11 290 0
	movq	(%r14), %rsi	# MEM[(const struct basic_string *)iftmp.65_451]._M_dataplus._M_p, D.67301
.LBE1066:
.LBE1070:
.LBE1074:
.LBE1078:
.LBE1082:
	.loc 11 2755 0
	movq	%rax, %rdi	# D.66794,
	movq	-24(%rsi), %rdx	# MEM[(struct _Rep *)D.67301_625 + -24B].D.19289._M_length, MEM[(struct _Rep *)D.67301_625 + -24B].D.19289._M_length
	call	_ZSt16__ostream_insertIcSt11char_traitsIcEERSt13basic_ostreamIT_T0_ES6_PKS3_l	#
.LVL102:
.LBE1086:
.LBE1109:
.LBB1110:
.LBB1092:
	.loc 4 533 0
	movl	$3, %edx	#,
	movl	$.LC6, %esi	#,
	movq	%rax, %rdi	# D.67304,
	call	_ZSt16__ostream_insertIcSt11char_traitsIcEERSt13basic_ostreamIT_T0_ES6_PKS3_l	#
.LVL103:
.LBE1092:
.LBE1110:
	.loc 10 56 0
	movq	%rbp, %rdi	# n,
	.loc 10 60 0
	movq	%r13, %r14	# tmp426, iftmp.65
.LVL104:
	.loc 10 56 0
	call	_ZN20matrixMultiplication11UsingMatrix9fibonacciEm	#
.LVL105:
	.loc 10 60 0
	cmpq	(%rbx), %rax	# MEM[(value_type &)results$_M_impl$_M_start_329], D.65522
	movl	$_ZL5Empty, %edx	#, tmp418
	.loc 10 56 0
	movq	%rax, %r12	#, D.65522
.LVL106:
	movq	%rax, 24(%rbx)	# D.65522, MEM[(value_type &)results$_M_impl$_M_start_329 + 24]
.LVL107:
	.loc 10 60 0
	movl	$_ZL3Red, %eax	#, iftmp.66
.LBB1111:
.LBB1018:
	.loc 11 2755 0
	movl	$_ZSt4cout, %edi	#,
.LBE1018:
.LBE1111:
	.loc 10 60 0
	cmove	%rdx, %rax	# tmp418,, iftmp.66
.LVL108:
	cmove	%rdx, %r14	# tmp418,, iftmp.65
.LBB1112:
.LBB1019:
.LBB1010:
.LBB1006:
.LBB1002:
.LBB998:
.LBB994:
	.loc 11 290 0
	movq	(%rax), %rsi	# MEM[(const struct basic_string *)iftmp.66_653]._M_dataplus._M_p, D.67294
.LBE994:
.LBE998:
.LBE1002:
.LBE1006:
.LBE1010:
	.loc 11 2755 0
	movq	-24(%rsi), %rdx	# MEM[(struct _Rep *)D.67294_654 + -24B].D.19289._M_length, MEM[(struct _Rep *)D.67294_654 + -24B].D.19289._M_length
	call	_ZSt16__ostream_insertIcSt11char_traitsIcEERSt13basic_ostreamIT_T0_ES6_PKS3_l	#
.LVL109:
.LBE1019:
.LBE1112:
.LBB1113:
.LBB1041:
	.loc 13 239 0
	movq	(%rax), %rdx	# D.67291_658->_vptr.basic_ostream, D.67291_658->_vptr.basic_ostream
.LBE1041:
.LBE1113:
.LBB1114:
.LBB1052:
	.loc 4 204 0
	movq	%r12, %rsi	# D.65522,
	movq	%rax, %rdi	# D.67291,
.LBE1052:
.LBE1114:
.LBB1115:
.LBB1042:
.LBB1034:
.LBB1030:
	.loc 5 658 0
	movq	-24(%rdx), %rdx	# MEM[(long int *)D.66788_661 + -24B], MEM[(long int *)D.66788_661 + -24B]
	movq	$23, 16(%rax,%rdx)	#, MEM[(streamsize *)D.66785_664 + 16B]
.LVL110:
.LBE1030:
.LBE1034:
.LBE1042:
.LBE1115:
.LBB1116:
.LBB1053:
	.loc 4 204 0
	call	_ZNSo9_M_insertIyEERSoT_	#
.LVL111:
.LBE1053:
.LBE1116:
.LBB1117:
.LBB1087:
.LBB1083:
.LBB1079:
.LBB1075:
.LBB1071:
.LBB1067:
	.loc 11 290 0
	movq	(%r14), %rsi	# MEM[(const struct basic_string *)iftmp.65_515]._M_dataplus._M_p, D.67301
.LBE1067:
.LBE1071:
.LBE1075:
.LBE1079:
.LBE1083:
	.loc 11 2755 0
	movq	%rax, %rdi	# D.66794,
	movq	-24(%rsi), %rdx	# MEM[(struct _Rep *)D.67301_668 + -24B].D.19289._M_length, MEM[(struct _Rep *)D.67301_668 + -24B].D.19289._M_length
	call	_ZSt16__ostream_insertIcSt11char_traitsIcEERSt13basic_ostreamIT_T0_ES6_PKS3_l	#
.LVL112:
.LBE1087:
.LBE1117:
.LBB1118:
.LBB1093:
	.loc 4 533 0
	movl	$3, %edx	#,
	movl	$.LC6, %esi	#,
	movq	%rax, %rdi	# D.67304,
	call	_ZSt16__ostream_insertIcSt11char_traitsIcEERSt13basic_ostreamIT_T0_ES6_PKS3_l	#
.LVL113:
.LBE1093:
.LBE1118:
	.loc 10 56 0
	movq	%rbp, %rdi	# n,
	.loc 10 60 0
	movq	%r13, %r14	# tmp426, iftmp.65
.LVL114:
	.loc 10 56 0
	call	_ZN23withoutLoopsOrRecursion9fibonacciEm	#
.LVL115:
	.loc 10 60 0
	cmpq	(%rbx), %rax	# MEM[(value_type &)results$_M_impl$_M_start_329], D.65522
	movl	$_ZL5Empty, %edx	#, tmp422
	.loc 10 56 0
	movq	%rax, %r12	#, D.65522
.LVL116:
	movq	%rax, 32(%rbx)	# D.65522, MEM[(value_type &)results$_M_impl$_M_start_329 + 32]
.LVL117:
	.loc 10 60 0
	movl	$_ZL3Red, %eax	#, iftmp.66
.LBB1119:
.LBB1020:
	.loc 11 2755 0
	movl	$_ZSt4cout, %edi	#,
.LBE1020:
.LBE1119:
	.loc 10 60 0
	cmove	%rdx, %rax	# tmp422,, iftmp.66
.LVL118:
	cmove	%rdx, %r14	# tmp422,, iftmp.65
.LBB1120:
.LBB1021:
.LBB1011:
.LBB1007:
.LBB1003:
.LBB999:
.LBB995:
	.loc 11 290 0
	movq	(%rax), %rsi	# MEM[(const struct basic_string *)iftmp.66_696]._M_dataplus._M_p, D.67294
.LBE995:
.LBE999:
.LBE1003:
.LBE1007:
.LBE1011:
	.loc 11 2755 0
	movq	-24(%rsi), %rdx	# MEM[(struct _Rep *)D.67294_697 + -24B].D.19289._M_length, MEM[(struct _Rep *)D.67294_697 + -24B].D.19289._M_length
	call	_ZSt16__ostream_insertIcSt11char_traitsIcEERSt13basic_ostreamIT_T0_ES6_PKS3_l	#
.LVL119:
.LBE1021:
.LBE1120:
.LBB1121:
.LBB1043:
	.loc 13 239 0
	movq	(%rax), %rdx	# D.67291_701->_vptr.basic_ostream, D.67291_701->_vptr.basic_ostream
.LBE1043:
.LBE1121:
.LBB1122:
.LBB1054:
	.loc 4 204 0
	movq	%r12, %rsi	# D.65522,
	movq	%rax, %rdi	# D.67291,
.LBE1054:
.LBE1122:
.LBB1123:
.LBB1044:
.LBB1035:
.LBB1031:
	.loc 5 658 0
	movq	-24(%rdx), %rdx	# MEM[(long int *)D.66788_704 + -24B], MEM[(long int *)D.66788_704 + -24B]
	movq	$23, 16(%rax,%rdx)	#, MEM[(streamsize *)D.66785_707 + 16B]
.LVL120:
.LBE1031:
.LBE1035:
.LBE1044:
.LBE1123:
.LBB1124:
.LBB1055:
	.loc 4 204 0
	call	_ZNSo9_M_insertIyEERSoT_	#
.LVL121:
.LBE1055:
.LBE1124:
.LBB1125:
.LBB1088:
.LBB1084:
.LBB1080:
.LBB1076:
.LBB1072:
.LBB1068:
	.loc 11 290 0
	movq	(%r14), %rsi	# MEM[(const struct basic_string *)iftmp.65_513]._M_dataplus._M_p, D.67301
.LBE1068:
.LBE1072:
.LBE1076:
.LBE1080:
.LBE1084:
	.loc 11 2755 0
	movq	%rax, %rdi	# D.66794,
	movq	-24(%rsi), %rdx	# MEM[(struct _Rep *)D.67301_711 + -24B].D.19289._M_length, MEM[(struct _Rep *)D.67301_711 + -24B].D.19289._M_length
	call	_ZSt16__ostream_insertIcSt11char_traitsIcEERSt13basic_ostreamIT_T0_ES6_PKS3_l	#
.LVL122:
.LBE1088:
.LBE1125:
.LBB1126:
.LBB1094:
	.loc 4 533 0
	movl	$3, %edx	#,
	movl	$.LC6, %esi	#,
	movq	%rax, %rdi	# D.67304,
	call	_ZSt16__ostream_insertIcSt11char_traitsIcEERSt13basic_ostreamIT_T0_ES6_PKS3_l	#
.LVL123:
.LBE1094:
.LBE1126:
.LBE1127:
.LBE1161:
.LBB1162:
.LBB1147:
.LBB1144:
	.loc 4 563 0
	movq	_ZSt4cout(%rip), %rax	# cout._vptr.basic_ostream, cout._vptr.basic_ostream
.LBE1144:
	.loc 10 104 0
	movq	-24(%rax), %rax	# MEM[(long int *)D.67314_342 + -24B], MEM[(long int *)D.67314_342 + -24B]
	movq	_ZSt4cout+240(%rax), %r12	# MEM[(const struct basic_ios *)D.67317_345 + 240B], D.67331
.LVL124:
.LBB1145:
.LBB1142:
.LBB1135:
.LBB1136:
	.loc 6 50 0
	testq	%r12, %r12	# D.67331
	je	.L115	#,
.LVL125:
.LBE1136:
.LBE1135:
.LBB1138:
.LBB1134:
	.loc 12 869 0
	cmpb	$0, 56(%r12)	#, MEM[(const struct ctype *)D.67331_346]._M_widen_ok
	jne	.L116	#,
	.loc 12 871 0
	movq	%r12, %rdi	# D.67331,
	call	_ZNKSt5ctypeIcE13_M_widen_initEv	#
.LVL126:
	.loc 12 872 0
	movq	(%r12), %rax	# MEM[(const struct ctype *)D.67331_346].D.22576._vptr.facet, MEM[(const struct ctype *)D.67331_346].D.22576._vptr.facet
	movl	$10, %esi	#,
	movq	%r12, %rdi	# D.67331,
	call	*48(%rax)	# MEM[(int (*__vtbl_ptr_type) () *)D.67339_359 + 48B]
.LVL127:
	jmp	.L93	#
.LVL128:
	.p2align 4,,10
	.p2align 3
.L114:
.LBE1134:
.LBE1138:
.LBE1142:
.LBE1145:
.LBE1147:
.LBE1162:
.LBE1166:
.LBB1167:
.LBB1168:
	.loc 4 533 0
	movl	$35, %edx	#,
	movl	$.LC7, %esi	#,
	movl	$_ZSt4cout, %edi	#,
	call	_ZSt16__ostream_insertIcSt11char_traitsIcEERSt13basic_ostreamIT_T0_ES6_PKS3_l	#
.LVL129:
.LBE1168:
.LBE1167:
.LBB1169:
.LBB1170:
.LBB1171:
	.loc 4 563 0
	movq	_ZSt4cout(%rip), %rax	# cout._vptr.basic_ostream, cout._vptr.basic_ostream
.LBE1171:
	.loc 10 104 0
	movq	-24(%rax), %rax	# MEM[(long int *)D.67361_366 + -24B], MEM[(long int *)D.67361_366 + -24B]
	movq	_ZSt4cout+240(%rax), %rbp	# MEM[(const struct basic_ios *)D.67358_369 + 240B], D.67370
.LVL130:
.LBB1185:
.LBB1172:
.LBB1173:
.LBB1174:
	.loc 6 50 0
	testq	%rbp, %rbp	# D.67370
	je	.L117	#,
.LVL131:
.LBE1174:
.LBE1173:
.LBB1176:
.LBB1177:
	.loc 12 869 0
	cmpb	$0, 56(%rbp)	#, MEM[(const struct ctype *)D.67370_370]._M_widen_ok
	je	.L96	#,
	.loc 12 870 0
	movzbl	67(%rbp), %eax	# MEM[(const struct ctype *)D.67370_370]._M_widen, D.67375
.LVL132:
.L97:
.LBE1177:
.LBE1176:
.LBE1172:
	.loc 4 563 0
	movsbl	%al, %esi	# D.67375, D.67375
	movl	$_ZSt4cout, %edi	#,
	call	_ZNSo3putEc	#
.LVL133:
.LBB1181:
.LBB1182:
	.loc 4 585 0
	movq	%rax, %rdi	# D.67355,
	call	_ZNSo5flushEv	#
.LVL134:
.LBE1182:
.LBE1181:
.LBE1185:
.LBE1170:
.LBE1169:
.LBB1190:
.LBB1191:
	.loc 13 239 0
	movq	_ZSt4cout(%rip), %rax	# cout._vptr.basic_ostream, cout._vptr.basic_ostream
.LBE1191:
.LBE1190:
	.loc 10 66 0
	movl	$93, %esi	#,
	movl	$_ZSt4cout, %edi	#,
.LVL135:
.LBB1195:
.LBB1194:
.LBB1192:
.LBB1193:
	.loc 5 658 0
	movq	-24(%rax), %rax	# MEM[(long int *)D.66814_197 + -24B], MEM[(long int *)D.66814_197 + -24B]
.LVL136:
	movq	$2, _ZSt4cout+16(%rax)	#, MEM[(streamsize *)D.66811_200 + 16B]
.LBE1193:
.LBE1192:
.LBE1194:
.LBE1195:
	.loc 10 66 0
	call	_ZNSolsEi	#
.LVL137:
.LBB1196:
.LBB1197:
	.loc 4 533 0
	movl	$3, %edx	#,
	movl	$.LC6, %esi	#,
	movq	%rax, %rdi	# D.65549,
.LBE1197:
.LBE1196:
	.loc 10 66 0
	movq	%rax, %rbp	#, D.65549
.LVL138:
.LBB1199:
.LBB1198:
	.loc 4 533 0
	call	_ZSt16__ostream_insertIcSt11char_traitsIcEERSt13basic_ostreamIT_T0_ES6_PKS3_l	#
.LVL139:
.LBE1198:
.LBE1199:
.LBB1200:
.LBB1201:
.LBB1202:
.LBB1203:
.LBB1204:
.LBB1205:
.LBB1206:
	.loc 11 290 0
	movq	_ZL3Red(%rip), %rsi	# Red._M_dataplus._M_p, D.67394
.LVL140:
.LBE1206:
.LBE1205:
.LBE1204:
.LBE1203:
.LBE1202:
	.loc 11 2755 0
	movq	%rbp, %rdi	# D.65549,
	movq	-24(%rsi), %rdx	# MEM[(struct _Rep *)D.67394_390 + -24B].D.19289._M_length, MEM[(struct _Rep *)D.67394_390 + -24B].D.19289._M_length
	call	_ZSt16__ostream_insertIcSt11char_traitsIcEERSt13basic_ostreamIT_T0_ES6_PKS3_l	#
.LVL141:
.LBE1201:
.LBE1200:
.LBB1207:
.LBB1208:
	.loc 10 69 0
	movq	(%rsp), %rbp	# functors, f
.LVL142:
	.loc 10 70 0
	movl	$92, %edi	#,
	call	*%rbp	# f
.LVL143:
	movl	$91, %edi	#,
	movq	%rax, %r12	#, D.65557
.LVL144:
	call	*%rbp	# f
.LVL145:
.LBB1209:
.LBB1210:
	.loc 13 239 0
	movq	_ZSt4cout(%rip), %rdx	# cout._vptr.basic_ostream, cout._vptr.basic_ostream
.LBE1210:
.LBE1209:
	.loc 10 70 0
	leaq	(%r12,%rax), %rsi	#, tmp385
.LBB1230:
.LBB1231:
	.loc 4 204 0
	movl	$_ZSt4cout, %edi	#,
.LVL146:
.LBE1231:
.LBE1230:
.LBB1241:
.LBB1221:
.LBB1211:
.LBB1212:
	.loc 5 658 0
	movq	-24(%rdx), %rdx	# MEM[(long int *)D.66828_522 + -24B], MEM[(long int *)D.66828_522 + -24B]
.LVL147:
	movq	$23, _ZSt4cout+16(%rdx)	#, MEM[(streamsize *)D.66825_531 + 16B]
.LVL148:
.LBE1212:
.LBE1211:
.LBE1221:
.LBE1241:
.LBB1242:
.LBB1232:
	.loc 4 204 0
	call	_ZNSo9_M_insertIyEERSoT_	#
.LVL149:
.LBE1232:
.LBE1242:
.LBB1243:
.LBB1244:
	.loc 4 533 0
	movl	$3, %edx	#,
	movl	$.LC6, %esi	#,
	movq	%rax, %rdi	# D.66834,
	call	_ZSt16__ostream_insertIcSt11char_traitsIcEERSt13basic_ostreamIT_T0_ES6_PKS3_l	#
.LVL150:
.LBE1244:
.LBE1243:
	.loc 10 69 0
	movq	8(%rsp), %rbp	# functors, f
.LVL151:
	.loc 10 70 0
	movl	$92, %edi	#,
	call	*%rbp	# f
.LVL152:
	movl	$91, %edi	#,
	movq	%rax, %r12	#, D.65557
	call	*%rbp	# f
.LVL153:
.LBB1249:
.LBB1222:
	.loc 13 239 0
	movq	_ZSt4cout(%rip), %rdx	# cout._vptr.basic_ostream, cout._vptr.basic_ostream
.LBE1222:
.LBE1249:
	.loc 10 70 0
	leaq	(%r12,%rax), %rsi	#, tmp389
.LBB1250:
.LBB1233:
	.loc 4 204 0
	movl	$_ZSt4cout, %edi	#,
.LVL154:
.LBE1233:
.LBE1250:
.LBB1251:
.LBB1223:
.LBB1217:
.LBB1213:
	.loc 5 658 0
	movq	-24(%rdx), %rdx	# MEM[(long int *)D.66828_617 + -24B], MEM[(long int *)D.66828_617 + -24B]
.LVL155:
	movq	$23, _ZSt4cout+16(%rdx)	#, MEM[(streamsize *)D.66825_642 + 16B]
.LVL156:
.LBE1213:
.LBE1217:
.LBE1223:
.LBE1251:
.LBB1252:
.LBB1234:
	.loc 4 204 0
	call	_ZNSo9_M_insertIyEERSoT_	#
.LVL157:
.LBE1234:
.LBE1252:
.LBB1253:
.LBB1245:
	.loc 4 533 0
	movl	$3, %edx	#,
	movl	$.LC6, %esi	#,
	movq	%rax, %rdi	# D.66834,
	call	_ZSt16__ostream_insertIcSt11char_traitsIcEERSt13basic_ostreamIT_T0_ES6_PKS3_l	#
.LVL158:
.LBE1245:
.LBE1253:
	.loc 10 69 0
	movq	16(%rsp), %rbp	# functors, f
.LVL159:
	.loc 10 70 0
	movl	$92, %edi	#,
	call	*%rbp	# f
.LVL160:
	movl	$91, %edi	#,
	movq	%rax, %r12	#, D.65557
	call	*%rbp	# f
.LVL161:
.LBB1254:
.LBB1224:
	.loc 13 239 0
	movq	_ZSt4cout(%rip), %rdx	# cout._vptr.basic_ostream, cout._vptr.basic_ostream
.LBE1224:
.LBE1254:
	.loc 10 70 0
	leaq	(%r12,%rax), %rsi	#, tmp393
.LBB1255:
.LBB1235:
	.loc 4 204 0
	movl	$_ZSt4cout, %edi	#,
.LVL162:
.LBE1235:
.LBE1255:
.LBB1256:
.LBB1225:
.LBB1218:
.LBB1214:
	.loc 5 658 0
	movq	-24(%rdx), %rdx	# MEM[(long int *)D.66828_7 + -24B], MEM[(long int *)D.66828_7 + -24B]
.LVL163:
	movq	$23, _ZSt4cout+16(%rdx)	#, MEM[(streamsize *)D.66825_436 + 16B]
.LVL164:
.LBE1214:
.LBE1218:
.LBE1225:
.LBE1256:
.LBB1257:
.LBB1236:
	.loc 4 204 0
	call	_ZNSo9_M_insertIyEERSoT_	#
.LVL165:
.LBE1236:
.LBE1257:
.LBB1258:
.LBB1246:
	.loc 4 533 0
	movl	$3, %edx	#,
	movl	$.LC6, %esi	#,
	movq	%rax, %rdi	# D.66834,
	call	_ZSt16__ostream_insertIcSt11char_traitsIcEERSt13basic_ostreamIT_T0_ES6_PKS3_l	#
.LVL166:
.LBE1246:
.LBE1258:
	.loc 10 69 0
	movq	24(%rsp), %rbp	# functors, f
.LVL167:
	.loc 10 70 0
	movl	$92, %edi	#,
	call	*%rbp	# f
.LVL168:
	movl	$91, %edi	#,
	movq	%rax, %r12	#, D.65557
	call	*%rbp	# f
.LVL169:
.LBB1259:
.LBB1226:
	.loc 13 239 0
	movq	_ZSt4cout(%rip), %rdx	# cout._vptr.basic_ostream, cout._vptr.basic_ostream
.LBE1226:
.LBE1259:
	.loc 10 70 0
	leaq	(%r12,%rax), %rsi	#, tmp397
.LBB1260:
.LBB1237:
	.loc 4 204 0
	movl	$_ZSt4cout, %edi	#,
.LVL170:
.LBE1237:
.LBE1260:
.LBB1261:
.LBB1227:
.LBB1219:
.LBB1215:
	.loc 5 658 0
	movq	-24(%rdx), %rdx	# MEM[(long int *)D.66828_422 + -24B], MEM[(long int *)D.66828_422 + -24B]
.LVL171:
	movq	$23, _ZSt4cout+16(%rdx)	#, MEM[(streamsize *)D.66825_415 + 16B]
.LVL172:
.LBE1215:
.LBE1219:
.LBE1227:
.LBE1261:
.LBB1262:
.LBB1238:
	.loc 4 204 0
	call	_ZNSo9_M_insertIyEERSoT_	#
.LVL173:
.LBE1238:
.LBE1262:
.LBB1263:
.LBB1247:
	.loc 4 533 0
	movl	$3, %edx	#,
	movl	$.LC6, %esi	#,
	movq	%rax, %rdi	# D.66834,
	call	_ZSt16__ostream_insertIcSt11char_traitsIcEERSt13basic_ostreamIT_T0_ES6_PKS3_l	#
.LVL174:
.LBE1247:
.LBE1263:
	.loc 10 69 0
	movq	32(%rsp), %rbp	# functors, f
.LVL175:
	.loc 10 70 0
	movl	$92, %edi	#,
	call	*%rbp	# f
.LVL176:
	movl	$91, %edi	#,
	movq	%rax, %r12	#, D.65557
	call	*%rbp	# f
.LVL177:
.LBB1264:
.LBB1228:
	.loc 13 239 0
	movq	_ZSt4cout(%rip), %rdx	# cout._vptr.basic_ostream, cout._vptr.basic_ostream
.LBE1228:
.LBE1264:
	.loc 10 70 0
	leaq	(%rax,%r12), %rsi	#, tmp401
.LBB1265:
.LBB1239:
	.loc 4 204 0
	movl	$_ZSt4cout, %edi	#,
.LVL178:
.LBE1239:
.LBE1265:
.LBB1266:
.LBB1229:
.LBB1220:
.LBB1216:
	.loc 5 658 0
	movq	-24(%rdx), %rdx	# MEM[(long int *)D.66828_203 + -24B], MEM[(long int *)D.66828_203 + -24B]
.LVL179:
	movq	$23, _ZSt4cout+16(%rdx)	#, MEM[(streamsize *)D.66825_206 + 16B]
.LVL180:
.LBE1216:
.LBE1220:
.LBE1229:
.LBE1266:
.LBB1267:
.LBB1240:
	.loc 4 204 0
	call	_ZNSo9_M_insertIyEERSoT_	#
.LVL181:
.LBE1240:
.LBE1267:
.LBB1268:
.LBB1248:
	.loc 4 533 0
	movl	$3, %edx	#,
	movl	$.LC6, %esi	#,
	movq	%rax, %rdi	# D.66834,
	call	_ZSt16__ostream_insertIcSt11char_traitsIcEERSt13basic_ostreamIT_T0_ES6_PKS3_l	#
.LVL182:
.LBE1248:
.LBE1268:
.LBE1208:
.LBE1207:
.LBB1269:
.LBB1270:
.LBB1271:
.LBB1272:
.LBB1273:
.LBB1274:
.LBB1275:
	.loc 11 290 0
	movq	_ZL5Reset(%rip), %rsi	# Reset._M_dataplus._M_p, D.67411
.LVL183:
.LBE1275:
.LBE1274:
.LBE1273:
.LBE1272:
.LBE1271:
	.loc 11 2755 0
	movl	$_ZSt4cout, %edi	#,
	movq	-24(%rsi), %rdx	# MEM[(struct _Rep *)D.67411_396 + -24B].D.19289._M_length, MEM[(struct _Rep *)D.67411_396 + -24B].D.19289._M_length
	call	_ZSt16__ostream_insertIcSt11char_traitsIcEERSt13basic_ostreamIT_T0_ES6_PKS3_l	#
.LVL184:
	movq	%rax, %r12	#, D.67408
.LVL185:
.LBE1270:
.LBE1269:
.LBB1276:
.LBB1277:
.LBB1278:
	.loc 4 563 0
	movq	(%rax), %rax	# D.67408_399->_vptr.basic_ostream, D.67408_399->_vptr.basic_ostream
.LVL186:
.LBE1278:
	.loc 10 104 0
	movq	-24(%rax), %rax	# MEM[(long int *)D.67424_400 + -24B], MEM[(long int *)D.67424_400 + -24B]
	movq	240(%r12,%rax), %rbp	# MEM[(const struct basic_ios *)D.67421_403 + 240B], D.67433
.LVL187:
.LBB1292:
.LBB1279:
.LBB1280:
.LBB1281:
	.loc 6 50 0
	testq	%rbp, %rbp	# D.67433
	je	.L118	#,
.LVL188:
.LBE1281:
.LBE1280:
.LBB1283:
.LBB1284:
	.loc 12 869 0
	cmpb	$0, 56(%rbp)	#, MEM[(const struct ctype *)D.67433_404]._M_widen_ok
	je	.L99	#,
	.loc 12 870 0
	movzbl	67(%rbp), %eax	# MEM[(const struct ctype *)D.67433_404]._M_widen, D.67438
.LVL189:
.L100:
.LBE1284:
.LBE1283:
.LBE1279:
	.loc 4 563 0
	movsbl	%al, %esi	# D.67438, D.67438
	movq	%r12, %rdi	# D.67408,
	call	_ZNSo3putEc	#
.LVL190:
.LBB1288:
.LBB1289:
	.loc 4 585 0
	movq	%rax, %rdi	# D.67418,
	call	_ZNSo5flushEv	#
.LEHE1:
.LVL191:
.LBE1289:
.LBE1288:
.LBE1292:
.LBE1277:
.LBE1276:
.LBE1320:
	.loc 10 73 0
	addq	$48, %rsp	#,
	.cfi_remember_state
	.cfi_def_cfa_offset 48
.LBB1321:
.LBB1297:
.LBB1298:
.LBB1299:
.LBB1300:
.LBB1301:
	.loc 16 100 0
	movq	%rbx, %rdi	# results$_M_impl$_M_start,
.LBE1301:
.LBE1300:
.LBE1299:
.LBE1298:
.LBE1297:
.LBE1321:
	.loc 10 73 0
	popq	%rbx	#
	.cfi_def_cfa_offset 40
.LVL192:
	popq	%rbp	#
	.cfi_def_cfa_offset 32
.LVL193:
	popq	%r12	#
	.cfi_def_cfa_offset 24
.LVL194:
	popq	%r13	#
	.cfi_def_cfa_offset 16
	popq	%r14	#
	.cfi_def_cfa_offset 8
.LVL195:
.LBB1322:
.LBB1306:
.LBB1305:
.LBB1304:
.LBB1303:
.LBB1302:
	.loc 16 100 0
	jmp	_ZdlPv	#
.LVL196:
.L113:
	.cfi_restore_state
	movl	$_ZSt4cout, %edi	#,
.LEHB2:
	call	_ZStlsISt11char_traitsIcEERSt13basic_ostreamIcT_ES5_PKc.part.1	#
.LVL197:
	jmp	.L82	#
.LVL198:
.L79:
.LBE1302:
.LBE1303:
.LBE1304:
.LBE1305:
.LBE1306:
.LBB1307:
.LBB910:
.LBB908:
.LBB905:
.LBB901:
.LBB900:
	.loc 12 871 0
	movq	%rbx, %rdi	# D.67192,
	call	_ZNKSt5ctypeIcE13_M_widen_initEv	#
.LVL199:
	.loc 12 872 0
	movq	(%rbx), %rax	# MEM[(const struct ctype *)D.67192_272].D.22576._vptr.facet, MEM[(const struct ctype *)D.67192_272].D.22576._vptr.facet
	movl	$10, %esi	#,
	movq	%rbx, %rdi	# D.67192,
	call	*48(%rax)	# MEM[(int (*__vtbl_ptr_type) () *)D.67200_285 + 48B]
.LEHE2:
.LVL200:
	jmp	.L80	#
.LVL201:
.L99:
.LBE900:
.LBE901:
.LBE905:
.LBE908:
.LBE910:
.LBE1307:
.LBB1308:
.LBB1295:
.LBB1293:
.LBB1290:
.LBB1286:
.LBB1285:
	.loc 12 871 0
	movq	%rbp, %rdi	# D.67433,
.LEHB3:
	call	_ZNKSt5ctypeIcE13_M_widen_initEv	#
.LVL202:
	.loc 12 872 0
	movq	0(%rbp), %rax	# MEM[(const struct ctype *)D.67433_404].D.22576._vptr.facet, MEM[(const struct ctype *)D.67433_404].D.22576._vptr.facet
	movl	$10, %esi	#,
	movq	%rbp, %rdi	# D.67433,
	call	*48(%rax)	# MEM[(int (*__vtbl_ptr_type) () *)D.67441_417 + 48B]
.LVL203:
	jmp	.L100	#
.LVL204:
.L96:
.LBE1285:
.LBE1286:
.LBE1290:
.LBE1293:
.LBE1295:
.LBE1308:
.LBB1309:
.LBB1188:
.LBB1186:
.LBB1183:
.LBB1179:
.LBB1178:
	.loc 12 871 0
	movq	%rbp, %rdi	# D.67370,
	call	_ZNKSt5ctypeIcE13_M_widen_initEv	#
.LVL205:
	.loc 12 872 0
	movq	0(%rbp), %rax	# MEM[(const struct ctype *)D.67370_370].D.22576._vptr.facet, MEM[(const struct ctype *)D.67370_370].D.22576._vptr.facet
	movl	$10, %esi	#,
	movq	%rbp, %rdi	# D.67370,
	call	*48(%rax)	# MEM[(int (*__vtbl_ptr_type) () *)D.67378_383 + 48B]
.LEHE3:
.LVL206:
	jmp	.L97	#
.LVL207:
.L85:
.LBE1178:
.LBE1179:
.LBE1183:
.LBE1186:
.LBE1188:
.LBE1309:
.LBB1310:
.LBB954:
.LBB951:
.LBB947:
.LBB942:
.LBB941:
	.loc 12 871 0
	movq	%rbx, %rdi	# D.67237,
.LEHB4:
	call	_ZNKSt5ctypeIcE13_M_widen_initEv	#
.LVL208:
	.loc 12 872 0
	movq	(%rbx), %rax	# MEM[(const struct ctype *)D.67237_298].D.22576._vptr.facet, MEM[(const struct ctype *)D.67237_298].D.22576._vptr.facet
	movl	$10, %esi	#,
	movq	%rbx, %rdi	# D.67237,
	call	*48(%rax)	# MEM[(int (*__vtbl_ptr_type) () *)D.67245_311 + 48B]
.LEHE4:
.LVL209:
	jmp	.L86	#
.LVL210:
.L115:
.LEHB5:
.LBE941:
.LBE942:
.LBE947:
.LBE951:
.LBE954:
.LBE1310:
.LBB1311:
.LBB1163:
.LBB1148:
.LBB1146:
.LBB1143:
.LBB1139:
.LBB1137:
	.loc 6 51 0
	call	_ZSt16__throw_bad_castv	#
.LEHE5:
.LVL211:
.L106:
	movq	%rax, %rbp	#, tmp409
.LVL212:
.LBE1137:
.LBE1139:
.LBE1143:
.LBE1146:
.LBE1148:
.LBE1163:
.LBE1311:
.LBB1312:
.LBB1313:
.LBB1314:
.LBB1315:
.LBB1316:
	.loc 16 100 0
	movq	%rbx, %rdi	# results$_M_impl$_M_start,
	call	_ZdlPv	#
.LVL213:
	movq	%rbp, %rdi	# tmp409,
.LEHB6:
	call	_Unwind_Resume	#
.LEHE6:
.LVL214:
.L118:
.LEHB7:
.LBE1316:
.LBE1315:
.LBE1314:
.LBE1313:
.LBE1312:
.LBB1317:
.LBB1296:
.LBB1294:
.LBB1291:
.LBB1287:
.LBB1282:
	.loc 6 51 0
	call	_ZSt16__throw_bad_castv	#
.LVL215:
.L117:
.LBE1282:
.LBE1287:
.LBE1291:
.LBE1294:
.LBE1296:
.LBE1317:
.LBB1318:
.LBB1189:
.LBB1187:
.LBB1184:
.LBB1180:
.LBB1175:
	call	_ZSt16__throw_bad_castv	#
.LEHE7:
.LVL216:
.L84:
.LBE1175:
.LBE1180:
.LBE1184:
.LBE1187:
.LBE1189:
.LBE1318:
.LBB1319:
.LBB911:
.LBB909:
.LBB906:
.LBB902:
.LBB897:
	.p2align 4,,5
.LEHB8:
	call	_ZSt16__throw_bad_castv	#
.LEHE8:
.LVL217:
.LBE897:
.LBE902:
.LBE906:
.LBE909:
.LBE911:
.LBE1319:
.LBE1322:
	.cfi_endproc
.LFE3252:
	.globl	__gxx_personality_v0
	.section	.gcc_except_table,"a",@progbits
.LLSDA3252:
	.byte	0xff
	.byte	0xff
	.byte	0x1
	.uleb128 .LLSDACSE3252-.LLSDACSB3252
.LLSDACSB3252:
	.uleb128 .LEHB0-.LFB3252
	.uleb128 .LEHE0-.LEHB0
	.uleb128 0
	.uleb128 0
	.uleb128 .LEHB1-.LFB3252
	.uleb128 .LEHE1-.LEHB1
	.uleb128 .L106-.LFB3252
	.uleb128 0
	.uleb128 .LEHB2-.LFB3252
	.uleb128 .LEHE2-.LEHB2
	.uleb128 0
	.uleb128 0
	.uleb128 .LEHB3-.LFB3252
	.uleb128 .LEHE3-.LEHB3
	.uleb128 .L106-.LFB3252
	.uleb128 0
	.uleb128 .LEHB4-.LFB3252
	.uleb128 .LEHE4-.LEHB4
	.uleb128 0
	.uleb128 0
	.uleb128 .LEHB5-.LFB3252
	.uleb128 .LEHE5-.LEHB5
	.uleb128 .L106-.LFB3252
	.uleb128 0
	.uleb128 .LEHB6-.LFB3252
	.uleb128 .LEHE6-.LEHB6
	.uleb128 0
	.uleb128 0
	.uleb128 .LEHB7-.LFB3252
	.uleb128 .LEHE7-.LEHB7
	.uleb128 .L106-.LFB3252
	.uleb128 0
	.uleb128 .LEHB8-.LFB3252
	.uleb128 .LEHE8-.LEHB8
	.uleb128 0
	.uleb128 0
.LLSDACSE3252:
	.text
	.size	_Z14CompareResultsv, .-_Z14CompareResultsv
	.section	.rodata.str1.8
	.align 8
.LC8:
	.string	"Now we'll spend a minute or two running the slow, bad version of Fibonacci"
	.section	.rodata.str1.1
.LC10:
	.string	"["
.LC11:
	.string	"]:\t"
.LC13:
	.string	" took "
.LC14:
	.string	" seconds to run just ONCE "
	.text
	.p2align 4,,15
	.globl	_Z21TestBadAndInefficientv
	.type	_Z21TestBadAndInefficientv, @function
_Z21TestBadAndInefficientv:
.LFB3259:
	.loc 10 77 0
	.cfi_startproc
.LVL218:
	pushq	%r12	#
	.cfi_def_cfa_offset 16
	.cfi_offset 12, -16
.LBB1460:
.LBB1461:
	.loc 11 2755 0
	movl	$_ZSt4cout, %edi	#,
.LBE1461:
.LBE1460:
	.loc 10 77 0
	pushq	%rbp	#
	.cfi_def_cfa_offset 24
	.cfi_offset 6, -24
	pushq	%rbx	#
	.cfi_def_cfa_offset 32
	.cfi_offset 3, -32
	subq	$32, %rsp	#,
	.cfi_def_cfa_offset 64
.LBB1469:
.LBB1467:
.LBB1462:
.LBB1463:
.LBB1464:
.LBB1465:
.LBB1466:
	.loc 11 290 0
	movq	_ZL10BeginTitle(%rip), %rsi	# BeginTitle._M_dataplus._M_p, D.67593
.LVL219:
.LBE1466:
.LBE1465:
.LBE1464:
.LBE1463:
.LBE1462:
	.loc 11 2755 0
	movq	-24(%rsi), %rdx	# MEM[(struct _Rep *)D.67593_140 + -24B].D.19289._M_length, MEM[(struct _Rep *)D.67593_140 + -24B].D.19289._M_length
	call	_ZSt16__ostream_insertIcSt11char_traitsIcEERSt13basic_ostreamIT_T0_ES6_PKS3_l	#
.LVL220:
.LBE1467:
.LBE1469:
.LBB1470:
.LBB1471:
	.loc 4 533 0
	movl	$74, %edx	#,
	movl	$.LC8, %esi	#,
	movq	%rax, %rdi	# D.67590,
.LBE1471:
.LBE1470:
.LBB1473:
.LBB1468:
	.loc 11 2755 0
	movq	%rax, %rbx	#, D.67590
.LVL221:
.LBE1468:
.LBE1473:
.LBB1474:
.LBB1472:
	.loc 4 533 0
	call	_ZSt16__ostream_insertIcSt11char_traitsIcEERSt13basic_ostreamIT_T0_ES6_PKS3_l	#
.LVL222:
.LBE1472:
.LBE1474:
.LBB1475:
.LBB1476:
.LBB1477:
.LBB1478:
.LBB1479:
.LBB1480:
.LBB1481:
	.loc 11 290 0
	movq	_ZL8EndTitle(%rip), %rsi	# EndTitle._M_dataplus._M_p, D.67606
.LVL223:
.LBE1481:
.LBE1480:
.LBE1479:
.LBE1478:
.LBE1477:
	.loc 11 2755 0
	movq	%rbx, %rdi	# D.67590,
	movq	-24(%rsi), %rdx	# MEM[(struct _Rep *)D.67606_146 + -24B].D.19289._M_length, MEM[(struct _Rep *)D.67606_146 + -24B].D.19289._M_length
	call	_ZSt16__ostream_insertIcSt11char_traitsIcEERSt13basic_ostreamIT_T0_ES6_PKS3_l	#
.LVL224:
	movq	%rax, %rbp	#, D.67609
.LVL225:
.LBE1476:
.LBE1475:
.LBB1482:
.LBB1483:
.LBB1484:
	.loc 4 563 0
	movq	(%rax), %rax	# D.67609_149->_vptr.basic_ostream, D.67609_149->_vptr.basic_ostream
.LVL226:
.LBE1484:
	.loc 10 104 0
	movq	-24(%rax), %rax	# MEM[(long int *)D.67621_150 + -24B], MEM[(long int *)D.67621_150 + -24B]
	movq	240(%rbp,%rax), %rbx	# MEM[(const struct basic_ios *)D.67618_153 + 240B], D.67630
.LVL227:
.LBB1499:
.LBB1485:
.LBB1486:
.LBB1487:
	.loc 6 50 0
	testq	%rbx, %rbx	# D.67630
	je	.L129	#,
.LVL228:
.LBE1487:
.LBE1486:
.LBB1489:
.LBB1490:
	.loc 12 869 0
	cmpb	$0, 56(%rbx)	#, MEM[(const struct ctype *)D.67630_154]._M_widen_ok
	je	.L121	#,
	.loc 12 870 0
	movzbl	67(%rbx), %eax	# MEM[(const struct ctype *)D.67630_154]._M_widen, D.67635
.LVL229:
.L122:
.LBE1490:
.LBE1489:
.LBE1485:
	.loc 4 563 0
	movsbl	%al, %esi	# D.67635, D.67635
	movq	%rbp, %rdi	# D.67609,
.LBE1499:
.LBE1483:
.LBE1482:
.LBB1506:
.LBB1507:
.LBB1508:
.LBB1509:
.LBB1510:
	.loc 10 79 0
	xorl	%r12d, %r12d	# n
.LBE1510:
.LBE1509:
.LBE1508:
.LBE1507:
.LBE1506:
.LBB1638:
.LBB1503:
.LBB1500:
	.loc 4 563 0
	call	_ZNSo3putEc	#
.LVL230:
.LBB1494:
.LBB1495:
	.loc 4 585 0
	movq	%rax, %rdi	# D.67615,
.LBE1495:
.LBE1494:
.LBE1500:
.LBE1503:
.LBE1638:
.LBB1639:
.LBB1634:
.LBB1519:
.LBB1515:
.LBB1511:
	.file 17 "StopWatch.h"
	.loc 17 12 0
	xorl	%ebp, %ebp	# add_acc.161
.LVL231:
.LBE1511:
.LBE1515:
.LBE1519:
.LBE1634:
.LBE1639:
.LBB1640:
.LBB1504:
.LBB1501:
.LBB1497:
.LBB1496:
	.loc 4 585 0
	call	_ZNSo5flushEv	#
.LVL232:
.LBE1496:
.LBE1497:
.LBE1501:
.LBE1504:
.LBE1640:
.LBB1641:
.LBB1635:
.LBB1520:
.LBB1516:
.LBB1512:
	.loc 17 12 0
	call	_ZNSt6chrono12system_clock3nowEv	#
.LVL233:
	.loc 9 25 0
	movl	$1, %esi	#, iftmp.55
	.loc 17 12 0
	movq	%rax, 16(%rsp)	# tmp137, sw.start_
.LVL234:
	.p2align 4,,10
	.p2align 3
.L142:
	addq	%rsi, %rbp	# iftmp.55, fibo
.LVL235:
.LBE1512:
.LBE1516:
.LBE1520:
.LBB1521:
.LBB1522:
	.loc 17 15 0
	call	_ZNSt6chrono12system_clock3nowEv	#
.LVL236:
	movq	%rax, 24(%rsp)	# tmp140, sw.end_
.LVL237:
.LBE1522:
.LBE1521:
.LBB1523:
.LBB1524:
.LBB1525:
.LBB1526:
	.file 18 "/usr/libexec/openshift/cartridges/c9-0.1/root/cloud9-gcc-linux-toolchain/bin/../lib/gcc/x86_64-redhat-linux/4.7.2/../../../../include/c++/4.7.2/chrono"
	.loc 18 376 0
	subq	16(%rsp), %rax	# MEM[(const struct time_point *)&sw].__r, tmp141
.LBE1526:
.LBE1525:
.LBE1524:
.LBE1523:
.LBB1532:
.LBB1533:
	.loc 4 533 0
	movl	$1, %edx	#,
	movl	$.LC10, %esi	#,
	movl	$_ZSt4cout, %edi	#,
.LBE1533:
.LBE1532:
.LBB1535:
.LBB1527:
.LBB1528:
.LBB1529:
.LBB1530:
.LBB1531:
	.loc 18 142 0
	cvtsi2sdq	%rax, %xmm0	# tmp141,
	divsd	.LC9(%rip), %xmm0	#,
	movsd	%xmm0, 8(%rsp)	#, %sfp
.LVL238:
.LBE1531:
.LBE1530:
.LBE1529:
.LBE1528:
.LBE1527:
.LBE1535:
.LBB1536:
.LBB1534:
	.loc 4 533 0
	call	_ZSt16__ostream_insertIcSt11char_traitsIcEERSt13basic_ostreamIT_T0_ES6_PKS3_l	#
.LVL239:
.LBE1534:
.LBE1536:
.LBB1537:
.LBB1538:
	.loc 4 169 0
	movq	%r12, %rsi	# n,
	movl	$_ZSt4cout, %edi	#,
	call	_ZNSo9_M_insertImEERSoT_	#
.LVL240:
.LBE1538:
.LBE1537:
.LBB1540:
.LBB1541:
	.loc 4 533 0
	movl	$3, %edx	#,
.LBE1541:
.LBE1540:
.LBB1543:
.LBB1539:
	.loc 4 169 0
	movq	%rax, %rbx	#, D.66261
.LVL241:
.LBE1539:
.LBE1543:
.LBB1544:
.LBB1542:
	.loc 4 533 0
	movl	$.LC11, %esi	#,
	movq	%rax, %rdi	# D.66261,
	call	_ZSt16__ostream_insertIcSt11char_traitsIcEERSt13basic_ostreamIT_T0_ES6_PKS3_l	#
.LVL242:
.LBE1542:
.LBE1544:
.LBB1545:
.LBB1546:
	.loc 13 239 0
	movq	(%rbx), %rax	# MEM[(struct basic_ostream *)D.66261_79]._vptr.basic_ostream, MEM[(struct basic_ostream *)D.66261_79]._vptr.basic_ostream
.LBE1546:
.LBE1545:
.LBB1550:
.LBB1551:
	.loc 4 204 0
	movq	%rbp, %rsi	# fibo,
	movq	%rbx, %rdi	# D.66261,
.LBE1551:
.LBE1550:
.LBB1553:
.LBB1549:
.LBB1547:
.LBB1548:
	.loc 5 658 0
	movq	-24(%rax), %rax	# MEM[(long int *)D.66271_82 + -24B], MEM[(long int *)D.66271_82 + -24B]
	movq	$22, 16(%rbx,%rax)	#, MEM[(streamsize *)D.66268_85 + 16B]
.LVL243:
.LBE1548:
.LBE1547:
.LBE1549:
.LBE1553:
	.loc 10 87 0
	movl	$_ZL5Empty, %ebx	#, iftmp.54
.LVL244:
.LBB1554:
.LBB1552:
	.loc 4 204 0
	call	_ZNSo9_M_insertIyEERSoT_	#
.LVL245:
.LBE1552:
.LBE1554:
	.loc 10 87 0
	movsd	8(%rsp), %xmm0	# %sfp,
	movl	$_ZL3Red, %eax	#, tmp165
.LBB1555:
.LBB1556:
	.loc 4 533 0
	movl	$6, %edx	#,
	movl	$.LC13, %esi	#,
	movl	$_ZSt4cout, %edi	#,
.LBE1556:
.LBE1555:
	.loc 10 87 0
	ucomisd	.LC12(%rip), %xmm0	#,
	cmova	%rax, %rbx	# tmp165,, iftmp.54
.LVL246:
.LBB1558:
.LBB1557:
	.loc 4 533 0
	call	_ZSt16__ostream_insertIcSt11char_traitsIcEERSt13basic_ostreamIT_T0_ES6_PKS3_l	#
.LVL247:
.LBE1557:
.LBE1558:
.LBB1559:
.LBB1560:
.LBB1561:
.LBB1562:
.LBB1563:
.LBB1564:
.LBB1565:
	.loc 11 290 0
	movq	(%rbx), %rsi	# MEM[(const struct basic_string *)iftmp.54_2]._M_dataplus._M_p, D.67680
.LVL248:
.LBE1565:
.LBE1564:
.LBE1563:
.LBE1562:
.LBE1561:
	.loc 11 2755 0
	movl	$_ZSt4cout, %edi	#,
	movq	-24(%rsi), %rdx	# MEM[(struct _Rep *)D.67680_190 + -24B].D.19289._M_length, MEM[(struct _Rep *)D.67680_190 + -24B].D.19289._M_length
	call	_ZSt16__ostream_insertIcSt11char_traitsIcEERSt13basic_ostreamIT_T0_ES6_PKS3_l	#
.LVL249:
.LBE1560:
.LBE1559:
.LBB1566:
.LBB1567:
	.loc 13 239 0
	movq	(%rax), %rdx	# D.67683_193->_vptr.basic_ostream, D.66287
.LVL250:
.LBE1567:
.LBE1566:
.LBB1571:
.LBB1572:
	.loc 4 219 0
	movsd	8(%rsp), %xmm0	# %sfp,
	movq	%rax, %rdi	# D.67683,
.LBE1572:
.LBE1571:
.LBB1574:
.LBB1570:
.LBB1568:
.LBB1569:
	.loc 5 658 0
	movq	-24(%rdx), %rcx	# MEM[(long int *)D.66287_88 + -24B], MEM[(long int *)D.66287_88 + -24B]
	movq	$10, 16(%rax,%rcx)	#, MEM[(streamsize *)D.66284_91 + 16B]
.LBE1569:
.LBE1568:
.LBE1570:
.LBE1574:
.LBB1575:
.LBB1576:
	.loc 4 130 0
	movq	%rax, %rcx	# D.67683, D.66294
	addq	-24(%rdx), %rcx	# MEM[(long int *)D.66287_88 + -24B], D.66294
.LVL251:
.LBB1577:
.LBB1578:
.LBB1579:
.LBB1580:
.LBB1581:
	.loc 5 78 0
	movl	24(%rcx), %edx	# D.66294_95->_M_flags, tmp154
.LVL252:
.LBE1581:
.LBE1580:
.LBE1579:
.LBE1578:
.LBE1577:
.LBE1576:
.LBE1575:
.LBB1591:
.LBB1592:
.LBB1593:
	.loc 5 635 0
	movq	$6, 8(%rcx)	#, MEM[(streamsize *)D.66294_95 + 8B]
.LBE1593:
.LBE1592:
.LBE1591:
.LBB1594:
.LBB1590:
.LBB1589:
.LBB1588:
.LBB1587:
.LBB1583:
.LBB1582:
	.loc 5 78 0
	andl	$-261, %edx	#, tmp154
.LVL253:
.LBE1582:
.LBE1583:
.LBB1584:
.LBB1585:
.LBB1586:
	.loc 5 82 0
	orl	$4, %edx	#, tmp154
.LVL254:
	movl	%edx, 24(%rcx)	# tmp154, MEM[(_Ios_Fmtflags &)D.66294_95 + 24]
.LVL255:
.LBE1586:
.LBE1585:
.LBE1584:
.LBE1587:
.LBE1588:
.LBE1589:
.LBE1590:
.LBE1594:
.LBB1595:
.LBB1573:
	.loc 4 219 0
	call	_ZNSo9_M_insertIdEERSoT_	#
.LVL256:
.LBE1573:
.LBE1595:
.LBB1596:
.LBB1597:
.LBB1598:
.LBB1599:
.LBB1600:
.LBB1601:
.LBB1602:
	.loc 11 290 0
	movq	_ZL5Reset(%rip), %rsi	# Reset._M_dataplus._M_p, D.67691
.LVL257:
.LBE1602:
.LBE1601:
.LBE1600:
.LBE1599:
.LBE1598:
	.loc 11 2755 0
	movq	%rax, %rdi	# D.66313,
	movq	-24(%rsi), %rdx	# MEM[(struct _Rep *)D.67691_194 + -24B].D.19289._M_length, MEM[(struct _Rep *)D.67691_194 + -24B].D.19289._M_length
	call	_ZSt16__ostream_insertIcSt11char_traitsIcEERSt13basic_ostreamIT_T0_ES6_PKS3_l	#
.LVL258:
.LBE1597:
.LBE1596:
.LBB1604:
.LBB1605:
	.loc 4 533 0
	movl	$26, %edx	#,
.LBE1605:
.LBE1604:
.LBB1607:
.LBB1603:
	.loc 11 2755 0
	movq	%rax, %rbx	#, D.67688
.LVL259:
.LBE1603:
.LBE1607:
.LBB1608:
.LBB1606:
	.loc 4 533 0
	movl	$.LC14, %esi	#,
	movq	%rax, %rdi	# D.67688,
	call	_ZSt16__ostream_insertIcSt11char_traitsIcEERSt13basic_ostreamIT_T0_ES6_PKS3_l	#
.LVL260:
.LBE1606:
.LBE1608:
.LBB1609:
.LBB1610:
.LBB1611:
	.loc 4 563 0
	movq	(%rbx), %rax	# D.67688_197->_vptr.basic_ostream, D.67688_197->_vptr.basic_ostream
.LBE1611:
	.loc 10 104 0
	movq	-24(%rax), %rax	# MEM[(long int *)D.67710_200 + -24B], MEM[(long int *)D.67710_200 + -24B]
	movq	240(%rbx,%rax), %rbp	# MEM[(const struct basic_ios *)D.67707_203 + 240B], D.67719
.LVL261:
.LBB1622:
.LBB1612:
.LBB1613:
.LBB1614:
	.loc 6 50 0
	testq	%rbp, %rbp	# D.67719
	je	.L129	#,
.LVL262:
.LBE1614:
.LBE1613:
.LBB1615:
.LBB1616:
	.loc 12 869 0
	cmpb	$0, 56(%rbp)	#, MEM[(const struct ctype *)D.67719_204]._M_widen_ok
	je	.L130	#,
	.loc 12 870 0
	movzbl	67(%rbp), %eax	# MEM[(const struct ctype *)D.67719_204]._M_widen, D.67724
.LVL263:
.L131:
.LBE1616:
.LBE1615:
.LBE1612:
	.loc 4 563 0
	movsbl	%al, %esi	# D.67724, D.67724
	movq	%rbx, %rdi	# D.67688,
	call	_ZNSo3putEc	#
.LVL264:
.LBB1619:
.LBB1620:
	.loc 4 585 0
	movq	%rax, %rdi	# D.67704,
	call	_ZNSo5flushEv	#
.LVL265:
.LBE1620:
.LBE1619:
.LBE1622:
.LBE1610:
.LBE1609:
	.loc 10 91 0
	movsd	8(%rsp), %xmm0	# %sfp,
	ucomisd	.LC15(%rip), %xmm0	#,
	ja	.L119	#,
.LBE1635:
	.loc 10 79 0
	addq	$1, %r12	#, n
.LVL266:
	cmpq	$93, %r12	#, n
	je	.L119	#,
.LBB1636:
.LBB1625:
.LBB1517:
.LBB1513:
	.loc 17 12 0
	call	_ZNSt6chrono12system_clock3nowEv	#
.LVL267:
.LBE1513:
.LBE1517:
.LBE1625:
.LBB1626:
.LBB1627:
	.loc 9 25 0
	cmpq	$1, %r12	#, n
.LBE1627:
.LBE1626:
.LBB1630:
.LBB1518:
.LBB1514:
	.loc 17 12 0
	movq	%rax, 16(%rsp)	# tmp138, sw.start_
.LVL268:
.LBE1514:
.LBE1518:
.LBE1630:
.LBB1631:
.LBB1628:
	.loc 9 25 0
	je	.L144	#,
	movq	%r12, %rbx	# n, n
.LVL269:
	xorl	%ebp, %ebp	# add_acc.161
.LVL270:
	jmp	.L124	#
	.p2align 4,,10
	.p2align 3
.L126:
	cmpq	$1, %rbx	#, n
	jbe	.L145	#,
.L124:
	.loc 10 76 0
	leaq	-1(%rbx), %rdi	#, tmp139
	.loc 9 25 0
	subq	$2, %rbx	#, n
	call	_ZN21evilBadAndInefficient9fibonacciEm	#
.LVL271:
	addq	%rax, %rbp	# D.67648, add_acc.161
	cmpq	$92, %rbx	#, n
	jbe	.L126	#,
	movq	$-1, %rsi	#, iftmp.55
	jmp	.L142	#
	.p2align 4,,10
	.p2align 3
.L145:
	movl	$1, %esi	#, iftmp.55
	jmp	.L142	#
.LVL272:
	.p2align 4,,10
	.p2align 3
.L130:
.LBE1628:
.LBE1631:
.LBB1632:
.LBB1624:
.LBB1623:
.LBB1621:
.LBB1618:
.LBB1617:
	.loc 12 871 0
	movq	%rbp, %rdi	# D.67719,
	call	_ZNKSt5ctypeIcE13_M_widen_initEv	#
.LVL273:
	.loc 12 872 0
	movq	0(%rbp), %rax	# MEM[(const struct ctype *)D.67719_204].D.22576._vptr.facet, MEM[(const struct ctype *)D.67719_204].D.22576._vptr.facet
	movl	$10, %esi	#,
	movq	%rbp, %rdi	# D.67719,
	call	*48(%rax)	# MEM[(int (*__vtbl_ptr_type) () *)D.67727_217 + 48B]
.LVL274:
	jmp	.L131	#
.LVL275:
.L119:
.LBE1617:
.LBE1618:
.LBE1621:
.LBE1623:
.LBE1624:
.LBE1632:
.LBE1636:
.LBE1641:
	.loc 10 96 0
	addq	$32, %rsp	#,
	.cfi_remember_state
	.cfi_def_cfa_offset 32
	popq	%rbx	#
	.cfi_def_cfa_offset 24
.LVL276:
	popq	%rbp	#
	.cfi_def_cfa_offset 16
.LVL277:
	popq	%r12	#
	.cfi_def_cfa_offset 8
	ret
.LVL278:
.L121:
	.cfi_restore_state
.LBB1642:
.LBB1505:
.LBB1502:
.LBB1498:
.LBB1492:
.LBB1491:
	.loc 12 871 0
	movq	%rbx, %rdi	# D.67630,
	call	_ZNKSt5ctypeIcE13_M_widen_initEv	#
.LVL279:
	.loc 12 872 0
	movq	(%rbx), %rax	# MEM[(const struct ctype *)D.67630_154].D.22576._vptr.facet, MEM[(const struct ctype *)D.67630_154].D.22576._vptr.facet
	movl	$10, %esi	#,
	movq	%rbx, %rdi	# D.67630,
	call	*48(%rax)	# MEM[(int (*__vtbl_ptr_type) () *)D.67638_167 + 48B]
.LVL280:
	jmp	.L122	#
.LVL281:
.L129:
.LBE1491:
.LBE1492:
.LBB1493:
.LBB1488:
	.loc 6 51 0
	call	_ZSt16__throw_bad_castv	#
.LVL282:
.L144:
.LBE1488:
.LBE1493:
.LBE1498:
.LBE1502:
.LBE1505:
.LBE1642:
.LBB1643:
.LBB1637:
.LBB1633:
.LBB1629:
	.loc 9 25 0
	xorl	%ebp, %ebp	# add_acc.161
.LVL283:
	movl	$1, %esi	#, iftmp.55
	jmp	.L142	#
.LBE1629:
.LBE1633:
.LBE1637:
.LBE1643:
	.cfi_endproc
.LFE3259:
	.size	_Z21TestBadAndInefficientv, .-_Z21TestBadAndInefficientv
	.section	.text.startup,"ax",@progbits
	.p2align 4,,15
	.globl	main
	.type	main, @function
main:
.LFB3260:
	.loc 10 99 0
	.cfi_startproc
	subq	$8, %rsp	#,
	.cfi_def_cfa_offset 16
	.loc 10 100 0
	call	_Z14CompareResultsv	#
.LVL284:
	.loc 10 101 0
	call	_ZN11Performance7CompareEv	#
.LVL285:
	.loc 10 102 0
	call	_Z21TestBadAndInefficientv	#
.LVL286:
	.loc 10 104 0
	xorl	%eax, %eax	#
	addq	$8, %rsp	#,
	.cfi_def_cfa_offset 8
	ret
	.cfi_endproc
.LFE3260:
	.size	main, .-main
	.section	.rodata.str1.1
.LC16:
	.string	"\033[42m   "
.LC17:
	.string	"\033[0K\033[0m"
.LC18:
	.string	"\033[0K"
.LC19:
	.string	"\033[31;1m"
.LC20:
	.string	""
.LC21:
	.string	"\033[0m"
.LC22:
	.string	"\033[60G"
	.section	.text.startup
	.p2align 4,,15
	.type	_GLOBAL__sub_I__Z14CompareResultsv, @function
_GLOBAL__sub_I__Z14CompareResultsv:
.LFB3518:
	.loc 10 104 0
	.cfi_startproc
	.cfi_personality 0x3,__gxx_personality_v0
	.cfi_lsda 0x3,.LLSDA3518
.LVL287:
	pushq	%rbx	#
	.cfi_def_cfa_offset 16
	.cfi_offset 3, -16
.LBB1653:
.LBB1654:
	.file 19 "/usr/libexec/openshift/cartridges/c9-0.1/root/cloud9-gcc-linux-toolchain/bin/../lib/gcc/x86_64-redhat-linux/4.7.2/../../../../include/c++/4.7.2/iostream"
	.loc 19 75 0
	movl	$_ZStL8__ioinit, %edi	#,
.LBE1654:
.LBE1653:
	.loc 10 104 0
	subq	$16, %rsp	#,
	.cfi_def_cfa_offset 32
.LEHB9:
.LBB1663:
.LBB1661:
	.loc 19 75 0
	call	_ZNSt8ios_base4InitC1Ev	#
.LVL288:
	movl	$__dso_handle, %edx	#,
	movl	$_ZStL8__ioinit, %esi	#,
	movl	$_ZNSt8ios_base4InitD1Ev, %edi	#,
	call	__cxa_atexit	#
.LVL289:
	.file 20 "ansi.h"
	.loc 20 5 0
	leaq	15(%rsp), %rdx	#,
.LVL290:
	movl	$.LC16, %esi	#,
	movl	$_ZL10BeginTitle, %edi	#,
	call	_ZNSsC1EPKcRKSaIcE	#
.LVL291:
	movl	$__dso_handle, %edx	#,
	movl	$_ZL10BeginTitle, %esi	#,
	movl	$_ZNSsD1Ev, %edi	#,
	call	__cxa_atexit	#
.LVL292:
	.loc 20 6 0
	leaq	15(%rsp), %rdx	#,
.LVL293:
	movl	$.LC17, %esi	#,
	movl	$_ZL8EndTitle, %edi	#,
	call	_ZNSsC1EPKcRKSaIcE	#
.LVL294:
	movl	$__dso_handle, %edx	#,
	movl	$_ZL8EndTitle, %esi	#,
	movl	$_ZNSsD1Ev, %edi	#,
	call	__cxa_atexit	#
.LVL295:
	.loc 20 7 0
	leaq	15(%rsp), %rdx	#,
.LVL296:
	movl	$.LC18, %esi	#,
	movl	$_ZL11ToEndOfLine, %edi	#,
	call	_ZNSsC1EPKcRKSaIcE	#
.LVL297:
	movl	$__dso_handle, %edx	#,
	movl	$_ZL11ToEndOfLine, %esi	#,
	movl	$_ZNSsD1Ev, %edi	#,
	call	__cxa_atexit	#
.LVL298:
	.loc 20 8 0
	leaq	15(%rsp), %rdx	#,
.LVL299:
	movl	$.LC19, %esi	#,
	movl	$_ZL3Red, %edi	#,
	call	_ZNSsC1EPKcRKSaIcE	#
.LVL300:
	movl	$__dso_handle, %edx	#,
	movl	$_ZL3Red, %esi	#,
	movl	$_ZNSsD1Ev, %edi	#,
	call	__cxa_atexit	#
.LVL301:
	.loc 20 9 0
	leaq	15(%rsp), %rdx	#,
.LVL302:
	movl	$.LC20, %esi	#,
	movl	$_ZL5Empty, %edi	#,
	call	_ZNSsC1EPKcRKSaIcE	#
.LVL303:
	movl	$__dso_handle, %edx	#,
	movl	$_ZL5Empty, %esi	#,
	movl	$_ZNSsD1Ev, %edi	#,
	call	__cxa_atexit	#
.LVL304:
	.loc 20 10 0
	leaq	15(%rsp), %rdx	#,
.LVL305:
	movl	$.LC21, %esi	#,
	movl	$_ZL5Reset, %edi	#,
	call	_ZNSsC1EPKcRKSaIcE	#
.LVL306:
	movl	$__dso_handle, %edx	#,
	movl	$_ZL5Reset, %esi	#,
	movl	$_ZNSsD1Ev, %edi	#,
	call	__cxa_atexit	#
.LVL307:
.LBB1655:
.LBB1656:
	.loc 11 2402 0
	movl	$_ZL11ToEndOfLine, %esi	#,
	movl	$_ZL12GoToColumn60, %edi	#,
	call	_ZNSsC1ERKSs	#
.LEHE9:
.LVL308:
.LBB1657:
.LBB1658:
	.loc 11 1006 0
	movl	$5, %edx	#,
	movl	$.LC22, %esi	#,
	movl	$_ZL12GoToColumn60, %edi	#,
.LEHB10:
	call	_ZNSs6appendEPKcm	#
.LEHE10:
.LVL309:
.LBE1658:
.LBE1657:
.LBE1656:
.LBE1655:
	.loc 20 11 0
	movl	$__dso_handle, %edx	#,
	movl	$_ZL12GoToColumn60, %esi	#,
	movl	$_ZNSsD1Ev, %edi	#,
	call	__cxa_atexit	#
.LVL310:
.LBE1661:
.LBE1663:
	.loc 10 104 0
	addq	$16, %rsp	#,
	.cfi_remember_state
	.cfi_def_cfa_offset 16
	popq	%rbx	#
	.cfi_def_cfa_offset 8
	ret
.L150:
	.cfi_restore_state
	movq	%rax, %rbx	#, tmp66
.LBB1664:
.LBB1662:
.LBB1660:
.LBB1659:
	.loc 11 2404 0
	movl	$_ZL12GoToColumn60, %edi	#,
	call	_ZNSsD1Ev	#
.LVL311:
	movq	%rbx, %rdi	# tmp66,
.LEHB11:
	call	_Unwind_Resume	#
.LEHE11:
.LVL312:
.LBE1659:
.LBE1660:
.LBE1662:
.LBE1664:
	.cfi_endproc
.LFE3518:
	.section	.gcc_except_table
.LLSDA3518:
	.byte	0xff
	.byte	0xff
	.byte	0x1
	.uleb128 .LLSDACSE3518-.LLSDACSB3518
.LLSDACSB3518:
	.uleb128 .LEHB9-.LFB3518
	.uleb128 .LEHE9-.LEHB9
	.uleb128 0
	.uleb128 0
	.uleb128 .LEHB10-.LFB3518
	.uleb128 .LEHE10-.LEHB10
	.uleb128 .L150-.LFB3518
	.uleb128 0
	.uleb128 .LEHB11-.LFB3518
	.uleb128 .LEHE11-.LEHB11
	.uleb128 0
	.uleb128 0
.LLSDACSE3518:
	.section	.text.startup
	.size	_GLOBAL__sub_I__Z14CompareResultsv, .-_GLOBAL__sub_I__Z14CompareResultsv
	.section	.init_array,"aw"
	.align 8
	.quad	_GLOBAL__sub_I__Z14CompareResultsv
	.local	_ZL10BeginTitle
	.comm	_ZL10BeginTitle,8,8
	.local	_ZL8EndTitle
	.comm	_ZL8EndTitle,8,8
	.section	.rodata.str1.1
.LC23:
	.string	"\033[32;1mloop\033[0m"
.LC24:
	.string	"\033[31;1mgoodRecursion\033[0m"
.LC25:
	.string	"\033[33;1mConstantTime\033[0m"
.LC26:
	.string	"\033[36;1mUsingMatrix\033[0m"
	.section	.rodata.str1.8
	.align 8
.LC27:
	.string	"\033[34;1mwithoutLoopsOrRecursion\033[0m"
	.section	.rodata
	.align 32
	.type	._92, @object
	.size	._92, 40
._92:
	.quad	.LC23
	.quad	.LC24
	.quad	.LC25
	.quad	.LC26
	.quad	.LC27
	.local	_ZL5Empty
	.comm	_ZL5Empty,8,8
	.local	_ZL5Reset
	.comm	_ZL5Reset,8,8
	.local	_ZL3Red
	.comm	_ZL3Red,8,8
	.local	_ZStL8__ioinit
	.comm	_ZStL8__ioinit,1,1
	.local	_ZL11ToEndOfLine
	.comm	_ZL11ToEndOfLine,8,8
	.local	_ZL12GoToColumn60
	.comm	_ZL12GoToColumn60,8,8
	.section	.rodata.cst8,"aM",@progbits,8
	.align 8
.LC0:
	.long	2610427048
	.long	1073341303
	.align 8
.LC1:
	.long	3317689797
	.long	1071423269
	.align 8
.LC2:
	.long	0
	.long	1071644672
	.align 8
.LC3:
	.long	0
	.long	1138753536
	.align 8
.LC9:
	.long	0
	.long	1093567616
	.align 8
.LC12:
	.long	0
	.long	1072693248
	.align 8
.LC15:
	.long	0
	.long	1076101120
	.text
.Letext0:
	.file 21 "/usr/include/libio.h"
	.file 22 "/usr/include/stdio.h"
	.file 23 "<built-in>"
	.file 24 "/usr/libexec/openshift/cartridges/c9-0.1/root/cloud9-gcc-linux-toolchain/bin/../lib/gcc/x86_64-redhat-linux/4.7.2/include/stddef.h"
	.file 25 "/usr/include/wchar.h"
	.file 26 "/usr/libexec/openshift/cartridges/c9-0.1/root/cloud9-gcc-linux-toolchain/bin/../lib/gcc/x86_64-redhat-linux/4.7.2/../../../../include/c++/4.7.2/cwchar"
	.file 27 "/usr/libexec/openshift/cartridges/c9-0.1/root/cloud9-gcc-linux-toolchain/bin/../lib/gcc/x86_64-redhat-linux/4.7.2/../../../../include/c++/4.7.2/bits/exception_ptr.h"
	.file 28 "/usr/libexec/openshift/cartridges/c9-0.1/root/cloud9-gcc-linux-toolchain/bin/../lib/gcc/x86_64-redhat-linux/4.7.2/../../../../include/c++/4.7.2/x86_64-redhat-linux/bits/c++config.h"
	.file 29 "/usr/libexec/openshift/cartridges/c9-0.1/root/cloud9-gcc-linux-toolchain/bin/../lib/gcc/x86_64-redhat-linux/4.7.2/../../../../include/c++/4.7.2/type_traits"
	.file 30 "/usr/libexec/openshift/cartridges/c9-0.1/root/cloud9-gcc-linux-toolchain/bin/../lib/gcc/x86_64-redhat-linux/4.7.2/../../../../include/c++/4.7.2/cstdint"
	.file 31 "/usr/libexec/openshift/cartridges/c9-0.1/root/cloud9-gcc-linux-toolchain/bin/../lib/gcc/x86_64-redhat-linux/4.7.2/../../../../include/c++/4.7.2/clocale"
	.file 32 "/usr/libexec/openshift/cartridges/c9-0.1/root/cloud9-gcc-linux-toolchain/bin/../lib/gcc/x86_64-redhat-linux/4.7.2/../../../../include/c++/4.7.2/bits/stl_pair.h"
	.file 33 "/usr/libexec/openshift/cartridges/c9-0.1/root/cloud9-gcc-linux-toolchain/bin/../lib/gcc/x86_64-redhat-linux/4.7.2/../../../../include/c++/4.7.2/new"
	.file 34 "/usr/libexec/openshift/cartridges/c9-0.1/root/cloud9-gcc-linux-toolchain/bin/../lib/gcc/x86_64-redhat-linux/4.7.2/../../../../include/c++/4.7.2/bits/allocator.h"
	.file 35 "/usr/libexec/openshift/cartridges/c9-0.1/root/cloud9-gcc-linux-toolchain/bin/../lib/gcc/x86_64-redhat-linux/4.7.2/../../../../include/c++/4.7.2/cstdlib"
	.file 36 "/usr/libexec/openshift/cartridges/c9-0.1/root/cloud9-gcc-linux-toolchain/bin/../lib/gcc/x86_64-redhat-linux/4.7.2/../../../../include/c++/4.7.2/cstdio"
	.file 37 "/usr/libexec/openshift/cartridges/c9-0.1/root/cloud9-gcc-linux-toolchain/bin/../lib/gcc/x86_64-redhat-linux/4.7.2/../../../../include/c++/4.7.2/bits/basic_string.tcc"
	.file 38 "/usr/libexec/openshift/cartridges/c9-0.1/root/cloud9-gcc-linux-toolchain/bin/../lib/gcc/x86_64-redhat-linux/4.7.2/../../../../include/c++/4.7.2/initializer_list"
	.file 39 "/usr/libexec/openshift/cartridges/c9-0.1/root/cloud9-gcc-linux-toolchain/bin/../lib/gcc/x86_64-redhat-linux/4.7.2/../../../../include/c++/4.7.2/bits/stringfwd.h"
	.file 40 "/usr/libexec/openshift/cartridges/c9-0.1/root/cloud9-gcc-linux-toolchain/bin/../lib/gcc/x86_64-redhat-linux/4.7.2/../../../../include/c++/4.7.2/cwctype"
	.file 41 "/usr/libexec/openshift/cartridges/c9-0.1/root/cloud9-gcc-linux-toolchain/bin/../lib/gcc/x86_64-redhat-linux/4.7.2/../../../../include/c++/4.7.2/bits/ostream.tcc"
	.file 42 "/usr/libexec/openshift/cartridges/c9-0.1/root/cloud9-gcc-linux-toolchain/bin/../lib/gcc/x86_64-redhat-linux/4.7.2/../../../../include/c++/4.7.2/ctime"
	.file 43 "/usr/libexec/openshift/cartridges/c9-0.1/root/cloud9-gcc-linux-toolchain/bin/../lib/gcc/x86_64-redhat-linux/4.7.2/../../../../include/c++/4.7.2/bits/stl_iterator_base_types.h"
	.file 44 "/usr/libexec/openshift/cartridges/c9-0.1/root/cloud9-gcc-linux-toolchain/bin/../lib/gcc/x86_64-redhat-linux/4.7.2/../../../../include/c++/4.7.2/bits/stl_construct.h"
	.file 45 "/usr/libexec/openshift/cartridges/c9-0.1/root/cloud9-gcc-linux-toolchain/bin/../lib/gcc/x86_64-redhat-linux/4.7.2/../../../../include/c++/4.7.2/bits/stl_uninitialized.h"
	.file 46 "/usr/libexec/openshift/cartridges/c9-0.1/root/cloud9-gcc-linux-toolchain/bin/../lib/gcc/x86_64-redhat-linux/4.7.2/../../../../include/c++/4.7.2/ratio"
	.file 47 "/usr/libexec/openshift/cartridges/c9-0.1/root/cloud9-gcc-linux-toolchain/bin/../lib/gcc/x86_64-redhat-linux/4.7.2/../../../../include/c++/4.7.2/bits/alloc_traits.h"
	.file 48 "/usr/libexec/openshift/cartridges/c9-0.1/root/cloud9-gcc-linux-toolchain/bin/../lib/gcc/x86_64-redhat-linux/4.7.2/../../../../include/c++/4.7.2/debug/debug.h"
	.file 49 "/usr/libexec/openshift/cartridges/c9-0.1/root/cloud9-gcc-linux-toolchain/bin/../lib/gcc/x86_64-redhat-linux/4.7.2/../../../../include/c++/4.7.2/bits/random.h"
	.file 50 "/usr/libexec/openshift/cartridges/c9-0.1/root/cloud9-gcc-linux-toolchain/bin/../lib/gcc/x86_64-redhat-linux/4.7.2/../../../../include/c++/4.7.2/bits/uses_allocator.h"
	.file 51 "/usr/libexec/openshift/cartridges/c9-0.1/root/cloud9-gcc-linux-toolchain/bin/../lib/gcc/x86_64-redhat-linux/4.7.2/../../../../include/c++/4.7.2/tuple"
	.file 52 "/usr/libexec/openshift/cartridges/c9-0.1/root/cloud9-gcc-linux-toolchain/bin/../lib/gcc/x86_64-redhat-linux/4.7.2/../../../../include/c++/4.7.2/bits/stl_vector.h"
	.file 53 "/usr/libexec/openshift/cartridges/c9-0.1/root/cloud9-gcc-linux-toolchain/bin/../lib/gcc/x86_64-redhat-linux/4.7.2/../../../../include/c++/4.7.2/bits/vector.tcc"
	.file 54 "/usr/libexec/openshift/cartridges/c9-0.1/root/cloud9-gcc-linux-toolchain/bin/../lib/gcc/x86_64-redhat-linux/4.7.2/../../../../include/c++/4.7.2/bits/basic_ios.tcc"
	.file 55 "/usr/libexec/openshift/cartridges/c9-0.1/root/cloud9-gcc-linux-toolchain/bin/../lib/gcc/x86_64-redhat-linux/4.7.2/../../../../include/c++/4.7.2/bits/postypes.h"
	.file 56 "/usr/libexec/openshift/cartridges/c9-0.1/root/cloud9-gcc-linux-toolchain/bin/../lib/gcc/x86_64-redhat-linux/4.7.2/../../../../include/c++/4.7.2/iosfwd"
	.file 57 "/usr/libexec/openshift/cartridges/c9-0.1/root/cloud9-gcc-linux-toolchain/bin/../lib/gcc/x86_64-redhat-linux/4.7.2/../../../../include/c++/4.7.2/functional"
	.file 58 "/usr/libexec/openshift/cartridges/c9-0.1/root/cloud9-gcc-linux-toolchain/bin/../lib/gcc/x86_64-redhat-linux/4.7.2/../../../../include/c++/4.7.2/bits/ostream_insert.h"
	.file 59 "/usr/libexec/openshift/cartridges/c9-0.1/root/cloud9-gcc-linux-toolchain/bin/../lib/gcc/x86_64-redhat-linux/4.7.2/../../../../include/c++/4.7.2/bits/functexcept.h"
	.file 60 "/usr/include/time.h"
	.file 61 "/usr/libexec/openshift/cartridges/c9-0.1/root/cloud9-gcc-linux-toolchain/bin/../lib/gcc/x86_64-redhat-linux/4.7.2/../../../../include/c++/4.7.2/ext/numeric_traits.h"
	.file 62 "/usr/libexec/openshift/cartridges/c9-0.1/root/cloud9-gcc-linux-toolchain/bin/../lib/gcc/x86_64-redhat-linux/4.7.2/../../../../include/c++/4.7.2/bits/stl_iterator.h"
	.file 63 "/usr/libexec/openshift/cartridges/c9-0.1/root/cloud9-gcc-linux-toolchain/bin/../lib/gcc/x86_64-redhat-linux/4.7.2/../../../../include/c++/4.7.2/ext/type_traits.h"
	.file 64 "/usr/libexec/openshift/cartridges/c9-0.1/root/cloud9-gcc-linux-toolchain/bin/../lib/gcc/x86_64-redhat-linux/4.7.2/../../../../include/c++/4.7.2/ext/alloc_traits.h"
	.file 65 "/usr/include/stdint.h"
	.file 66 "/usr/include/locale.h"
	.file 67 "/usr/include/bits/types.h"
	.file 68 "/usr/libexec/openshift/cartridges/c9-0.1/root/cloud9-gcc-linux-toolchain/bin/../lib/gcc/x86_64-redhat-linux/4.7.2/../../../../include/c++/4.7.2/x86_64-redhat-linux/bits/atomic_word.h"
	.file 69 "/usr/include/stdlib.h"
	.file 70 "/usr/include/_G_config.h"
	.file 71 "/usr/include/bits/stdio.h"
	.file 72 "/usr/include/wctype.h"
	.file 73 "/usr/include/bits/mathdef.h"
	.file 74 "LogarithmicFibonacciUsingMatrices.h"
	.file 75 "Performance.h"
	.file 76 "/usr/libexec/openshift/cartridges/c9-0.1/root/cloud9-gcc-linux-toolchain/bin/../lib/gcc/x86_64-redhat-linux/4.7.2/../../../../include/c++/4.7.2/ext/atomicity.h"
	.file 77 "/usr/libexec/openshift/cartridges/c9-0.1/root/cloud9-gcc-linux-toolchain/bin/../lib/gcc/x86_64-redhat-linux/4.7.2/../../../../include/c++/4.7.2/x86_64-redhat-linux/bits/gthr-default.h"
	.file 78 "/usr/include/bits/mathcalls.h"
	.section	.note.GNU-stack,"",@progbits
