	.file	"Performance.cc"
# GNU C++ (GCC) version 4.7.2 20121015 (Red Hat 4.7.2-5) (x86_64-redhat-linux)
#	compiled by GNU C version 4.7.2 20121015 (Red Hat 4.7.2-5), GMP version 4.3.1, MPFR version 2.4.1, MPC version 0.8.1
# GGC heuristics: --param ggc-min-expand=100 --param ggc-min-heapsize=131072
# options passed: 
# -iprefix /usr/libexec/openshift/cartridges/c9-0.1/root/cloud9-gcc-linux-toolchain/bin/../lib/gcc/x86_64-redhat-linux/4.7.2/
# -D_GNU_SOURCE Performance.cc -mtune=generic -march=x86-64
# -auxbase-strip Performance.s -g -O3 -std=c++11 -fverbose-asm
# options enabled:  -fasynchronous-unwind-tables -fauto-inc-dec
# -fbranch-count-reg -fcaller-saves -fcombine-stack-adjustments -fcommon
# -fcompare-elim -fcprop-registers -fcrossjumping -fcse-follow-jumps
# -fdefer-pop -fdelete-null-pointer-checks -fdevirtualize -fdwarf2-cfi-asm
# -fearly-inlining -feliminate-unused-debug-types -fexceptions
# -fexpensive-optimizations -fforward-propagate -ffunction-cse -fgcse
# -fgcse-after-reload -fgcse-lm -fgnu-runtime -fguess-branch-probability
# -fident -fif-conversion -fif-conversion2 -findirect-inlining -finline
# -finline-atomics -finline-functions -finline-functions-called-once
# -finline-small-functions -fipa-cp -fipa-cp-clone -fipa-profile
# -fipa-pure-const -fipa-reference -fipa-sra -fira-share-save-slots
# -fira-share-spill-slots -fivopts -fkeep-static-consts
# -fleading-underscore -fmath-errno -fmerge-constants -fmerge-debug-strings
# -fmove-loop-invariants -fomit-frame-pointer -foptimize-register-move
# -foptimize-sibling-calls -foptimize-strlen -fpartial-inlining -fpeephole
# -fpeephole2 -fpredictive-commoning -fprefetch-loop-arrays -free
# -freg-struct-return -fregmove -freorder-blocks -freorder-functions
# -frerun-cse-after-loop -fsched-critical-path-heuristic
# -fsched-dep-count-heuristic -fsched-group-heuristic -fsched-interblock
# -fsched-last-insn-heuristic -fsched-rank-heuristic -fsched-spec
# -fsched-spec-insn-heuristic -fsched-stalled-insns-dep -fschedule-insns2
# -fshow-column -fshrink-wrap -fsigned-zeros -fsplit-ivs-in-unroller
# -fsplit-wide-types -fstrict-aliasing -fstrict-overflow
# -fstrict-volatile-bitfields -fthread-jumps -ftoplevel-reorder
# -ftrapping-math -ftree-bit-ccp -ftree-builtin-call-dce -ftree-ccp
# -ftree-ch -ftree-copy-prop -ftree-copyrename -ftree-cselim -ftree-dce
# -ftree-dominator-opts -ftree-dse -ftree-forwprop -ftree-fre
# -ftree-loop-distribute-patterns -ftree-loop-if-convert -ftree-loop-im
# -ftree-loop-ivcanon -ftree-loop-optimize -ftree-parallelize-loops=
# -ftree-phiprop -ftree-pre -ftree-pta -ftree-reassoc -ftree-scev-cprop
# -ftree-sink -ftree-slp-vectorize -ftree-sra -ftree-switch-conversion
# -ftree-tail-merge -ftree-ter -ftree-vect-loop-version -ftree-vectorize
# -ftree-vrp -funit-at-a-time -funswitch-loops -funwind-tables
# -fvar-tracking -fvar-tracking-assignments -fvect-cost-model -fverbose-asm
# -fzero-initialized-in-bss -m128bit-long-double -m64 -m80387
# -maccumulate-outgoing-args -malign-stringops -mfancy-math-387
# -mfp-ret-in-387 -mglibc -mieee-fp -mmmx -mno-sse4 -mpush-args -mred-zone
# -msse -msse2 -mtls-direct-seg-refs

	.text
.Ltext0:
	.section	.text._ZN14metaprogrammed12ConstantTime9fibonacciEm,"axG",@progbits,_ZN14metaprogrammed12ConstantTime9fibonacciEm,comdat
	.p2align 4,,15
	.weak	_ZN14metaprogrammed12ConstantTime9fibonacciEm
	.type	_ZN14metaprogrammed12ConstantTime9fibonacciEm, @function
_ZN14metaprogrammed12ConstantTime9fibonacciEm:
.LFB3475:
	.file 1 "FibonacciInConstantTime.h"
	.loc 1 17 0
	.cfi_startproc
.LVL0:
	.loc 1 20 0
	cmpq	$92, %rdi	#, n
	movq	$-1, %rax	#, D.75224
	jbe	.L5	#,
	.loc 1 21 0 discriminator 3
	rep
	ret
	.p2align 4,,10
	.p2align 3
.L5:
	.loc 1 20 0 discriminator 1
	movq	_ZN14metaprogrammed6ValuesE(,%rdi,8), %rax	# Values, D.75224
	.loc 1 21 0 discriminator 1
	ret
	.cfi_endproc
.LFE3475:
	.size	_ZN14metaprogrammed12ConstantTime9fibonacciEm, .-_ZN14metaprogrammed12ConstantTime9fibonacciEm
	.text
	.p2align 4,,15
	.type	_ZStlsISt11char_traitsIcEERSt13basic_ostreamIcT_ES5_PKc.part.19, @function
_ZStlsISt11char_traitsIcEERSt13basic_ostreamIcT_ES5_PKc.part.19:
.LFB4055:
	.file 2 "/usr/libexec/openshift/cartridges/c9-0.1/root/cloud9-gcc-linux-toolchain/bin/../lib/gcc/x86_64-redhat-linux/4.7.2/../../../../include/c++/4.7.2/ostream"
	.loc 2 528 0
	.cfi_startproc
.LVL1:
	subq	$8, %rsp	#,
	.cfi_def_cfa_offset 16
	.loc 2 531 0
	movq	(%rdi), %rax	# __out_1(D)->_vptr.basic_ostream, __out_1(D)->_vptr.basic_ostream
	addq	-24(%rax), %rdi	# MEM[(long int *)D.76337_2 + -24B], D.76334
.LVL2:
.LBB1454:
.LBB1455:
.LBB1456:
	.file 3 "/usr/libexec/openshift/cartridges/c9-0.1/root/cloud9-gcc-linux-toolchain/bin/../lib/gcc/x86_64-redhat-linux/4.7.2/../../../../include/c++/4.7.2/bits/ios_base.h"
	.loc 3 160 0
	movl	32(%rdi), %esi	# MEM[(const struct basic_ios *)D.76334_5 + 32B], tmp69
	orl	$1, %esi	#, tmp69
.LBE1456:
	.file 4 "/usr/libexec/openshift/cartridges/c9-0.1/root/cloud9-gcc-linux-toolchain/bin/../lib/gcc/x86_64-redhat-linux/4.7.2/../../../../include/c++/4.7.2/bits/basic_ios.h"
	.loc 4 150 0
	call	_ZNSt9basic_iosIcSt11char_traitsIcEE5clearESt12_Ios_Iostate	#
.LVL3:
.LBE1455:
.LBE1454:
	.loc 2 536 0
	addq	$8, %rsp	#,
	.cfi_def_cfa_offset 8
	ret
	.cfi_endproc
.LFE4055:
	.size	_ZStlsISt11char_traitsIcEERSt13basic_ostreamIcT_ES5_PKc.part.19, .-_ZStlsISt11char_traitsIcEERSt13basic_ostreamIcT_ES5_PKc.part.19
	.section	.text.unlikely,"ax",@progbits
	.type	_ZN9__gnu_cxxL27__exchange_and_add_dispatchEPii.constprop.84, @function
_ZN9__gnu_cxxL27__exchange_and_add_dispatchEPii.constprop.84:
.LFB4115:
	.file 5 "/usr/libexec/openshift/cartridges/c9-0.1/root/cloud9-gcc-linux-toolchain/bin/../lib/gcc/x86_64-redhat-linux/4.7.2/../../../../include/c++/4.7.2/ext/atomicity.h"
	.loc 5 77 0
	.cfi_startproc
.LVL4:
	.loc 5 80 0
	movl	$_ZL22__gthrw_pthread_cancelm, %eax	#, tmp64
	testq	%rax, %rax	# tmp64
	je	.L9	#,
.LVL5:
.LBB1461:
.LBB1462:
	.loc 5 48 0
	orl	$-1, %eax	#, D.79189
	lock xaddl	%eax, (%rdi)	#, D.79189,* __mem
	ret
.LVL6:
.L9:
.LBE1462:
.LBE1461:
.LBB1463:
.LBB1464:
	.loc 5 66 0
	movl	(%rdi), %eax	# *__mem_1(D), __result
.LVL7:
	.loc 5 67 0
	leal	-1(%rax), %edx	#, tmp65
	movl	%edx, (%rdi)	# tmp65, *__mem_1(D)
.LBE1464:
.LBE1463:
	.loc 5 87 0
	ret
	.cfi_endproc
.LFE4115:
	.size	_ZN9__gnu_cxxL27__exchange_and_add_dispatchEPii.constprop.84, .-_ZN9__gnu_cxxL27__exchange_and_add_dispatchEPii.constprop.84
	.section	.text._ZN23withoutLoopsOrRecursion9fibonacciEm,"axG",@progbits,_ZN23withoutLoopsOrRecursion9fibonacciEm,comdat
	.p2align 4,,15
	.weak	_ZN23withoutLoopsOrRecursion9fibonacciEm
	.type	_ZN23withoutLoopsOrRecursion9fibonacciEm, @function
_ZN23withoutLoopsOrRecursion9fibonacciEm:
.LFB3473:
	.file 6 "FibonacciWithoutLoopsOrRecursion.h"
	.loc 6 12 0
	.cfi_startproc
.LVL8:
	subq	$8, %rsp	#,
	.cfi_def_cfa_offset 16
.LBB1468:
.LBB1469:
	.file 7 "/usr/libexec/openshift/cartridges/c9-0.1/root/cloud9-gcc-linux-toolchain/bin/../lib/gcc/x86_64-redhat-linux/4.7.2/../../../../include/c++/4.7.2/cmath"
	.loc 7 440 0
	addq	$1, %rdi	#, tmp67
.LVL9:
	js	.L12	#,
	cvtsi2sdq	%rdi, %xmm1	# tmp67, tmp68
.LVL10:
.L13:
	movsd	.LC0(%rip), %xmm0	#,
	call	pow	#
.LVL11:
.LBE1469:
.LBE1468:
	.loc 6 17 0
	mulsd	.LC1(%rip), %xmm0	#, tmp78
	movsd	.LC3(%rip), %xmm1	#, tmp80
	addsd	.LC2(%rip), %xmm0	#, tmp78
	ucomisd	%xmm1, %xmm0	# tmp80, tmp78
	jae	.L14	#,
	cvttsd2siq	%xmm0, %rax	# tmp78, tmp75
	.loc 6 18 0
	addq	$8, %rsp	#,
	.cfi_remember_state
	.cfi_def_cfa_offset 8
	ret
	.p2align 4,,10
	.p2align 3
.L14:
	.cfi_restore_state
	.loc 6 17 0
	subsd	%xmm1, %xmm0	# tmp80, tmp81
	movabsq	$-9223372036854775808, %rdx	#, tmp83
	.loc 6 18 0
	addq	$8, %rsp	#,
	.cfi_remember_state
	.cfi_def_cfa_offset 8
	.loc 6 17 0
	cvttsd2siq	%xmm0, %rax	# tmp81, tmp75
	xorq	%rdx, %rax	# tmp83, tmp75
	.loc 6 18 0
	ret
.LVL12:
	.p2align 4,,10
	.p2align 3
.L12:
	.cfi_restore_state
.LBB1471:
.LBB1470:
	.loc 7 440 0
	movq	%rdi, %rax	# tmp67, tmp70
	andl	$1, %edi	#, tmp71
.LVL13:
	shrq	%rax	# tmp70
.LVL14:
	orq	%rdi, %rax	# tmp71, tmp70
	cvtsi2sdq	%rax, %xmm1	# tmp70, tmp68
	addsd	%xmm1, %xmm1	# tmp68, tmp68
	jmp	.L13	#
.LBE1470:
.LBE1471:
	.cfi_endproc
.LFE3473:
	.size	_ZN23withoutLoopsOrRecursion9fibonacciEm, .-_ZN23withoutLoopsOrRecursion9fibonacciEm
	.text
	.align 2
	.p2align 4,,15
	.type	_ZNSt8_Rb_treeIZN11Performance7CompareEvE6resultS1_St9_IdentityIS1_ESt4lessIS1_ESaIS1_EE8_M_eraseEPSt13_Rb_tree_nodeIS1_E, @function
_ZNSt8_Rb_treeIZN11Performance7CompareEvE6resultS1_St9_IdentityIS1_ESt4lessIS1_ESaIS1_EE8_M_eraseEPSt13_Rb_tree_nodeIS1_E:
.LFB3801:
	.file 8 "/usr/libexec/openshift/cartridges/c9-0.1/root/cloud9-gcc-linux-toolchain/bin/../lib/gcc/x86_64-redhat-linux/4.7.2/../../../../include/c++/4.7.2/bits/stl_tree.h"
	.loc 8 1076 0
	.cfi_startproc
.LVL15:
	pushq	%r15	#
	.cfi_def_cfa_offset 16
	.cfi_offset 15, -16
	pushq	%r14	#
	.cfi_def_cfa_offset 24
	.cfi_offset 14, -24
	movq	%rsi, %r14	# __x, __x
	pushq	%r13	#
	.cfi_def_cfa_offset 32
	.cfi_offset 13, -32
	pushq	%r12	#
	.cfi_def_cfa_offset 40
	.cfi_offset 12, -40
	pushq	%rbp	#
	.cfi_def_cfa_offset 48
	.cfi_offset 6, -48
	movq	%rdi, %rbp	# this, this
	pushq	%rbx	#
	.cfi_def_cfa_offset 56
	.cfi_offset 3, -56
	subq	$120, %rsp	#,
	.cfi_def_cfa_offset 176
.LBB1715:
	.loc 8 1080 0
	testq	%rsi, %rsi	# __x
	je	.L17	#,
.LVL16:
.L79:
.LBE1715:
	.file 9 "Performance.cc"
	.loc 9 220 0
	movq	24(%r14), %rax	# MEM[(struct _Rb_tree_node_base *)__x_91 + 24B],
.LBB2051:
.LBB1716:
.LBB1717:
.LBB1718:
	.loc 8 1080 0
	testq	%rax, %rax	#
.LBE1718:
.LBE1717:
.LBE1716:
.LBE2051:
	.loc 9 220 0
	movq	%rax, 56(%rsp)	#, %sfp
.LVL17:
.LBB2052:
.LBB2049:
.LBB2020:
.LBB2013:
	.loc 8 1080 0
	je	.L68	#,
.LVL18:
.L83:
.LBE2013:
	.loc 9 220 0
	movq	24(%rax), %rax	# MEM[(struct _Rb_tree_node_base *)__x_100 + 24B],
.LVL19:
.LBB2014:
.LBB1719:
.LBB1720:
.LBB1721:
	.loc 8 1080 0
	testq	%rax, %rax	#
.LBE1721:
.LBE1720:
.LBE1719:
.LBE2014:
	.loc 9 220 0
	movq	%rax, 64(%rsp)	#, %sfp
.LVL20:
.LBB2015:
.LBB2008:
.LBB1983:
.LBB1977:
	.loc 8 1080 0
	je	.L65	#,
.LVL21:
.L84:
.LBE1977:
	.loc 9 220 0
	movq	24(%rax), %rax	# MEM[(struct _Rb_tree_node_base *)__x_109 + 24B],
.LVL22:
.LBB1978:
.LBB1722:
.LBB1723:
.LBB1724:
	.loc 8 1080 0
	testq	%rax, %rax	#
.LBE1724:
.LBE1723:
.LBE1722:
.LBE1978:
	.loc 9 220 0
	movq	%rax, 72(%rsp)	#, %sfp
.LVL23:
.LBB1979:
.LBB1972:
.LBB1945:
.LBB1938:
	.loc 8 1080 0
	je	.L62	#,
.LVL24:
.L85:
.LBE1938:
	.loc 9 220 0
	movq	24(%rax), %rax	# MEM[(struct _Rb_tree_node_base *)__x_118 + 24B],
.LVL25:
.LBB1939:
.LBB1725:
.LBB1726:
.LBB1727:
	.loc 8 1080 0
	testq	%rax, %rax	#
.LBE1727:
.LBE1726:
.LBE1725:
.LBE1939:
	.loc 9 220 0
	movq	%rax, 80(%rsp)	#, %sfp
.LVL26:
.LBB1940:
.LBB1933:
.LBB1908:
.LBB1902:
	.loc 8 1080 0
	je	.L59	#,
.LVL27:
.L86:
.LBE1902:
	.loc 9 220 0
	movq	24(%rax), %rax	# MEM[(struct _Rb_tree_node_base *)__x_84 + 24B],
.LVL28:
.LBB1903:
.LBB1728:
.LBB1729:
.LBB1730:
	.loc 8 1080 0
	testq	%rax, %rax	#
.LBE1730:
.LBE1729:
.LBE1728:
.LBE1903:
	.loc 9 220 0
	movq	%rax, 88(%rsp)	#, %sfp
.LVL29:
.LBB1904:
.LBB1898:
.LBB1873:
.LBB1868:
	.loc 8 1080 0
	je	.L56	#,
.LVL30:
.L87:
.LBE1868:
	.loc 9 220 0
	movq	24(%rax), %r13	# MEM[(struct _Rb_tree_node_base *)__x_75 + 24B], __x
.LVL31:
.LBB1869:
.LBB1731:
.LBB1732:
.LBB1733:
	.loc 8 1080 0
	testq	%r13, %r13	# __x
	je	.L53	#,
.LVL32:
.L88:
.LBE1733:
	.loc 9 220 0
	movq	24(%r13), %r12	# MEM[(struct _Rb_tree_node_base *)__x_66 + 24B], __x
.LVL33:
.LBB1834:
.LBB1734:
.LBB1735:
.LBB1736:
	.loc 8 1080 0
	testq	%r12, %r12	# __x
	je	.L50	#,
.LVL34:
	.p2align 4,,10
	.p2align 3
.L89:
.LBE1736:
	.loc 9 220 0
	movq	24(%r12), %r15	# MEM[(struct _Rb_tree_node_base *)__x_57 + 24B], __x
.LVL35:
.LBB1799:
.LBB1737:
.LBB1738:
.LBB1739:
	.loc 8 1080 0
	testq	%r15, %r15	# __x
	je	.L47	#,
.LVL36:
	.p2align 4,,10
	.p2align 3
.L80:
.LBB1740:
	.loc 8 1082 0
	movq	24(%r15), %rsi	# MEM[(struct _Rb_tree_node_base *)__x_48 + 24B], MEM[(struct _Rb_tree_node_base *)__x_48 + 24B]
	movq	%rbp, %rdi	# this,
	call	_ZNSt8_Rb_treeIZN11Performance7CompareEvE6resultS1_St9_IdentityIS1_ESt4lessIS1_ESaIS1_EE8_M_eraseEPSt13_Rb_tree_nodeIS1_E	#
.LVL37:
.LBB1741:
.LBB1742:
.LBB1743:
.LBB1744:
.LBB1745:
.LBB1746:
	.file 10 "/usr/libexec/openshift/cartridges/c9-0.1/root/cloud9-gcc-linux-toolchain/bin/../lib/gcc/x86_64-redhat-linux/4.7.2/../../../../include/c++/4.7.2/bits/basic_string.h"
	.loc 10 536 0
	movq	40(%r15), %rcx	# MEM[(const struct basic_string *)__x_48 + 40B]._M_dataplus._M_p, D.79264
.LBE1746:
.LBE1745:
.LBE1744:
.LBE1743:
.LBE1742:
.LBE1741:
.LBE1740:
.LBE1739:
	.loc 9 220 0
	movq	16(%r15), %rbx	# MEM[(struct _Rb_tree_node_base *)__x_48 + 16B], __x
.LVL38:
.LBB1768:
.LBB1766:
.LBB1764:
.LBB1759:
.LBB1757:
.LBB1755:
.LBB1753:
.LBB1751:
	.loc 10 536 0
	subq	$24, %rcx	#, D.79264
.LVL39:
.LBB1747:
.LBB1748:
	.loc 10 237 0
	cmpq	$_ZNSs4_Rep20_S_empty_rep_storageE, %rcx	#, D.79264
	jne	.L91	#,
.LVL40:
.L44:
.LBE1748:
.LBE1747:
.LBE1751:
.LBE1753:
.LBE1755:
.LBE1757:
.LBE1759:
.LBB1760:
.LBB1761:
.LBB1762:
	.file 11 "/usr/libexec/openshift/cartridges/c9-0.1/root/cloud9-gcc-linux-toolchain/bin/../lib/gcc/x86_64-redhat-linux/4.7.2/../../../../include/c++/4.7.2/ext/new_allocator.h"
	.loc 11 100 0
	movq	%r15, %rdi	# __x,
	.loc 8 1085 0
	movq	%rbx, %r15	# __x, __x
.LVL41:
	.loc 11 100 0
	call	_ZdlPv	#
.LVL42:
.LBE1762:
.LBE1761:
.LBE1760:
.LBE1764:
.LBE1766:
	.loc 8 1080 0
	testq	%rbx, %rbx	# __x
	jne	.L80	#,
.LVL43:
.L47:
.LBE1768:
.LBE1738:
.LBB1770:
.LBB1771:
.LBB1772:
.LBB1773:
.LBB1774:
.LBB1775:
	.loc 10 536 0
	movq	40(%r12), %rdx	# MEM[(const struct basic_string *)__x_57 + 40B]._M_dataplus._M_p, D.79291
.LBE1775:
.LBE1774:
.LBE1773:
.LBE1772:
.LBE1771:
.LBE1770:
.LBE1737:
.LBE1799:
	.loc 9 220 0
	movq	16(%r12), %rbx	# MEM[(struct _Rb_tree_node_base *)__x_57 + 16B], __x
.LVL44:
.LBB1800:
.LBB1796:
.LBB1793:
.LBB1788:
.LBB1786:
.LBB1784:
.LBB1782:
.LBB1780:
	.loc 10 536 0
	subq	$24, %rdx	#, D.79291
.LVL45:
.LBB1776:
.LBB1777:
	.loc 10 237 0
	cmpq	$_ZNSs4_Rep20_S_empty_rep_storageE, %rdx	#, D.79291
	jne	.L92	#,
.LVL46:
.L48:
.LBE1777:
.LBE1776:
.LBE1780:
.LBE1782:
.LBE1784:
.LBE1786:
.LBE1788:
.LBB1789:
.LBB1790:
.LBB1791:
	.loc 11 100 0
	movq	%r12, %rdi	# __x,
	call	_ZdlPv	#
.LVL47:
.LBE1791:
.LBE1790:
.LBE1789:
.LBE1793:
.LBE1796:
	.loc 8 1080 0
	testq	%rbx, %rbx	# __x
	je	.L50	#,
	.loc 8 1085 0
	movq	%rbx, %r12	# __x, __x
.LVL48:
	jmp	.L89	#
.LVL49:
.L50:
.LBE1800:
.LBE1735:
.LBB1803:
.LBB1804:
.LBB1805:
.LBB1806:
.LBB1807:
.LBB1808:
	.loc 10 536 0
	movq	40(%r13), %r12	# MEM[(const struct basic_string *)__x_66 + 40B]._M_dataplus._M_p, D.79318
.LBE1808:
.LBE1807:
.LBE1806:
.LBE1805:
.LBE1804:
.LBE1803:
.LBE1734:
.LBE1834:
	.loc 9 220 0
	movq	16(%r13), %rbx	# MEM[(struct _Rb_tree_node_base *)__x_66 + 16B], __x
.LVL50:
.LBB1835:
.LBB1830:
.LBB1826:
.LBB1821:
.LBB1819:
.LBB1817:
.LBB1815:
.LBB1813:
	.loc 10 536 0
	subq	$24, %r12	#, D.79318
.LVL51:
.LBB1809:
.LBB1810:
	.loc 10 237 0
	cmpq	$_ZNSs4_Rep20_S_empty_rep_storageE, %r12	#, D.79318
	jne	.L93	#,
.L51:
.LVL52:
.LBE1810:
.LBE1809:
.LBE1813:
.LBE1815:
.LBE1817:
.LBE1819:
.LBE1821:
.LBB1822:
.LBB1823:
.LBB1824:
	.loc 11 100 0
	movq	%r13, %rdi	# __x,
	call	_ZdlPv	#
.LVL53:
.LBE1824:
.LBE1823:
.LBE1822:
.LBE1826:
.LBE1830:
	.loc 8 1080 0
	testq	%rbx, %rbx	# __x
	je	.L94	#,
	.loc 8 1085 0
	movq	%rbx, %r13	# __x, __x
.LVL54:
	jmp	.L88	#
.LVL55:
.L94:
	movq	88(%rsp), %rax	# %sfp,
.LVL56:
.L53:
.LBE1835:
.LBE1732:
.LBE1731:
.LBE1869:
	.loc 9 220 0
	movq	16(%rax), %rbx	# MEM[(struct _Rb_tree_node_base *)__x_75 + 16B], __x
.LVL57:
.LBB1870:
.LBB1864:
.LBB1839:
.LBB1840:
.LBB1841:
.LBB1842:
.LBB1843:
.LBB1844:
.LBB1845:
.LBB1846:
.LBB1847:
	.loc 10 290 0
	movq	40(%rax), %rax	# MEM[(const struct basic_string *)__x_75 + 40B]._M_dataplus._M_p,
.LBE1847:
.LBE1846:
.LBE1845:
	.loc 10 536 0
	movq	%rax, %r12	#, D.79345
	subq	$24, %r12	#, D.79345
.LVL58:
.LBB1848:
.LBB1849:
	.loc 10 237 0
	cmpq	$_ZNSs4_Rep20_S_empty_rep_storageE, %r12	#, D.79345
	jne	.L95	#,
.L54:
.LVL59:
.LBE1849:
.LBE1848:
.LBE1844:
.LBE1843:
.LBE1842:
.LBE1841:
.LBE1840:
.LBB1856:
.LBB1857:
.LBB1858:
	.loc 11 100 0
	movq	88(%rsp), %rdi	# %sfp,
	call	_ZdlPv	#
.LVL60:
.LBE1858:
.LBE1857:
.LBE1856:
.LBE1839:
.LBE1864:
	.loc 8 1080 0
	testq	%rbx, %rbx	# __x
	je	.L56	#,
	.loc 8 1085 0
	movq	%rbx, 88(%rsp)	# __x, %sfp
	movq	%rbx, %rax	# __x,
	jmp	.L87	#
.LVL61:
.L91:
.LBB1865:
.LBB1860:
.LBB1836:
.LBB1831:
.LBB1827:
.LBB1801:
.LBB1797:
.LBB1794:
.LBB1769:
.LBB1767:
.LBB1765:
.LBB1763:
.LBB1758:
.LBB1756:
.LBB1754:
.LBB1752:
.LBB1750:
.LBB1749:
	.loc 10 242 0
	leaq	16(%rcx), %rdi	#, tmp125
	movq	%rcx, 8(%rsp)	#,
	call	_ZN9__gnu_cxxL27__exchange_and_add_dispatchEPii.constprop.84	#
.LVL62:
	testl	%eax, %eax	# D.79268
	movq	8(%rsp), %rcx	#,
	jg	.L44	#,
	.loc 10 246 0
	leaq	111(%rsp), %rsi	#,
.LVL63:
	movq	%rcx, %rdi	# D.79264,
	call	_ZNSs4_Rep10_M_destroyERKSaIcE	#
.LVL64:
	jmp	.L44	#
.LVL65:
.L56:
.LBE1749:
.LBE1750:
.LBE1752:
.LBE1754:
.LBE1756:
.LBE1758:
.LBE1763:
.LBE1765:
.LBE1767:
.LBE1769:
.LBE1794:
.LBE1797:
.LBE1801:
.LBE1827:
.LBE1831:
.LBE1836:
.LBE1860:
.LBE1865:
.LBE1870:
.LBE1873:
.LBE1898:
.LBE1904:
	.loc 9 220 0
	movq	80(%rsp), %rax	# %sfp,
	movq	16(%rax), %rbx	# MEM[(struct _Rb_tree_node_base *)__x_84 + 16B], __x
.LVL66:
.LBB1905:
.LBB1899:
.LBB1874:
.LBB1875:
.LBB1876:
.LBB1877:
.LBB1878:
.LBB1879:
.LBB1880:
.LBB1881:
.LBB1882:
	.loc 10 290 0
	movq	40(%rax), %rax	# MEM[(const struct basic_string *)__x_84 + 40B]._M_dataplus._M_p,
.LVL67:
.LBE1882:
.LBE1881:
.LBE1880:
	.loc 10 536 0
	movq	%rax, %r12	#, D.79372
	subq	$24, %r12	#, D.79372
.LVL68:
.LBB1883:
.LBB1884:
	.loc 10 237 0
	cmpq	$_ZNSs4_Rep20_S_empty_rep_storageE, %r12	#, D.79372
	jne	.L96	#,
.L57:
.LVL69:
.LBE1884:
.LBE1883:
.LBE1879:
.LBE1878:
.LBE1877:
.LBE1876:
.LBE1875:
.LBB1891:
.LBB1892:
.LBB1893:
	.loc 11 100 0
	movq	80(%rsp), %rdi	# %sfp,
	call	_ZdlPv	#
.LVL70:
.LBE1893:
.LBE1892:
.LBE1891:
.LBE1874:
.LBE1899:
	.loc 8 1080 0
	testq	%rbx, %rbx	# __x
	je	.L59	#,
	.loc 8 1085 0
	movq	%rbx, 80(%rsp)	# __x, %sfp
	movq	%rbx, %rax	# __x,
	jmp	.L86	#
.LVL71:
.L68:
.LBE1905:
.LBE1908:
.LBE1933:
.LBE1940:
.LBE1945:
.LBE1972:
.LBE1979:
.LBE1983:
.LBE2008:
.LBE2015:
.LBE2020:
.LBB2021:
.LBB2022:
.LBB2023:
.LBB2024:
.LBB2025:
.LBB2026:
	.loc 10 536 0
	movq	40(%r14), %rbx	# MEM[(const struct basic_string *)__x_91 + 40B]._M_dataplus._M_p, D.79480
.LBE2026:
.LBE2025:
.LBE2024:
.LBE2023:
.LBE2022:
.LBE2021:
.LBB2044:
.LBB2016:
	.loc 9 220 0
	movq	16(%r14), %r12	# MEM[(struct _Rb_tree_node_base *)__x_91 + 16B], __y
.LVL72:
.LBE2016:
.LBE2044:
.LBB2045:
.LBB2039:
.LBB2037:
.LBB2035:
.LBB2033:
.LBB2031:
	.loc 10 536 0
	subq	$24, %rbx	#, D.79480
.LVL73:
.LBB2027:
.LBB2028:
	.loc 10 237 0
	cmpq	$_ZNSs4_Rep20_S_empty_rep_storageE, %rbx	#, D.79480
	jne	.L97	#,
.L69:
.LVL74:
.LBE2028:
.LBE2027:
.LBE2031:
.LBE2033:
.LBE2035:
.LBE2037:
.LBE2039:
.LBB2040:
.LBB2041:
.LBB2042:
	.loc 11 100 0
	movq	%r14, %rdi	# __x,
	.loc 8 1085 0
	movq	%r12, %r14	# __y, __x
.LVL75:
	.loc 11 100 0
	call	_ZdlPv	#
.LVL76:
.LBE2042:
.LBE2041:
.LBE2040:
.LBE2045:
.LBE2049:
	.loc 8 1080 0
	testq	%r12, %r12	# __x
	jne	.L79	#,
.LVL77:
.L17:
.LBE2052:
	.loc 8 1087 0
	addq	$120, %rsp	#,
	.cfi_remember_state
	.cfi_def_cfa_offset 56
	popq	%rbx	#
	.cfi_def_cfa_offset 48
	popq	%rbp	#
	.cfi_def_cfa_offset 40
.LVL78:
	popq	%r12	#
	.cfi_def_cfa_offset 32
	popq	%r13	#
	.cfi_def_cfa_offset 24
	popq	%r14	#
	.cfi_def_cfa_offset 16
.LVL79:
	popq	%r15	#
	.cfi_def_cfa_offset 8
	ret
.LVL80:
.L59:
	.cfi_restore_state
.LBB2053:
.LBB2050:
.LBB2046:
.LBB2017:
.LBB2009:
.LBB1984:
.LBB1980:
.LBB1973:
.LBB1946:
	.loc 9 220 0
	movq	72(%rsp), %rax	# %sfp,
	movq	16(%rax), %rbx	# MEM[(struct _Rb_tree_node_base *)__x_118 + 16B], __x
.LVL81:
.LBB1941:
.LBB1934:
.LBB1909:
.LBB1910:
.LBB1911:
.LBB1912:
.LBB1913:
.LBB1914:
.LBB1915:
.LBB1916:
.LBB1917:
	.loc 10 290 0
	movq	40(%rax), %rax	# MEM[(const struct basic_string *)__x_118 + 40B]._M_dataplus._M_p,
.LVL82:
.LBE1917:
.LBE1916:
.LBE1915:
	.loc 10 536 0
	movq	%rax, %r12	#, D.79399
	subq	$24, %r12	#, D.79399
.LVL83:
.LBB1918:
.LBB1919:
	.loc 10 237 0
	cmpq	$_ZNSs4_Rep20_S_empty_rep_storageE, %r12	#, D.79399
	jne	.L98	#,
.L60:
.LVL84:
.LBE1919:
.LBE1918:
.LBE1914:
.LBE1913:
.LBE1912:
.LBE1911:
.LBE1910:
.LBB1926:
.LBB1927:
.LBB1928:
	.loc 11 100 0
	movq	72(%rsp), %rdi	# %sfp,
	call	_ZdlPv	#
.LVL85:
.LBE1928:
.LBE1927:
.LBE1926:
.LBE1909:
.LBE1934:
	.loc 8 1080 0
	testq	%rbx, %rbx	# __x
	je	.L62	#,
	.loc 8 1085 0
	movq	%rbx, 72(%rsp)	# __x, %sfp
	movq	%rbx, %rax	# __x,
	jmp	.L85	#
.LVL86:
.L62:
.LBE1941:
.LBE1946:
.LBE1973:
.LBE1980:
	.loc 9 220 0
	movq	64(%rsp), %rax	# %sfp,
	movq	16(%rax), %r12	# MEM[(struct _Rb_tree_node_base *)__x_109 + 16B], __x
.LVL87:
.LBB1981:
.LBB1974:
.LBB1947:
.LBB1948:
.LBB1949:
.LBB1950:
.LBB1951:
.LBB1952:
.LBB1953:
.LBB1954:
.LBB1955:
	.loc 10 290 0
	movq	40(%rax), %rax	# MEM[(const struct basic_string *)__x_109 + 40B]._M_dataplus._M_p,
.LVL88:
.LBE1955:
.LBE1954:
.LBE1953:
	.loc 10 536 0
	movq	%rax, %rbx	#, D.79426
	subq	$24, %rbx	#, D.79426
.LVL89:
.LBB1956:
.LBB1957:
	.loc 10 237 0
	cmpq	$_ZNSs4_Rep20_S_empty_rep_storageE, %rbx	#, D.79426
	jne	.L99	#,
.L63:
.LVL90:
.LBE1957:
.LBE1956:
.LBE1952:
.LBE1951:
.LBE1950:
.LBE1949:
.LBE1948:
.LBB1964:
.LBB1965:
.LBB1966:
	.loc 11 100 0
	movq	64(%rsp), %rdi	# %sfp,
	call	_ZdlPv	#
.LVL91:
.LBE1966:
.LBE1965:
.LBE1964:
.LBE1947:
.LBE1974:
	.loc 8 1080 0
	testq	%r12, %r12	# __x
	je	.L65	#,
	.loc 8 1085 0
	movq	%r12, 64(%rsp)	# __x, %sfp
	movq	%r12, %rax	# __x,
	jmp	.L84	#
.LVL92:
.L98:
.LBB1975:
.LBB1968:
.LBB1942:
.LBB1935:
.LBB1930:
.LBB1929:
.LBB1925:
.LBB1924:
.LBB1923:
.LBB1922:
.LBB1921:
.LBB1920:
	.loc 10 242 0
	leaq	16(%r12), %rdi	#, tmp140
	call	_ZN9__gnu_cxxL27__exchange_and_add_dispatchEPii.constprop.84	#
.LVL93:
	testl	%eax, %eax	# D.79403
	jg	.L60	#,
	.loc 10 246 0
	leaq	111(%rsp), %rsi	#,
.LVL94:
	movq	%r12, %rdi	# D.79399,
	call	_ZNSs4_Rep10_M_destroyERKSaIcE	#
.LVL95:
	jmp	.L60	#
.LVL96:
.L99:
.LBE1920:
.LBE1921:
.LBE1922:
.LBE1923:
.LBE1924:
.LBE1925:
.LBE1929:
.LBE1930:
.LBE1935:
.LBE1942:
.LBE1968:
.LBB1969:
.LBB1967:
.LBB1963:
.LBB1962:
.LBB1961:
.LBB1960:
.LBB1959:
.LBB1958:
	.loc 10 242 0
	leaq	16(%rbx), %rdi	#, tmp143
	call	_ZN9__gnu_cxxL27__exchange_and_add_dispatchEPii.constprop.84	#
.LVL97:
	testl	%eax, %eax	# D.79430
	.p2align 4,,2
	jg	.L63	#,
	.loc 10 246 0
	leaq	111(%rsp), %rsi	#,
.LVL98:
	movq	%rbx, %rdi	# D.79426,
	call	_ZNSs4_Rep10_M_destroyERKSaIcE	#
.LVL99:
	jmp	.L63	#
.LVL100:
.L93:
.LBE1958:
.LBE1959:
.LBE1960:
.LBE1961:
.LBE1962:
.LBE1963:
.LBE1967:
.LBE1969:
.LBB1970:
.LBB1943:
.LBB1936:
.LBB1931:
.LBB1906:
.LBB1900:
.LBB1895:
.LBB1871:
.LBB1866:
.LBB1861:
.LBB1837:
.LBB1832:
.LBB1828:
.LBB1825:
.LBB1820:
.LBB1818:
.LBB1816:
.LBB1814:
.LBB1812:
.LBB1811:
	.loc 10 242 0
	leaq	16(%r12), %rdi	#, tmp131
	call	_ZN9__gnu_cxxL27__exchange_and_add_dispatchEPii.constprop.84	#
.LVL101:
	testl	%eax, %eax	# D.79322
	jg	.L51	#,
	.loc 10 246 0
	leaq	111(%rsp), %rsi	#,
.LVL102:
	movq	%r12, %rdi	# D.79318,
	call	_ZNSs4_Rep10_M_destroyERKSaIcE	#
.LVL103:
	jmp	.L51	#
.LVL104:
.L95:
.LBE1811:
.LBE1812:
.LBE1814:
.LBE1816:
.LBE1818:
.LBE1820:
.LBE1825:
.LBE1828:
.LBE1832:
.LBE1837:
.LBE1861:
.LBB1862:
.LBB1859:
.LBB1855:
.LBB1854:
.LBB1853:
.LBB1852:
.LBB1851:
.LBB1850:
	.loc 10 242 0
	leaq	16(%r12), %rdi	#, tmp134
	call	_ZN9__gnu_cxxL27__exchange_and_add_dispatchEPii.constprop.84	#
.LVL105:
	testl	%eax, %eax	# D.79349
	jg	.L54	#,
	.loc 10 246 0
	leaq	111(%rsp), %rsi	#,
.LVL106:
	movq	%r12, %rdi	# D.79345,
	call	_ZNSs4_Rep10_M_destroyERKSaIcE	#
.LVL107:
	jmp	.L54	#
.LVL108:
.L65:
.LBE1850:
.LBE1851:
.LBE1852:
.LBE1853:
.LBE1854:
.LBE1855:
.LBE1859:
.LBE1862:
.LBE1866:
.LBE1871:
.LBE1895:
.LBE1900:
.LBE1906:
.LBE1931:
.LBE1936:
.LBE1943:
.LBE1970:
.LBE1975:
.LBE1981:
.LBE1984:
.LBE2009:
.LBE2017:
	.loc 9 220 0
	movq	56(%rsp), %rax	# %sfp,
	movq	16(%rax), %r12	# MEM[(struct _Rb_tree_node_base *)__x_100 + 16B], __x
.LVL109:
.LBB2018:
.LBB2010:
.LBB1985:
.LBB1986:
.LBB1987:
.LBB1988:
.LBB1989:
.LBB1990:
.LBB1991:
.LBB1992:
.LBB1993:
	.loc 10 290 0
	movq	40(%rax), %rax	# MEM[(const struct basic_string *)__x_100 + 40B]._M_dataplus._M_p,
.LVL110:
.LBE1993:
.LBE1992:
.LBE1991:
	.loc 10 536 0
	movq	%rax, %rbx	#, D.79453
	subq	$24, %rbx	#, D.79453
.LVL111:
.LBB1994:
.LBB1995:
	.loc 10 237 0
	cmpq	$_ZNSs4_Rep20_S_empty_rep_storageE, %rbx	#, D.79453
	jne	.L100	#,
.L66:
.LVL112:
.LBE1995:
.LBE1994:
.LBE1990:
.LBE1989:
.LBE1988:
.LBE1987:
.LBE1986:
.LBB2002:
.LBB2003:
.LBB2004:
	.loc 11 100 0
	movq	56(%rsp), %rdi	# %sfp,
	call	_ZdlPv	#
.LVL113:
.LBE2004:
.LBE2003:
.LBE2002:
.LBE1985:
.LBE2010:
	.loc 8 1080 0
	testq	%r12, %r12	# __x
	je	.L68	#,
	.loc 8 1085 0
	movq	%r12, 56(%rsp)	# __x, %sfp
	movq	%r12, %rax	# __x,
	jmp	.L83	#
.LVL114:
.L100:
.LBB2011:
.LBB2006:
.LBB2005:
.LBB2001:
.LBB2000:
.LBB1999:
.LBB1998:
.LBB1997:
.LBB1996:
	.loc 10 242 0
	leaq	16(%rbx), %rdi	#, tmp146
	call	_ZN9__gnu_cxxL27__exchange_and_add_dispatchEPii.constprop.84	#
.LVL115:
	testl	%eax, %eax	# D.79457
	jg	.L66	#,
	.loc 10 246 0
	leaq	111(%rsp), %rsi	#,
.LVL116:
	movq	%rbx, %rdi	# D.79453,
	call	_ZNSs4_Rep10_M_destroyERKSaIcE	#
.LVL117:
	jmp	.L66	#
.LVL118:
.L97:
.LBE1996:
.LBE1997:
.LBE1998:
.LBE1999:
.LBE2000:
.LBE2001:
.LBE2005:
.LBE2006:
.LBE2011:
.LBE2018:
.LBE2046:
.LBB2047:
.LBB2043:
.LBB2038:
.LBB2036:
.LBB2034:
.LBB2032:
.LBB2030:
.LBB2029:
	.loc 10 242 0
	leaq	16(%rbx), %rdi	#, tmp149
	call	_ZN9__gnu_cxxL27__exchange_and_add_dispatchEPii.constprop.84	#
.LVL119:
	testl	%eax, %eax	# D.79484
	.p2align 4,,2
	jg	.L69	#,
	.loc 10 246 0
	leaq	111(%rsp), %rsi	#,
.LVL120:
	movq	%rbx, %rdi	# D.79480,
	call	_ZNSs4_Rep10_M_destroyERKSaIcE	#
.LVL121:
	jmp	.L69	#
.LVL122:
.L92:
.LBE2029:
.LBE2030:
.LBE2032:
.LBE2034:
.LBE2036:
.LBE2038:
.LBE2043:
.LBE2047:
.LBB2048:
.LBB2019:
.LBB2012:
.LBB2007:
.LBB1982:
.LBB1976:
.LBB1971:
.LBB1944:
.LBB1937:
.LBB1932:
.LBB1907:
.LBB1901:
.LBB1896:
.LBB1872:
.LBB1867:
.LBB1863:
.LBB1838:
.LBB1833:
.LBB1829:
.LBB1802:
.LBB1798:
.LBB1795:
.LBB1792:
.LBB1787:
.LBB1785:
.LBB1783:
.LBB1781:
.LBB1779:
.LBB1778:
	.loc 10 242 0
	leaq	16(%rdx), %rdi	#, tmp128
	movq	%rdx, 8(%rsp)	#,
	call	_ZN9__gnu_cxxL27__exchange_and_add_dispatchEPii.constprop.84	#
.LVL123:
	testl	%eax, %eax	# D.79295
	movq	8(%rsp), %rdx	#,
	jg	.L48	#,
	.loc 10 246 0
	leaq	111(%rsp), %rsi	#,
.LVL124:
	movq	%rdx, %rdi	# D.79291,
	call	_ZNSs4_Rep10_M_destroyERKSaIcE	#
.LVL125:
	jmp	.L48	#
.LVL126:
.L96:
.LBE1778:
.LBE1779:
.LBE1781:
.LBE1783:
.LBE1785:
.LBE1787:
.LBE1792:
.LBE1795:
.LBE1798:
.LBE1802:
.LBE1829:
.LBE1833:
.LBE1838:
.LBE1863:
.LBE1867:
.LBE1872:
.LBE1896:
.LBB1897:
.LBB1894:
.LBB1890:
.LBB1889:
.LBB1888:
.LBB1887:
.LBB1886:
.LBB1885:
	.loc 10 242 0
	leaq	16(%r12), %rdi	#, tmp137
	call	_ZN9__gnu_cxxL27__exchange_and_add_dispatchEPii.constprop.84	#
.LVL127:
	testl	%eax, %eax	# D.79376
	jg	.L57	#,
	.loc 10 246 0
	leaq	111(%rsp), %rsi	#,
.LVL128:
	movq	%r12, %rdi	# D.79372,
	call	_ZNSs4_Rep10_M_destroyERKSaIcE	#
.LVL129:
	jmp	.L57	#
.LBE1885:
.LBE1886:
.LBE1887:
.LBE1888:
.LBE1889:
.LBE1890:
.LBE1894:
.LBE1897:
.LBE1901:
.LBE1907:
.LBE1932:
.LBE1937:
.LBE1944:
.LBE1971:
.LBE1976:
.LBE1982:
.LBE2007:
.LBE2012:
.LBE2019:
.LBE2048:
.LBE2050:
.LBE2053:
	.cfi_endproc
.LFE3801:
	.size	_ZNSt8_Rb_treeIZN11Performance7CompareEvE6resultS1_St9_IdentityIS1_ESt4lessIS1_ESaIS1_EE8_M_eraseEPSt13_Rb_tree_nodeIS1_E, .-_ZNSt8_Rb_treeIZN11Performance7CompareEvE6resultS1_St9_IdentityIS1_ESt4lessIS1_ESaIS1_EE8_M_eraseEPSt13_Rb_tree_nodeIS1_E
	.align 2
	.p2align 4,,15
	.type	_ZZN11Performance7CompareEvEN6resultD2Ev, @function
_ZZN11Performance7CompareEvEN6resultD2Ev:
.LFB3501:
	.loc 9 177 0
	.cfi_startproc
.LVL130:
	pushq	%rbx	#
	.cfi_def_cfa_offset 16
	.cfi_offset 3, -16
	subq	$16, %rsp	#,
	.cfi_def_cfa_offset 32
.LBB2064:
.LBB2065:
.LBB2066:
.LBB2067:
.LBB2068:
	.loc 10 290 0
	movq	8(%rdi), %rbx	# MEM[(const struct basic_string *)this_1(D) + 8B]._M_dataplus._M_p, D.79503
.LBE2068:
.LBE2067:
.LBE2066:
	.loc 10 536 0
	subq	$24, %rbx	#, D.79504
.LVL131:
.LBB2069:
.LBB2070:
	.loc 10 237 0
	cmpq	$_ZNSs4_Rep20_S_empty_rep_storageE, %rbx	#, D.79504
	jne	.L106	#,
.LVL132:
.L101:
.LBE2070:
.LBE2069:
.LBE2065:
.LBE2064:
	.loc 9 177 0
	addq	$16, %rsp	#,
	.cfi_remember_state
	.cfi_def_cfa_offset 16
	popq	%rbx	#
	.cfi_def_cfa_offset 8
.LVL133:
	ret
.LVL134:
.L106:
	.cfi_restore_state
.LBB2074:
.LBB2073:
.LBB2072:
.LBB2071:
	.loc 10 242 0
	leaq	16(%rbx), %rdi	#, tmp65
.LVL135:
	call	_ZN9__gnu_cxxL27__exchange_and_add_dispatchEPii.constprop.84	#
.LVL136:
	testl	%eax, %eax	# D.79508
	jg	.L101	#,
	.loc 10 246 0
	leaq	15(%rsp), %rsi	#,
.LVL137:
	movq	%rbx, %rdi	# D.79504,
	call	_ZNSs4_Rep10_M_destroyERKSaIcE	#
.LVL138:
	jmp	.L101	#
.LBE2071:
.LBE2072:
.LBE2073:
.LBE2074:
	.cfi_endproc
.LFE3501:
	.size	_ZZN11Performance7CompareEvEN6resultD2Ev, .-_ZZN11Performance7CompareEvEN6resultD2Ev
	.set	_ZZN11Performance7CompareEvEN6resultD1Ev,_ZZN11Performance7CompareEvEN6resultD2Ev
	.section	.text._ZN17goodRecursionImplIyE9fibonacciEm,"axG",@progbits,_ZN17goodRecursionImplIyE9fibonacciEm,comdat
	.p2align 4,,15
	.weak	_ZN17goodRecursionImplIyE9fibonacciEm
	.type	_ZN17goodRecursionImplIyE9fibonacciEm, @function
_ZN17goodRecursionImplIyE9fibonacciEm:
.LFB3482:
	.file 12 "BasicRecursiveFibonacci.h"
	.loc 12 17 0
	.cfi_startproc
.LVL139:
	.loc 12 19 0
	cmpq	$92, %rdi	#, n
	movq	$-1, %rax	#, last
	jbe	.L114	#,
	.loc 12 20 0 discriminator 3
	rep
	ret
	.p2align 4,,10
	.p2align 3
.L114:
.LBB2081:
.LBB2082:
.LBB2083:
	.loc 12 14 0
	testq	%rdi, %rdi	# n
	je	.L112	#,
	xorl	%ecx, %ecx	# last
	movl	$1, %edx	#, last
	jmp	.L110	#
.LVL140:
	.p2align 4,,10
	.p2align 3
.L113:
	movq	%rax, %rdx	# last, last
.LVL141:
.L110:
	subq	$1, %rdi	#, n
.LVL142:
	leaq	(%rcx,%rdx), %rax	#, last
	movq	%rdx, %rcx	# last, last
	jne	.L113	#,
	rep
	ret
.LVL143:
.L112:
	movl	$1, %eax	#, last
.LBE2083:
.LBE2082:
.LBE2081:
	.loc 12 20 0
	ret
	.cfi_endproc
.LFE3482:
	.size	_ZN17goodRecursionImplIyE9fibonacciEm, .-_ZN17goodRecursionImplIyE9fibonacciEm
	.section	.text._ZN4loop9fibonacciEm,"axG",@progbits,_ZN4loop9fibonacciEm,comdat
	.p2align 4,,15
	.weak	_ZN4loop9fibonacciEm
	.type	_ZN4loop9fibonacciEm, @function
_ZN4loop9fibonacciEm:
.LFB3470:
	.file 13 "BasicLoopFibonacci.h"
	.loc 13 20 0
	.cfi_startproc
.LVL144:
	.loc 13 24 0
	cmpq	$92, %rdi	#, n
	movq	$-1, %rax	#, f2
	jbe	.L124	#,
.LVL145:
.L116:
	.loc 13 25 0 discriminator 6
	rep
	ret
.LVL146:
	.p2align 4,,10
	.p2align 3
.L124:
.LBB2092:
.LBB2093:
	.loc 13 24 0
	testq	%rdi, %rdi	# n
	movl	$1, %eax	#, f2
	je	.L116	#,
.LVL147:
.LBB2094:
.LBB2095:
	.loc 13 10 0
	subq	$1, %rdi	#, n
.LVL148:
	je	.L116	#,
	movl	$1, %ecx	#, f2
	movl	$1, %edx	#, f2
	jmp	.L118	#
.LVL149:
	.p2align 4,,10
	.p2align 3
.L122:
	.loc 13 13 0
	movq	%rax, %rdx	# f2, f2
.LVL150:
.L118:
	.loc 13 10 0
	subq	$1, %rdi	#, n
	.loc 13 13 0
	leaq	(%rcx,%rdx), %rax	#, f2
.LVL151:
	movq	%rdx, %rcx	# f2, f2
	.loc 13 10 0
	jne	.L122	#,
.LBE2095:
.LBE2094:
.LBE2093:
.LBE2092:
	.loc 13 25 0
	rep
	ret
	.cfi_endproc
.LFE3470:
	.size	_ZN4loop9fibonacciEm, .-_ZN4loop9fibonacciEm
	.text
	.align 2
	.p2align 4,,15
	.globl	_ZN11Performance28TestPerformanceOfOneFunctionERSt6vectorINS_4testESaIS1_EEPFymE
	.type	_ZN11Performance28TestPerformanceOfOneFunctionERSt6vectorINS_4testESaIS1_EEPFymE, @function
_ZN11Performance28TestPerformanceOfOneFunctionERSt6vectorINS_4testESaIS1_EEPFymE:
.LFB3476:
	.loc 9 27 0
	.cfi_startproc
.LVL152:
	pushq	%r12	#
	.cfi_def_cfa_offset 16
	.cfi_offset 12, -16
	movq	%rsi, %r12	# f, f
	pushq	%rbp	#
	.cfi_def_cfa_offset 24
	.cfi_offset 6, -24
	pushq	%rbx	#
	.cfi_def_cfa_offset 32
	.cfi_offset 3, -32
	movq	%rdi, %rbx	# tests, tests
	subq	$16, %rsp	#,
	.cfi_def_cfa_offset 48
.LVL153:
.LBB2149:
.LBB2150:
.LBB2151:
.LBB2152:
	.file 14 "StopWatch.h"
	.loc 14 12 0
	call	_ZNSt6chrono12system_clock3nowEv	#
.LVL154:
.LBE2152:
.LBE2151:
.LBE2150:
.LBB2155:
.LBB2156:
.LBB2157:
.LBB2158:
	.file 15 "/usr/libexec/openshift/cartridges/c9-0.1/root/cloud9-gcc-linux-toolchain/bin/../lib/gcc/x86_64-redhat-linux/4.7.2/../../../../include/c++/4.7.2/bits/stl_iterator.h"
	.loc 15 728 0
	movq	8(%rbx), %rbp	# MEM[(struct test * const &)tests_1(D) + 8], D.77158
	movq	(%rbx), %rbx	# MEM[(struct test * const &)tests_1(D)], ivtmp.597
.LVL155:
.LBE2158:
.LBE2157:
.LBE2156:
.LBE2155:
.LBB2159:
.LBB2154:
.LBB2153:
	.loc 14 12 0
	movq	%rax, (%rsp)	# tmp86, sw.start_
.LVL156:
.LBE2153:
.LBE2154:
.LBE2159:
.LBB2160:
	.loc 9 30 0
	cmpq	%rbp, %rbx	# D.77158, ivtmp.597
	je	.L128	#,
	.p2align 4,,10
	.p2align 3
.L129:
.LVL157:
	.loc 9 32 0
	movq	(%rbx), %rdi	# MEM[base: D.79602_62, offset: 0],
	addq	$16, %rbx	#, ivtmp.597
.LVL158:
	call	*%r12	# f
.LVL159:
	.loc 9 30 0
	cmpq	%rbx, %rbp	# ivtmp.597, D.77158
	jne	.L129	#,
.LVL160:
.L128:
.LBE2160:
.LBB2161:
.LBB2162:
	.loc 14 15 0
	call	_ZNSt6chrono12system_clock3nowEv	#
.LVL161:
.LBE2162:
.LBE2161:
.LBB2163:
.LBB2164:
.LBB2165:
.LBB2166:
	.file 16 "/usr/libexec/openshift/cartridges/c9-0.1/root/cloud9-gcc-linux-toolchain/bin/../lib/gcc/x86_64-redhat-linux/4.7.2/../../../../include/c++/4.7.2/chrono"
	.loc 16 376 0
	subq	(%rsp), %rax	# MEM[(const struct time_point *)&sw].__r, tmp88
.LBE2166:
.LBE2165:
.LBE2164:
.LBE2163:
.LBE2149:
	.loc 9 35 0
	addq	$16, %rsp	#,
	.cfi_def_cfa_offset 32
.LVL162:
	popq	%rbx	#
	.cfi_def_cfa_offset 24
	popq	%rbp	#
	.cfi_def_cfa_offset 16
.LVL163:
	popq	%r12	#
	.cfi_def_cfa_offset 8
.LVL164:
.LBB2172:
.LBB2171:
.LBB2167:
.LBB2168:
.LBB2169:
.LBB2170:
	.loc 16 155 0
	imulq	$1000, %rax, %rax	#, tmp88, D.77200
.LVL165:
.LBE2170:
.LBE2169:
.LBE2168:
.LBE2167:
.LBE2171:
.LBE2172:
	.loc 9 35 0
	ret
	.cfi_endproc
.LFE3476:
	.size	_ZN11Performance28TestPerformanceOfOneFunctionERSt6vectorINS_4testESaIS1_EEPFymE, .-_ZN11Performance28TestPerformanceOfOneFunctionERSt6vectorINS_4testESaIS1_EEPFymE
	.section	.rodata.str1.8,"aMS",@progbits,1
	.align 8
.LC4:
	.string	"Side effect for InlinedArrayLookup(): "
	.text
	.align 2
	.p2align 4,,15
	.globl	_ZN11Performance18InlinedArrayLookupERSt6vectorINS_4testESaIS1_EE
	.type	_ZN11Performance18InlinedArrayLookupERSt6vectorINS_4testESaIS1_EE, @function
_ZN11Performance18InlinedArrayLookupERSt6vectorINS_4testESaIS1_EE:
.LFB3479:
	.loc 9 38 0
	.cfi_startproc
.LVL166:
	pushq	%rbp	#
	.cfi_def_cfa_offset 16
	.cfi_offset 6, -16
	pushq	%rbx	#
	.cfi_def_cfa_offset 24
	.cfi_offset 3, -24
	movq	%rdi, %rbx	# tests, tests
	subq	$24, %rsp	#,
	.cfi_def_cfa_offset 48
.LVL167:
.LBB2242:
.LBB2243:
.LBB2244:
.LBB2245:
	.loc 14 12 0
	call	_ZNSt6chrono12system_clock3nowEv	#
.LVL168:
.LBE2245:
.LBE2244:
.LBE2243:
.LBB2248:
.LBB2249:
.LBB2250:
.LBB2251:
	.loc 15 728 0
	movq	8(%rbx), %rsi	# MEM[(struct test * const &)tests_3(D) + 8], D.77069
.LBE2251:
.LBE2250:
.LBE2249:
.LBE2248:
.LBB2257:
.LBB2247:
.LBB2246:
	.loc 14 12 0
	movq	%rax, (%rsp)	# tmp95, sw.start_
.LVL169:
.LBE2246:
.LBE2247:
.LBE2257:
.LBB2258:
.LBB2252:
.LBB2253:
.LBB2254:
	.loc 15 728 0
	movq	(%rbx), %rax	# MEM[(struct test * const &)tests_3(D)], SR.303
.LVL170:
.LBE2254:
.LBE2253:
.LBE2252:
	.loc 9 39 0
	xorl	%ebx, %ebx	# result
.LVL171:
	.loc 9 42 0
	cmpq	%rsi, %rax	# D.77069, SR.303
	je	.L134	#,
.LVL172:
	.p2align 4,,10
	.p2align 3
.L136:
	movq	(%rax), %rcx	# MEM[base: D.79671_113, offset: 0], test$param
.LVL173:
.LBB2255:
.LBB2256:
	.loc 1 20 0
	movq	$-1, %rdx	#, D.77076
	cmpq	$92, %rcx	#, test$param
	ja	.L135	#,
	movq	_ZN14metaprogrammed6ValuesE(,%rcx,8), %rdx	# Values, D.77076
.L135:
	addq	$16, %rax	#, ivtmp.607
.LBE2256:
.LBE2255:
	.loc 9 44 0
	xorq	%rdx, %rbx	# D.77076, result
.LVL174:
	.loc 9 42 0
	cmpq	%rax, %rsi	# ivtmp.607, D.77069
	jne	.L136	#,
.LVL175:
.L134:
.LBE2258:
.LBB2259:
.LBB2260:
	.loc 14 15 0
	call	_ZNSt6chrono12system_clock3nowEv	#
.LVL176:
.LBE2260:
.LBE2259:
.LBB2262:
.LBB2263:
	.loc 2 533 0
	movl	$38, %edx	#,
	movl	$.LC4, %esi	#,
	movl	$_ZSt4cout, %edi	#,
.LBE2263:
.LBE2262:
.LBB2265:
.LBB2261:
	.loc 14 15 0
	movq	%rax, 8(%rsp)	# tmp97, sw.end_
.LVL177:
.LBE2261:
.LBE2265:
.LBB2266:
.LBB2264:
	.loc 2 533 0
	call	_ZSt16__ostream_insertIcSt11char_traitsIcEERSt13basic_ostreamIT_T0_ES6_PKS3_l	#
.LVL178:
.LBE2264:
.LBE2266:
.LBB2267:
.LBB2268:
.LBB2269:
.LBB2270:
.LBB2271:
.LBB2272:
.LBB2273:
	.loc 10 290 0
	movq	_ZL12GoToColumn60(%rip), %rsi	# GoToColumn60._M_dataplus._M_p, D.79617
.LVL179:
.LBE2273:
.LBE2272:
.LBE2271:
.LBE2270:
.LBE2269:
	.loc 10 2755 0
	movl	$_ZSt4cout, %edi	#,
	movq	-24(%rsi), %rdx	# MEM[(struct _Rep *)D.79617_81 + -24B].D.19289._M_length, MEM[(struct _Rep *)D.79617_81 + -24B].D.19289._M_length
	call	_ZSt16__ostream_insertIcSt11char_traitsIcEERSt13basic_ostreamIT_T0_ES6_PKS3_l	#
.LVL180:
.LBE2268:
.LBE2267:
.LBB2274:
.LBB2275:
	.loc 2 204 0
	movq	%rbx, %rsi	# result,
	movq	%rax, %rdi	# D.79614,
	call	_ZNSo9_M_insertIyEERSoT_	#
.LVL181:
.LBE2275:
.LBE2274:
.LBB2276:
.LBB2277:
.LBB2278:
.LBB2279:
.LBB2280:
.LBB2281:
.LBB2282:
	.loc 10 290 0
	movq	_ZL11ToEndOfLine(%rip), %rsi	# ToEndOfLine._M_dataplus._M_p, D.79626
.LVL182:
.LBE2282:
.LBE2281:
.LBE2280:
.LBE2279:
.LBE2278:
	.loc 10 2755 0
	movq	%rax, %rdi	# D.77095,
	movq	-24(%rsi), %rdx	# MEM[(struct _Rep *)D.79626_85 + -24B].D.19289._M_length, MEM[(struct _Rep *)D.79626_85 + -24B].D.19289._M_length
	call	_ZSt16__ostream_insertIcSt11char_traitsIcEERSt13basic_ostreamIT_T0_ES6_PKS3_l	#
.LVL183:
	movq	%rax, %rbp	#, D.79623
.LVL184:
.LBE2277:
.LBE2276:
.LBB2283:
.LBB2284:
.LBB2285:
	.loc 2 563 0
	movq	(%rax), %rax	# D.79623_88->_vptr.basic_ostream, D.79623_88->_vptr.basic_ostream
.LVL185:
.LBE2285:
	.loc 9 220 0
	movq	-24(%rax), %rax	# MEM[(long int *)D.79639_89 + -24B], MEM[(long int *)D.79639_89 + -24B]
	movq	240(%rbp,%rax), %rbx	# MEM[(const struct basic_ios *)D.79636_92 + 240B], D.79648
.LVL186:
.LBB2298:
.LBB2286:
.LBB2287:
.LBB2288:
	.loc 4 50 0
	testq	%rbx, %rbx	# D.79648
	je	.L144	#,
.LVL187:
.LBE2288:
.LBE2287:
.LBB2290:
.LBB2291:
	.file 17 "/usr/libexec/openshift/cartridges/c9-0.1/root/cloud9-gcc-linux-toolchain/bin/../lib/gcc/x86_64-redhat-linux/4.7.2/../../../../include/c++/4.7.2/bits/locale_facets.h"
	.loc 17 869 0
	cmpb	$0, 56(%rbx)	#, MEM[(const struct ctype *)D.79648_93]._M_widen_ok
	je	.L138	#,
	.loc 17 870 0
	movzbl	67(%rbx), %eax	# MEM[(const struct ctype *)D.79648_93]._M_widen, D.79653
.LVL188:
.L139:
.LBE2291:
.LBE2290:
.LBE2286:
	.loc 2 563 0
	movq	%rbp, %rdi	# D.79623,
	movsbl	%al, %esi	# D.79653, D.79653
	call	_ZNSo3putEc	#
.LVL189:
.LBB2295:
.LBB2296:
	.loc 2 585 0
	movq	%rax, %rdi	# D.79633,
	call	_ZNSo5flushEv	#
.LVL190:
.LBE2296:
.LBE2295:
.LBE2298:
.LBE2284:
.LBE2283:
.LBB2301:
.LBB2302:
.LBB2303:
.LBB2304:
	.loc 16 376 0
	movq	8(%rsp), %rax	# MEM[(const struct time_point *)&sw + 8B].__r, tmp107
	subq	(%rsp), %rax	# MEM[(const struct time_point *)&sw].__r, tmp107
.LBE2304:
.LBE2303:
.LBE2302:
.LBE2301:
.LBE2242:
	.loc 9 49 0
	addq	$24, %rsp	#,
	.cfi_remember_state
	.cfi_def_cfa_offset 24
.LVL191:
	popq	%rbx	#
	.cfi_def_cfa_offset 16
.LVL192:
	popq	%rbp	#
	.cfi_def_cfa_offset 8
.LVL193:
.LBB2311:
.LBB2309:
.LBB2305:
.LBB2306:
.LBB2307:
.LBB2308:
	.loc 16 155 0
	imulq	$1000, %rax, %rax	#, tmp107, D.77122
.LVL194:
.LBE2308:
.LBE2307:
.LBE2306:
.LBE2305:
.LBE2309:
.LBE2311:
	.loc 9 49 0
	ret
.LVL195:
	.p2align 4,,10
	.p2align 3
.L138:
	.cfi_restore_state
.LBB2312:
.LBB2310:
.LBB2300:
.LBB2299:
.LBB2297:
.LBB2293:
.LBB2292:
	.loc 17 871 0
	movq	%rbx, %rdi	# D.79648,
	call	_ZNKSt5ctypeIcE13_M_widen_initEv	#
.LVL196:
	.loc 17 872 0
	movq	(%rbx), %rax	# MEM[(const struct ctype *)D.79648_93].D.22576._vptr.facet, MEM[(const struct ctype *)D.79648_93].D.22576._vptr.facet
	movl	$10, %esi	#,
	movq	%rbx, %rdi	# D.79648,
	call	*48(%rax)	# MEM[(int (*__vtbl_ptr_type) () *)D.79656_106 + 48B]
.LVL197:
	jmp	.L139	#
.LVL198:
.L144:
.LBE2292:
.LBE2293:
.LBB2294:
.LBB2289:
	.loc 4 51 0
	call	_ZSt16__throw_bad_castv	#
.LVL199:
.LBE2289:
.LBE2294:
.LBE2297:
.LBE2299:
.LBE2300:
.LBE2310:
.LBE2312:
	.cfi_endproc
.LFE3479:
	.size	_ZN11Performance18InlinedArrayLookupERSt6vectorINS_4testESaIS1_EE, .-_ZN11Performance18InlinedArrayLookupERSt6vectorINS_4testESaIS1_EE
	.section	.rodata.str1.8
	.align 8
.LC5:
	.string	"Side effect for InlinedStandardLoop(): "
	.text
	.align 2
	.p2align 4,,15
	.globl	_ZN11Performance19InlinedStandardLoopERKSt6vectorINS_4testESaIS1_EE
	.type	_ZN11Performance19InlinedStandardLoopERKSt6vectorINS_4testESaIS1_EE, @function
_ZN11Performance19InlinedStandardLoopERKSt6vectorINS_4testESaIS1_EE:
.LFB3480:
	.loc 9 52 0
	.cfi_startproc
.LVL200:
	pushq	%rbp	#
	.cfi_def_cfa_offset 16
	.cfi_offset 6, -16
	pushq	%rbx	#
	.cfi_def_cfa_offset 24
	.cfi_offset 3, -24
	movq	%rdi, %rbx	# tests, tests
	subq	$24, %rsp	#,
	.cfi_def_cfa_offset 48
.LVL201:
.LBB2382:
.LBB2383:
.LBB2384:
.LBB2385:
	.loc 14 12 0
	call	_ZNSt6chrono12system_clock3nowEv	#
.LVL202:
	.loc 9 220 0
	movq	(%rbx), %rdi	# MEM[(const struct vector *)tests_3(D)], SR.334
	movq	8(%rbx), %rsi	# MEM[(const struct vector *)tests_3(D) + 8B], D.77289
.LBE2385:
.LBE2384:
.LBE2383:
.LBB2388:
	.loc 9 53 0
	xorl	%ebx, %ebx	# result
.LVL203:
.LBE2388:
.LBB2395:
.LBB2387:
.LBB2386:
	.loc 14 12 0
	movq	%rax, (%rsp)	# tmp100, sw.start_
.LVL204:
.LBE2386:
.LBE2387:
.LBE2395:
.LBB2396:
	.loc 9 56 0
	cmpq	%rsi, %rdi	# D.77289, SR.334
	jne	.L150	#,
	jmp	.L146	#
.LVL205:
	.p2align 4,,10
	.p2align 3
.L147:
	addq	$16, %rdi	#, ivtmp.623
.LVL206:
	.loc 9 58 0
	xorq	%rax, %rbx	# f2, result
.LVL207:
	.loc 9 56 0
	cmpq	%rdi, %rsi	# ivtmp.623, D.77289
	je	.L146	#,
.LVL208:
.L150:
	movq	(%rdi), %rdx	# MEM[base: D.79757_132, offset: 0], test$param
.LVL209:
.LBB2389:
.LBB2390:
	.loc 13 24 0
	movq	$-1, %rax	#, f2
	cmpq	$92, %rdx	#, test$param
	ja	.L147	#,
.LVL210:
.LBB2391:
.LBB2392:
	testq	%rdx, %rdx	# test$param
	movl	$1, %eax	#, f2
	je	.L147	#,
.LVL211:
.LBB2393:
.LBB2394:
	.loc 13 10 0
	subq	$1, %rdx	#, test$param
.LVL212:
	je	.L147	#,
	movl	$1, %r8d	#, f2
	movl	$1, %ecx	#, f2
	jmp	.L149	#
.LVL213:
	.p2align 4,,10
	.p2align 3
.L158:
	.loc 13 13 0
	movq	%rax, %rcx	# f2, f2
.LVL214:
.L149:
	.loc 13 10 0
	subq	$1, %rdx	#, test$param
	.loc 13 13 0
	leaq	(%r8,%rcx), %rax	#, f2
.LVL215:
	movq	%rcx, %r8	# f2, f2
	.loc 13 10 0
	jne	.L158	#,
	addq	$16, %rdi	#, ivtmp.623
.LVL216:
.LBE2394:
.LBE2393:
.LBE2392:
.LBE2391:
.LBE2390:
.LBE2389:
	.loc 9 58 0
	xorq	%rax, %rbx	# f2, result
.LVL217:
	.loc 9 56 0
	cmpq	%rdi, %rsi	# ivtmp.623, D.77289
	jne	.L150	#,
.LVL218:
	.p2align 4,,10
	.p2align 3
.L146:
.LBE2396:
.LBB2397:
.LBB2398:
	.loc 14 15 0
	call	_ZNSt6chrono12system_clock3nowEv	#
.LVL219:
.LBE2398:
.LBE2397:
.LBB2400:
.LBB2401:
	.loc 2 533 0
	movl	$39, %edx	#,
	movl	$.LC5, %esi	#,
	movl	$_ZSt4cout, %edi	#,
.LBE2401:
.LBE2400:
.LBB2403:
.LBB2399:
	.loc 14 15 0
	movq	%rax, 8(%rsp)	# tmp101, sw.end_
.LVL220:
.LBE2399:
.LBE2403:
.LBB2404:
.LBB2402:
	.loc 2 533 0
	call	_ZSt16__ostream_insertIcSt11char_traitsIcEERSt13basic_ostreamIT_T0_ES6_PKS3_l	#
.LVL221:
.LBE2402:
.LBE2404:
.LBB2405:
.LBB2406:
.LBB2407:
.LBB2408:
.LBB2409:
.LBB2410:
.LBB2411:
	.loc 10 290 0
	movq	_ZL12GoToColumn60(%rip), %rsi	# GoToColumn60._M_dataplus._M_p, D.79695
.LVL222:
.LBE2411:
.LBE2410:
.LBE2409:
.LBE2408:
.LBE2407:
	.loc 10 2755 0
	movl	$_ZSt4cout, %edi	#,
	movq	-24(%rsi), %rdx	# MEM[(struct _Rep *)D.79695_92 + -24B].D.19289._M_length, MEM[(struct _Rep *)D.79695_92 + -24B].D.19289._M_length
	call	_ZSt16__ostream_insertIcSt11char_traitsIcEERSt13basic_ostreamIT_T0_ES6_PKS3_l	#
.LVL223:
.LBE2406:
.LBE2405:
.LBB2412:
.LBB2413:
	.loc 2 204 0
	movq	%rbx, %rsi	# result,
	movq	%rax, %rdi	# D.79692,
	call	_ZNSo9_M_insertIyEERSoT_	#
.LVL224:
.LBE2413:
.LBE2412:
.LBB2414:
.LBB2415:
.LBB2416:
.LBB2417:
.LBB2418:
.LBB2419:
.LBB2420:
	.loc 10 290 0
	movq	_ZL11ToEndOfLine(%rip), %rsi	# ToEndOfLine._M_dataplus._M_p, D.79704
.LVL225:
.LBE2420:
.LBE2419:
.LBE2418:
.LBE2417:
.LBE2416:
	.loc 10 2755 0
	movq	%rax, %rdi	# D.77311,
	movq	-24(%rsi), %rdx	# MEM[(struct _Rep *)D.79704_96 + -24B].D.19289._M_length, MEM[(struct _Rep *)D.79704_96 + -24B].D.19289._M_length
	call	_ZSt16__ostream_insertIcSt11char_traitsIcEERSt13basic_ostreamIT_T0_ES6_PKS3_l	#
.LVL226:
	movq	%rax, %rbp	#, D.79701
.LVL227:
.LBE2415:
.LBE2414:
.LBB2421:
.LBB2422:
.LBB2423:
	.loc 2 563 0
	movq	(%rax), %rax	# D.79701_99->_vptr.basic_ostream, D.79701_99->_vptr.basic_ostream
.LVL228:
.LBE2423:
	.loc 9 220 0
	movq	-24(%rax), %rax	# MEM[(long int *)D.79717_100 + -24B], MEM[(long int *)D.79717_100 + -24B]
	movq	240(%rbp,%rax), %rbx	# MEM[(const struct basic_ios *)D.79714_103 + 240B], D.79726
.LVL229:
.LBB2436:
.LBB2424:
.LBB2425:
.LBB2426:
	.loc 4 50 0
	testq	%rbx, %rbx	# D.79726
	je	.L162	#,
.LVL230:
.LBE2426:
.LBE2425:
.LBB2428:
.LBB2429:
	.loc 17 869 0
	cmpb	$0, 56(%rbx)	#, MEM[(const struct ctype *)D.79726_104]._M_widen_ok
	je	.L152	#,
	.loc 17 870 0
	movzbl	67(%rbx), %eax	# MEM[(const struct ctype *)D.79726_104]._M_widen, D.79731
.LVL231:
.L153:
.LBE2429:
.LBE2428:
.LBE2424:
	.loc 2 563 0
	movq	%rbp, %rdi	# D.79701,
	movsbl	%al, %esi	# D.79731, D.79731
	call	_ZNSo3putEc	#
.LVL232:
.LBB2433:
.LBB2434:
	.loc 2 585 0
	movq	%rax, %rdi	# D.79711,
	call	_ZNSo5flushEv	#
.LVL233:
.LBE2434:
.LBE2433:
.LBE2436:
.LBE2422:
.LBE2421:
.LBB2439:
.LBB2440:
.LBB2441:
.LBB2442:
	.loc 16 376 0
	movq	8(%rsp), %rax	# MEM[(const struct time_point *)&sw + 8B].__r, tmp111
	subq	(%rsp), %rax	# MEM[(const struct time_point *)&sw].__r, tmp111
.LBE2442:
.LBE2441:
.LBE2440:
.LBE2439:
.LBE2382:
	.loc 9 63 0
	addq	$24, %rsp	#,
	.cfi_remember_state
	.cfi_def_cfa_offset 24
.LVL234:
	popq	%rbx	#
	.cfi_def_cfa_offset 16
.LVL235:
	popq	%rbp	#
	.cfi_def_cfa_offset 8
.LVL236:
.LBB2449:
.LBB2447:
.LBB2443:
.LBB2444:
.LBB2445:
.LBB2446:
	.loc 16 155 0
	imulq	$1000, %rax, %rax	#, tmp111, D.77338
.LVL237:
.LBE2446:
.LBE2445:
.LBE2444:
.LBE2443:
.LBE2447:
.LBE2449:
	.loc 9 63 0
	ret
.LVL238:
	.p2align 4,,10
	.p2align 3
.L152:
	.cfi_restore_state
.LBB2450:
.LBB2448:
.LBB2438:
.LBB2437:
.LBB2435:
.LBB2431:
.LBB2430:
	.loc 17 871 0
	movq	%rbx, %rdi	# D.79726,
	call	_ZNKSt5ctypeIcE13_M_widen_initEv	#
.LVL239:
	.loc 17 872 0
	movq	(%rbx), %rax	# MEM[(const struct ctype *)D.79726_104].D.22576._vptr.facet, MEM[(const struct ctype *)D.79726_104].D.22576._vptr.facet
	movl	$10, %esi	#,
	movq	%rbx, %rdi	# D.79726,
	call	*48(%rax)	# MEM[(int (*__vtbl_ptr_type) () *)D.79734_117 + 48B]
.LVL240:
	jmp	.L153	#
.LVL241:
.L162:
.LBE2430:
.LBE2431:
.LBB2432:
.LBB2427:
	.loc 4 51 0
	call	_ZSt16__throw_bad_castv	#
.LVL242:
.LBE2427:
.LBE2432:
.LBE2435:
.LBE2437:
.LBE2438:
.LBE2448:
.LBE2450:
	.cfi_endproc
.LFE3480:
	.size	_ZN11Performance19InlinedStandardLoopERKSt6vectorINS_4testESaIS1_EE, .-_ZN11Performance19InlinedStandardLoopERKSt6vectorINS_4testESaIS1_EE
	.section	.rodata.str1.8
	.align 8
.LC6:
	.string	"Side effect for InlinedRecursion(): "
	.text
	.align 2
	.p2align 4,,15
	.globl	_ZN11Performance16InlinedRecursionERSt6vectorINS_4testESaIS1_EE
	.type	_ZN11Performance16InlinedRecursionERSt6vectorINS_4testESaIS1_EE, @function
_ZN11Performance16InlinedRecursionERSt6vectorINS_4testESaIS1_EE:
.LFB3481:
	.loc 9 65 0
	.cfi_startproc
.LVL243:
	pushq	%rbp	#
	.cfi_def_cfa_offset 16
	.cfi_offset 6, -16
	pushq	%rbx	#
	.cfi_def_cfa_offset 24
	.cfi_offset 3, -24
	movq	%rdi, %rbx	# tests, tests
	subq	$24, %rsp	#,
	.cfi_def_cfa_offset 48
.LVL244:
.LBB2525:
.LBB2526:
.LBB2527:
.LBB2528:
	.loc 14 12 0
	call	_ZNSt6chrono12system_clock3nowEv	#
.LVL245:
.LBE2528:
.LBE2527:
.LBE2526:
.LBB2531:
.LBB2532:
.LBB2533:
.LBB2534:
	.loc 15 728 0
	movq	(%rbx), %r8	# MEM[(struct test * const &)tests_3(D)], SR.292
.LBE2534:
.LBE2533:
.LBE2532:
.LBB2535:
.LBB2536:
.LBB2537:
	movq	8(%rbx), %rsi	# MEM[(struct test * const &)tests_3(D) + 8], D.76983
.LBE2537:
.LBE2536:
.LBE2535:
	.loc 9 66 0
	xorl	%ebx, %ebx	# result
.LVL246:
.LBE2531:
.LBB2548:
.LBB2530:
.LBB2529:
	.loc 14 12 0
	movq	%rax, (%rsp)	# tmp98, sw.start_
.LVL247:
.LBE2529:
.LBE2530:
.LBE2548:
.LBB2549:
	.loc 9 69 0
	cmpq	%rsi, %r8	# D.76983, SR.292
	jne	.L168	#,
	jmp	.L164	#
.LVL248:
	.p2align 4,,10
	.p2align 3
.L165:
	addq	$16, %r8	#, ivtmp.642
	.loc 9 71 0
	xorq	%rcx, %rbx	# last, result
.LVL249:
	.loc 9 69 0
	cmpq	%r8, %rsi	# ivtmp.642, D.76983
	je	.L164	#,
.LVL250:
.L168:
	movq	(%r8), %rax	# MEM[base: D.79842_81, offset: 0], test$param
.LVL251:
.LBB2538:
.LBB2539:
	.loc 12 19 0
	movq	$-1, %rcx	#, last
	cmpq	$92, %rax	#, test$param
	ja	.L165	#,
.LBB2540:
.LBB2541:
.LBB2542:
	.loc 12 14 0
	testq	%rax, %rax	# test$param
	je	.L174	#,
	xorl	%edi, %edi	# last
	movl	$1, %edx	#, last
	jmp	.L167	#
.LVL252:
	.p2align 4,,10
	.p2align 3
.L175:
	movq	%rcx, %rdx	# last, last
.LVL253:
.L167:
	subq	$1, %rax	#, test$param
.LVL254:
	leaq	(%rdi,%rdx), %rcx	#, last
	movq	%rdx, %rdi	# last, last
	jne	.L175	#,
	addq	$16, %r8	#, ivtmp.642
.LVL255:
.LBE2542:
.LBE2541:
.LBE2540:
.LBE2539:
.LBE2538:
	.loc 9 71 0
	xorq	%rcx, %rbx	# last, result
.LVL256:
	.loc 9 69 0
	cmpq	%r8, %rsi	# ivtmp.642, D.76983
	jne	.L168	#,
.LVL257:
.L164:
.LBE2549:
.LBB2550:
.LBB2551:
	.loc 14 15 0
	call	_ZNSt6chrono12system_clock3nowEv	#
.LVL258:
.LBE2551:
.LBE2550:
.LBB2553:
.LBB2554:
	.loc 2 533 0
	movl	$36, %edx	#,
	movl	$.LC6, %esi	#,
	movl	$_ZSt4cout, %edi	#,
.LBE2554:
.LBE2553:
.LBB2556:
.LBB2552:
	.loc 14 15 0
	movq	%rax, 8(%rsp)	# tmp99, sw.end_
.LVL259:
.LBE2552:
.LBE2556:
.LBB2557:
.LBB2555:
	.loc 2 533 0
	call	_ZSt16__ostream_insertIcSt11char_traitsIcEERSt13basic_ostreamIT_T0_ES6_PKS3_l	#
.LVL260:
.LBE2555:
.LBE2557:
.LBB2558:
.LBB2559:
.LBB2560:
.LBB2561:
.LBB2562:
.LBB2563:
.LBB2564:
	.loc 10 290 0
	movq	_ZL12GoToColumn60(%rip), %rsi	# GoToColumn60._M_dataplus._M_p, D.79781
.LVL261:
.LBE2564:
.LBE2563:
.LBE2562:
.LBE2561:
.LBE2560:
	.loc 10 2755 0
	movl	$_ZSt4cout, %edi	#,
	movq	-24(%rsi), %rdx	# MEM[(struct _Rep *)D.79781_92 + -24B].D.19289._M_length, MEM[(struct _Rep *)D.79781_92 + -24B].D.19289._M_length
	call	_ZSt16__ostream_insertIcSt11char_traitsIcEERSt13basic_ostreamIT_T0_ES6_PKS3_l	#
.LVL262:
.LBE2559:
.LBE2558:
.LBB2565:
.LBB2566:
	.loc 2 204 0
	movq	%rbx, %rsi	# result,
	movq	%rax, %rdi	# D.79778,
	call	_ZNSo9_M_insertIyEERSoT_	#
.LVL263:
.LBE2566:
.LBE2565:
.LBB2567:
.LBB2568:
.LBB2569:
.LBB2570:
.LBB2571:
.LBB2572:
.LBB2573:
	.loc 10 290 0
	movq	_ZL11ToEndOfLine(%rip), %rsi	# ToEndOfLine._M_dataplus._M_p, D.79790
.LVL264:
.LBE2573:
.LBE2572:
.LBE2571:
.LBE2570:
.LBE2569:
	.loc 10 2755 0
	movq	%rax, %rdi	# D.77006,
	movq	-24(%rsi), %rdx	# MEM[(struct _Rep *)D.79790_96 + -24B].D.19289._M_length, MEM[(struct _Rep *)D.79790_96 + -24B].D.19289._M_length
	call	_ZSt16__ostream_insertIcSt11char_traitsIcEERSt13basic_ostreamIT_T0_ES6_PKS3_l	#
.LVL265:
	movq	%rax, %rbp	#, D.79787
.LVL266:
.LBE2568:
.LBE2567:
.LBB2574:
.LBB2575:
.LBB2576:
	.loc 2 563 0
	movq	(%rax), %rax	# D.79787_99->_vptr.basic_ostream, D.79787_99->_vptr.basic_ostream
.LVL267:
.LBE2576:
	.loc 9 220 0
	movq	-24(%rax), %rax	# MEM[(long int *)D.79803_100 + -24B], MEM[(long int *)D.79803_100 + -24B]
	movq	240(%rbp,%rax), %rbx	# MEM[(const struct basic_ios *)D.79800_103 + 240B], D.79812
.LVL268:
.LBB2590:
.LBB2577:
.LBB2578:
.LBB2579:
	.loc 4 50 0
	testq	%rbx, %rbx	# D.79812
	je	.L178	#,
.LVL269:
.LBE2579:
.LBE2578:
.LBB2581:
.LBB2582:
	.loc 17 869 0
	cmpb	$0, 56(%rbx)	#, MEM[(const struct ctype *)D.79812_104]._M_widen_ok
	je	.L170	#,
	.loc 17 870 0
	movzbl	67(%rbx), %eax	# MEM[(const struct ctype *)D.79812_104]._M_widen, D.79817
.LVL270:
.L171:
.LBE2582:
.LBE2581:
.LBE2577:
	.loc 2 563 0
	movq	%rbp, %rdi	# D.79787,
	movsbl	%al, %esi	# D.79817, D.79817
	call	_ZNSo3putEc	#
.LVL271:
.LBB2586:
.LBB2587:
	.loc 2 585 0
	movq	%rax, %rdi	# D.79797,
	call	_ZNSo5flushEv	#
.LVL272:
.LBE2587:
.LBE2586:
.LBE2590:
.LBE2575:
.LBE2574:
.LBB2595:
.LBB2596:
.LBB2597:
.LBB2598:
	.loc 16 376 0
	movq	8(%rsp), %rax	# MEM[(const struct time_point *)&sw + 8B].__r, tmp109
	subq	(%rsp), %rax	# MEM[(const struct time_point *)&sw].__r, tmp109
.LBE2598:
.LBE2597:
.LBE2596:
.LBE2595:
.LBE2525:
	.loc 9 76 0
	addq	$24, %rsp	#,
	.cfi_remember_state
	.cfi_def_cfa_offset 24
.LVL273:
	popq	%rbx	#
	.cfi_def_cfa_offset 16
.LVL274:
	popq	%rbp	#
	.cfi_def_cfa_offset 8
.LVL275:
.LBB2607:
.LBB2603:
.LBB2599:
.LBB2600:
.LBB2601:
.LBB2602:
	.loc 16 155 0
	imulq	$1000, %rax, %rax	#, tmp109, D.77033
.LVL276:
.LBE2602:
.LBE2601:
.LBE2600:
.LBE2599:
.LBE2603:
.LBE2607:
	.loc 9 76 0
	ret
.LVL277:
	.p2align 4,,10
	.p2align 3
.L170:
	.cfi_restore_state
.LBB2608:
.LBB2604:
.LBB2593:
.LBB2591:
.LBB2588:
.LBB2584:
.LBB2583:
	.loc 17 871 0
	movq	%rbx, %rdi	# D.79812,
	call	_ZNKSt5ctypeIcE13_M_widen_initEv	#
.LVL278:
	.loc 17 872 0
	movq	(%rbx), %rax	# MEM[(const struct ctype *)D.79812_104].D.22576._vptr.facet, MEM[(const struct ctype *)D.79812_104].D.22576._vptr.facet
	movl	$10, %esi	#,
	movq	%rbx, %rdi	# D.79812,
	call	*48(%rax)	# MEM[(int (*__vtbl_ptr_type) () *)D.79820_117 + 48B]
.LVL279:
	jmp	.L171	#
.LVL280:
.L174:
.LBE2583:
.LBE2584:
.LBE2588:
.LBE2591:
.LBE2593:
.LBE2604:
.LBB2605:
.LBB2547:
.LBB2546:
.LBB2545:
.LBB2544:
.LBB2543:
	.loc 12 14 0
	movl	$1, %ecx	#, last
	jmp	.L165	#
.LVL281:
.L178:
.LBE2543:
.LBE2544:
.LBE2545:
.LBE2546:
.LBE2547:
.LBE2605:
.LBB2606:
.LBB2594:
.LBB2592:
.LBB2589:
.LBB2585:
.LBB2580:
	.loc 4 51 0
	.p2align 4,,6
	call	_ZSt16__throw_bad_castv	#
.LVL282:
.LBE2580:
.LBE2585:
.LBE2589:
.LBE2592:
.LBE2594:
.LBE2606:
.LBE2608:
	.cfi_endproc
.LFE3481:
	.size	_ZN11Performance16InlinedRecursionERSt6vectorINS_4testESaIS1_EE, .-_ZN11Performance16InlinedRecursionERSt6vectorINS_4testESaIS1_EE
	.section	.rodata.str1.8
	.align 8
.LC7:
	.string	"Side effect for InlinedMatrix(): "
	.text
	.align 2
	.p2align 4,,15
	.globl	_ZN11Performance13InlinedMatrixERSt6vectorINS_4testESaIS1_EE
	.type	_ZN11Performance13InlinedMatrixERSt6vectorINS_4testESaIS1_EE, @function
_ZN11Performance13InlinedMatrixERSt6vectorINS_4testESaIS1_EE:
.LFB3484:
	.loc 9 79 0
	.cfi_startproc
.LVL283:
	pushq	%r12	#
	.cfi_def_cfa_offset 16
	.cfi_offset 12, -16
	pushq	%rbp	#
	.cfi_def_cfa_offset 24
	.cfi_offset 6, -24
	movq	%rdi, %rbp	# tests, tests
	pushq	%rbx	#
	.cfi_def_cfa_offset 32
	.cfi_offset 3, -32
	subq	$16, %rsp	#,
	.cfi_def_cfa_offset 48
.LVL284:
.LBB2676:
.LBB2677:
.LBB2678:
.LBB2679:
	.loc 14 12 0
	call	_ZNSt6chrono12system_clock3nowEv	#
.LVL285:
.LBE2679:
.LBE2678:
.LBE2677:
.LBB2682:
.LBB2683:
.LBB2684:
.LBB2685:
	.loc 15 728 0
	movq	0(%rbp), %rbx	# MEM[(struct test * const &)tests_3(D)], SR.281
.LBE2685:
.LBE2684:
.LBE2683:
.LBB2686:
.LBB2687:
.LBB2688:
	movq	8(%rbp), %r12	# MEM[(struct test * const &)tests_3(D) + 8], D.76897
.LBE2688:
.LBE2687:
.LBE2686:
	.loc 9 80 0
	xorl	%ebp, %ebp	# result
.LVL286:
.LBE2682:
.LBB2689:
.LBB2681:
.LBB2680:
	.loc 14 12 0
	movq	%rax, (%rsp)	# tmp94, sw.start_
.LVL287:
.LBE2680:
.LBE2681:
.LBE2689:
.LBB2690:
	.loc 9 83 0
	cmpq	%r12, %rbx	# D.76897, SR.281
	je	.L180	#,
.LVL288:
	.p2align 4,,10
	.p2align 3
.L181:
	.loc 9 85 0
	movq	(%rbx), %rdi	# MEM[base: D.79911_114, offset: 0],
	addq	$16, %rbx	#, ivtmp.651
.LVL289:
	call	_ZN20matrixMultiplication11UsingMatrix9fibonacciEm	#
.LVL290:
	xorq	%rax, %rbp	# D.64754, result
.LVL291:
	.loc 9 83 0
	cmpq	%rbx, %r12	# ivtmp.651, D.76897
	jne	.L181	#,
.LVL292:
.L180:
.LBE2690:
.LBB2691:
.LBB2692:
	.loc 14 15 0
	call	_ZNSt6chrono12system_clock3nowEv	#
.LVL293:
.LBE2692:
.LBE2691:
.LBB2694:
.LBB2695:
	.loc 2 533 0
	movl	$33, %edx	#,
	movl	$.LC7, %esi	#,
	movl	$_ZSt4cout, %edi	#,
.LBE2695:
.LBE2694:
.LBB2697:
.LBB2693:
	.loc 14 15 0
	movq	%rax, 8(%rsp)	# tmp95, sw.end_
.LVL294:
.LBE2693:
.LBE2697:
.LBB2698:
.LBB2696:
	.loc 2 533 0
	call	_ZSt16__ostream_insertIcSt11char_traitsIcEERSt13basic_ostreamIT_T0_ES6_PKS3_l	#
.LVL295:
.LBE2696:
.LBE2698:
.LBB2699:
.LBB2700:
.LBB2701:
.LBB2702:
.LBB2703:
.LBB2704:
.LBB2705:
	.loc 10 290 0
	movq	_ZL12GoToColumn60(%rip), %rsi	# GoToColumn60._M_dataplus._M_p, D.79858
.LVL296:
.LBE2705:
.LBE2704:
.LBE2703:
.LBE2702:
.LBE2701:
	.loc 10 2755 0
	movl	$_ZSt4cout, %edi	#,
	movq	-24(%rsi), %rdx	# MEM[(struct _Rep *)D.79858_83 + -24B].D.19289._M_length, MEM[(struct _Rep *)D.79858_83 + -24B].D.19289._M_length
	call	_ZSt16__ostream_insertIcSt11char_traitsIcEERSt13basic_ostreamIT_T0_ES6_PKS3_l	#
.LVL297:
.LBE2700:
.LBE2699:
.LBB2706:
.LBB2707:
	.loc 2 204 0
	movq	%rbp, %rsi	# result,
	movq	%rax, %rdi	# D.79855,
	call	_ZNSo9_M_insertIyEERSoT_	#
.LVL298:
.LBE2707:
.LBE2706:
.LBB2708:
.LBB2709:
.LBB2710:
.LBB2711:
.LBB2712:
.LBB2713:
.LBB2714:
	.loc 10 290 0
	movq	_ZL11ToEndOfLine(%rip), %rsi	# ToEndOfLine._M_dataplus._M_p, D.79867
.LVL299:
.LBE2714:
.LBE2713:
.LBE2712:
.LBE2711:
.LBE2710:
	.loc 10 2755 0
	movq	%rax, %rdi	# D.76920,
	movq	-24(%rsi), %rdx	# MEM[(struct _Rep *)D.79867_87 + -24B].D.19289._M_length, MEM[(struct _Rep *)D.79867_87 + -24B].D.19289._M_length
	call	_ZSt16__ostream_insertIcSt11char_traitsIcEERSt13basic_ostreamIT_T0_ES6_PKS3_l	#
.LVL300:
	movq	%rax, %rbp	#, D.79864
.LVL301:
.LBE2709:
.LBE2708:
.LBB2715:
.LBB2716:
.LBB2717:
	.loc 2 563 0
	movq	(%rax), %rax	# D.79864_90->_vptr.basic_ostream, D.79864_90->_vptr.basic_ostream
.LVL302:
.LBE2717:
	.loc 9 220 0
	movq	-24(%rax), %rax	# MEM[(long int *)D.79880_91 + -24B], MEM[(long int *)D.79880_91 + -24B]
	movq	240(%rbp,%rax), %rbx	# MEM[(const struct basic_ios *)D.79877_94 + 240B], D.79889
.LVL303:
.LBB2730:
.LBB2718:
.LBB2719:
.LBB2720:
	.loc 4 50 0
	testq	%rbx, %rbx	# D.79889
	je	.L188	#,
.LVL304:
.LBE2720:
.LBE2719:
.LBB2722:
.LBB2723:
	.loc 17 869 0
	cmpb	$0, 56(%rbx)	#, MEM[(const struct ctype *)D.79889_95]._M_widen_ok
	je	.L183	#,
	.loc 17 870 0
	movzbl	67(%rbx), %eax	# MEM[(const struct ctype *)D.79889_95]._M_widen, D.79894
.LVL305:
.L184:
.LBE2723:
.LBE2722:
.LBE2718:
	.loc 2 563 0
	movq	%rbp, %rdi	# D.79864,
	movsbl	%al, %esi	# D.79894, D.79894
	call	_ZNSo3putEc	#
.LVL306:
.LBB2727:
.LBB2728:
	.loc 2 585 0
	movq	%rax, %rdi	# D.79874,
	call	_ZNSo5flushEv	#
.LVL307:
.LBE2728:
.LBE2727:
.LBE2730:
.LBE2716:
.LBE2715:
.LBB2733:
.LBB2734:
.LBB2735:
.LBB2736:
	.loc 16 376 0
	movq	8(%rsp), %rax	# MEM[(const struct time_point *)&sw + 8B].__r, tmp105
	subq	(%rsp), %rax	# MEM[(const struct time_point *)&sw].__r, tmp105
.LBE2736:
.LBE2735:
.LBE2734:
.LBE2733:
.LBE2676:
	.loc 9 90 0
	addq	$16, %rsp	#,
	.cfi_remember_state
	.cfi_def_cfa_offset 32
.LVL308:
	popq	%rbx	#
	.cfi_def_cfa_offset 24
.LVL309:
	popq	%rbp	#
	.cfi_def_cfa_offset 16
.LVL310:
	popq	%r12	#
	.cfi_def_cfa_offset 8
.LVL311:
.LBB2743:
.LBB2741:
.LBB2737:
.LBB2738:
.LBB2739:
.LBB2740:
	.loc 16 155 0
	imulq	$1000, %rax, %rax	#, tmp105, D.76947
.LVL312:
.LBE2740:
.LBE2739:
.LBE2738:
.LBE2737:
.LBE2741:
.LBE2743:
	.loc 9 90 0
	ret
.LVL313:
	.p2align 4,,10
	.p2align 3
.L183:
	.cfi_restore_state
.LBB2744:
.LBB2742:
.LBB2732:
.LBB2731:
.LBB2729:
.LBB2725:
.LBB2724:
	.loc 17 871 0
	movq	%rbx, %rdi	# D.79889,
	call	_ZNKSt5ctypeIcE13_M_widen_initEv	#
.LVL314:
	.loc 17 872 0
	movq	(%rbx), %rax	# MEM[(const struct ctype *)D.79889_95].D.22576._vptr.facet, MEM[(const struct ctype *)D.79889_95].D.22576._vptr.facet
	movl	$10, %esi	#,
	movq	%rbx, %rdi	# D.79889,
	call	*48(%rax)	# MEM[(int (*__vtbl_ptr_type) () *)D.79897_108 + 48B]
.LVL315:
	jmp	.L184	#
.LVL316:
.L188:
.LBE2724:
.LBE2725:
.LBB2726:
.LBB2721:
	.loc 4 51 0
	call	_ZSt16__throw_bad_castv	#
.LVL317:
.LBE2721:
.LBE2726:
.LBE2729:
.LBE2731:
.LBE2732:
.LBE2742:
.LBE2744:
	.cfi_endproc
.LFE3484:
	.size	_ZN11Performance13InlinedMatrixERSt6vectorINS_4testESaIS1_EE, .-_ZN11Performance13InlinedMatrixERSt6vectorINS_4testESaIS1_EE
	.section	.rodata.str1.8
	.align 8
.LC8:
	.string	"Side effect for InlinedWithoutLoopsOrRecursion(): "
	.text
	.align 2
	.p2align 4,,15
	.globl	_ZN11Performance30InlinedWithoutLoopsOrRecursionERSt6vectorINS_4testESaIS1_EE
	.type	_ZN11Performance30InlinedWithoutLoopsOrRecursionERSt6vectorINS_4testESaIS1_EE, @function
_ZN11Performance30InlinedWithoutLoopsOrRecursionERSt6vectorINS_4testESaIS1_EE:
.LFB3485:
	.loc 9 93 0
	.cfi_startproc
.LVL318:
	pushq	%r13	#
	.cfi_def_cfa_offset 16
	.cfi_offset 13, -16
	pushq	%r12	#
	.cfi_def_cfa_offset 24
	.cfi_offset 12, -24
	pushq	%rbp	#
	.cfi_def_cfa_offset 32
	.cfi_offset 6, -32
	movq	%rdi, %rbp	# tests, tests
	pushq	%rbx	#
	.cfi_def_cfa_offset 40
	.cfi_offset 3, -40
	subq	$24, %rsp	#,
	.cfi_def_cfa_offset 64
.LVL319:
.LBB2817:
.LBB2818:
.LBB2819:
.LBB2820:
	.loc 14 12 0
	call	_ZNSt6chrono12system_clock3nowEv	#
.LVL320:
.LBE2820:
.LBE2819:
.LBE2818:
.LBB2823:
.LBB2824:
.LBB2825:
.LBB2826:
	.loc 15 728 0
	movq	0(%rbp), %rbx	# MEM[(struct test * const &)tests_3(D)], SR.270
.LBE2826:
.LBE2825:
.LBE2824:
.LBB2827:
.LBB2828:
.LBB2829:
	movq	8(%rbp), %r12	# MEM[(struct test * const &)tests_3(D) + 8], D.76811
.LBE2829:
.LBE2828:
.LBE2827:
	.loc 9 94 0
	xorl	%ebp, %ebp	# result
.LVL321:
.LBE2823:
.LBB2840:
.LBB2822:
.LBB2821:
	.loc 14 12 0
	movq	%rax, (%rsp)	# tmp101, sw.start_
.LVL322:
.LBE2821:
.LBE2822:
.LBE2840:
.LBB2841:
	.loc 9 97 0
	cmpq	%r12, %rbx	# D.76811, SR.270
	je	.L190	#,
.LBB2830:
.LBB2831:
	.loc 6 17 0
	movabsq	$-9223372036854775808, %r13	#, tmp138
	jmp	.L195	#
.LVL323:
	.p2align 4,,10
	.p2align 3
.L202:
	cvttsd2siq	%xmm0, %rax	# tmp113, tmp115
	addq	$16, %rbx	#, ivtmp.661
.LBE2831:
.LBE2830:
	.loc 9 99 0
	xorq	%rax, %rbp	# tmp115, result
.LVL324:
	.loc 9 97 0
	cmpq	%rbx, %r12	# ivtmp.661, D.76811
	je	.L190	#,
.LVL325:
.L195:
.LBB2838:
.LBB2836:
.LBB2832:
.LBB2833:
	.loc 7 440 0
	movq	(%rbx), %rax	# MEM[base: D.79994_9, offset: 0], tmp102
	addq	$1, %rax	#, tmp102
.LVL326:
	js	.L191	#,
	cvtsi2sdq	%rax, %xmm1	# tmp102, tmp104
.LVL327:
.L192:
	movsd	.LC0(%rip), %xmm0	#,
	call	pow	#
.LVL328:
.LBE2833:
.LBE2832:
	.loc 6 17 0
	mulsd	.LC1(%rip), %xmm0	#, tmp113
	addsd	.LC2(%rip), %xmm0	#, tmp113
	ucomisd	.LC3(%rip), %xmm0	#, tmp113
	jb	.L202	#,
	subsd	.LC3(%rip), %xmm0	#, tmp117
	addq	$16, %rbx	#, ivtmp.661
	cvttsd2siq	%xmm0, %rax	# tmp117, tmp115
	xorq	%r13, %rax	# tmp138, tmp115
.LBE2836:
.LBE2838:
	.loc 9 99 0
	xorq	%rax, %rbp	# tmp115, result
.LVL329:
	.loc 9 97 0
	cmpq	%rbx, %r12	# ivtmp.661, D.76811
	jne	.L195	#,
.LVL330:
.L190:
.LBE2841:
.LBB2842:
.LBB2843:
	.loc 14 15 0
	call	_ZNSt6chrono12system_clock3nowEv	#
.LVL331:
.LBE2843:
.LBE2842:
.LBB2845:
.LBB2846:
	.loc 2 533 0
	movl	$50, %edx	#,
	movl	$.LC8, %esi	#,
	movl	$_ZSt4cout, %edi	#,
.LBE2846:
.LBE2845:
.LBB2848:
.LBB2844:
	.loc 14 15 0
	movq	%rax, 8(%rsp)	# tmp120, sw.end_
.LVL332:
.LBE2844:
.LBE2848:
.LBB2849:
.LBB2847:
	.loc 2 533 0
	call	_ZSt16__ostream_insertIcSt11char_traitsIcEERSt13basic_ostreamIT_T0_ES6_PKS3_l	#
.LVL333:
.LBE2847:
.LBE2849:
.LBB2850:
.LBB2851:
.LBB2852:
.LBB2853:
.LBB2854:
.LBB2855:
.LBB2856:
	.loc 10 290 0
	movq	_ZL12GoToColumn60(%rip), %rsi	# GoToColumn60._M_dataplus._M_p, D.79940
.LVL334:
.LBE2856:
.LBE2855:
.LBE2854:
.LBE2853:
.LBE2852:
	.loc 10 2755 0
	movl	$_ZSt4cout, %edi	#,
	movq	-24(%rsi), %rdx	# MEM[(struct _Rep *)D.79940_86 + -24B].D.19289._M_length, MEM[(struct _Rep *)D.79940_86 + -24B].D.19289._M_length
	call	_ZSt16__ostream_insertIcSt11char_traitsIcEERSt13basic_ostreamIT_T0_ES6_PKS3_l	#
.LVL335:
.LBE2851:
.LBE2850:
.LBB2857:
.LBB2858:
	.loc 2 204 0
	movq	%rbp, %rsi	# result,
	movq	%rax, %rdi	# D.79937,
	call	_ZNSo9_M_insertIyEERSoT_	#
.LVL336:
.LBE2858:
.LBE2857:
.LBB2859:
.LBB2860:
.LBB2861:
.LBB2862:
.LBB2863:
.LBB2864:
.LBB2865:
	.loc 10 290 0
	movq	_ZL11ToEndOfLine(%rip), %rsi	# ToEndOfLine._M_dataplus._M_p, D.79949
.LVL337:
.LBE2865:
.LBE2864:
.LBE2863:
.LBE2862:
.LBE2861:
	.loc 10 2755 0
	movq	%rax, %rdi	# D.76834,
	movq	-24(%rsi), %rdx	# MEM[(struct _Rep *)D.79949_90 + -24B].D.19289._M_length, MEM[(struct _Rep *)D.79949_90 + -24B].D.19289._M_length
	call	_ZSt16__ostream_insertIcSt11char_traitsIcEERSt13basic_ostreamIT_T0_ES6_PKS3_l	#
.LVL338:
	movq	%rax, %rbp	#, D.79946
.LVL339:
.LBE2860:
.LBE2859:
.LBB2866:
.LBB2867:
.LBB2868:
	.loc 2 563 0
	movq	(%rax), %rax	# D.79946_93->_vptr.basic_ostream, D.79946_93->_vptr.basic_ostream
.LVL340:
.LBE2868:
	.loc 9 220 0
	movq	-24(%rax), %rax	# MEM[(long int *)D.79962_94 + -24B], MEM[(long int *)D.79962_94 + -24B]
	movq	240(%rbp,%rax), %rbx	# MEM[(const struct basic_ios *)D.79959_97 + 240B], D.79971
.LVL341:
.LBB2881:
.LBB2869:
.LBB2870:
.LBB2871:
	.loc 4 50 0
	testq	%rbx, %rbx	# D.79971
	je	.L203	#,
.LVL342:
.LBE2871:
.LBE2870:
.LBB2873:
.LBB2874:
	.loc 17 869 0
	cmpb	$0, 56(%rbx)	#, MEM[(const struct ctype *)D.79971_98]._M_widen_ok
	je	.L197	#,
	.loc 17 870 0
	movzbl	67(%rbx), %eax	# MEM[(const struct ctype *)D.79971_98]._M_widen, D.79976
.LVL343:
.L198:
.LBE2874:
.LBE2873:
.LBE2869:
	.loc 2 563 0
	movq	%rbp, %rdi	# D.79946,
	movsbl	%al, %esi	# D.79976, D.79976
	call	_ZNSo3putEc	#
.LVL344:
.LBB2878:
.LBB2879:
	.loc 2 585 0
	movq	%rax, %rdi	# D.79956,
	call	_ZNSo5flushEv	#
.LVL345:
.LBE2879:
.LBE2878:
.LBE2881:
.LBE2867:
.LBE2866:
.LBB2884:
.LBB2885:
.LBB2886:
.LBB2887:
	.loc 16 376 0
	movq	8(%rsp), %rax	# MEM[(const struct time_point *)&sw + 8B].__r, tmp130
	subq	(%rsp), %rax	# MEM[(const struct time_point *)&sw].__r, tmp130
.LBE2887:
.LBE2886:
.LBE2885:
.LBE2884:
.LBE2817:
	.loc 9 104 0
	addq	$24, %rsp	#,
	.cfi_remember_state
	.cfi_def_cfa_offset 40
.LVL346:
	popq	%rbx	#
	.cfi_def_cfa_offset 32
.LVL347:
	popq	%rbp	#
	.cfi_def_cfa_offset 24
.LVL348:
	popq	%r12	#
	.cfi_def_cfa_offset 16
.LVL349:
.LBB2895:
.LBB2892:
.LBB2888:
.LBB2889:
.LBB2890:
.LBB2891:
	.loc 16 155 0
	imulq	$1000, %rax, %rax	#, tmp130, D.76861
.LVL350:
.LBE2891:
.LBE2890:
.LBE2889:
.LBE2888:
.LBE2892:
.LBE2895:
	.loc 9 104 0
	popq	%r13	#
	.cfi_def_cfa_offset 8
	ret
.LVL351:
	.p2align 4,,10
	.p2align 3
.L191:
	.cfi_restore_state
.LBB2896:
.LBB2893:
.LBB2839:
.LBB2837:
.LBB2835:
.LBB2834:
	.loc 7 440 0
	movq	%rax, %rdx	# tmp102, tmp106
	andl	$1, %eax	#, tmp107
.LVL352:
	shrq	%rdx	# tmp106
.LVL353:
	orq	%rax, %rdx	# tmp107, tmp106
	cvtsi2sdq	%rdx, %xmm1	# tmp106, tmp104
	addsd	%xmm1, %xmm1	# tmp104, tmp104
	jmp	.L192	#
.LVL354:
	.p2align 4,,10
	.p2align 3
.L197:
.LBE2834:
.LBE2835:
.LBE2837:
.LBE2839:
.LBE2893:
.LBB2894:
.LBB2883:
.LBB2882:
.LBB2880:
.LBB2876:
.LBB2875:
	.loc 17 871 0
	movq	%rbx, %rdi	# D.79971,
	call	_ZNKSt5ctypeIcE13_M_widen_initEv	#
.LVL355:
	.loc 17 872 0
	movq	(%rbx), %rax	# MEM[(const struct ctype *)D.79971_98].D.22576._vptr.facet, MEM[(const struct ctype *)D.79971_98].D.22576._vptr.facet
	movl	$10, %esi	#,
	movq	%rbx, %rdi	# D.79971,
	call	*48(%rax)	# MEM[(int (*__vtbl_ptr_type) () *)D.79979_111 + 48B]
.LVL356:
	jmp	.L198	#
.LVL357:
.L203:
.LBE2875:
.LBE2876:
.LBB2877:
.LBB2872:
	.loc 4 51 0
	call	_ZSt16__throw_bad_castv	#
.LVL358:
.LBE2872:
.LBE2877:
.LBE2880:
.LBE2882:
.LBE2883:
.LBE2894:
.LBE2896:
	.cfi_endproc
.LFE3485:
	.size	_ZN11Performance30InlinedWithoutLoopsOrRecursionERSt6vectorINS_4testESaIS1_EE, .-_ZN11Performance30InlinedWithoutLoopsOrRecursionERSt6vectorINS_4testESaIS1_EE
	.section	.rodata.str1.8
	.align 8
.LC9:
	.string	"Number of tests, in random order, to run for each of the 93 possible parameter values (0 to 92)"
	.section	.rodata.str1.1,"aMS",@progbits,1
.LC10:
	.string	"["
.LC11:
	.string	"]: "
.LC12:
	.string	"    "
	.text
	.align 2
	.p2align 4,,15
	.globl	_ZN11Performance4ShowERKSt6vectorImSaImEE
	.type	_ZN11Performance4ShowERKSt6vectorImSaImEE, @function
_ZN11Performance4ShowERKSt6vectorImSaImEE:
.LFB3486:
	.loc 9 107 0
	.cfi_startproc
.LVL359:
	pushq	%r15	#
	.cfi_def_cfa_offset 16
	.cfi_offset 15, -16
	pushq	%r14	#
	.cfi_def_cfa_offset 24
	.cfi_offset 14, -24
	pushq	%r13	#
	.cfi_def_cfa_offset 32
	.cfi_offset 13, -32
	pushq	%r12	#
	.cfi_def_cfa_offset 40
	.cfi_offset 12, -40
	movq	%rdi, %r12	# histogram, histogram
.LBB2985:
.LBB2986:
.LBB2987:
	.loc 10 2755 0
	movl	$_ZSt4cout, %edi	#,
.LVL360:
.LBE2987:
.LBE2986:
.LBE2985:
	.loc 9 107 0
	pushq	%rbp	#
	.cfi_def_cfa_offset 48
	.cfi_offset 6, -48
	pushq	%rbx	#
	.cfi_def_cfa_offset 56
	.cfi_offset 3, -56
	subq	$8, %rsp	#,
	.cfi_def_cfa_offset 64
.LBB3107:
.LBB2995:
.LBB2993:
.LBB2988:
.LBB2989:
.LBB2990:
.LBB2991:
.LBB2992:
	.loc 10 290 0
	movq	_ZL10BeginTitle(%rip), %rsi	# BeginTitle._M_dataplus._M_p, D.80001
.LVL361:
.LBE2992:
.LBE2991:
.LBE2990:
.LBE2989:
.LBE2988:
	.loc 10 2755 0
	movq	-24(%rsi), %rdx	# MEM[(struct _Rep *)D.80001_97 + -24B].D.19289._M_length, MEM[(struct _Rep *)D.80001_97 + -24B].D.19289._M_length
	call	_ZSt16__ostream_insertIcSt11char_traitsIcEERSt13basic_ostreamIT_T0_ES6_PKS3_l	#
.LVL362:
.LBE2993:
.LBE2995:
.LBB2996:
.LBB2997:
	.loc 2 533 0
	movl	$95, %edx	#,
	movl	$.LC9, %esi	#,
	movq	%rax, %rdi	# D.80004,
.LBE2997:
.LBE2996:
.LBB2999:
.LBB2994:
	.loc 10 2755 0
	movq	%rax, %rbx	#, D.80004
.LVL363:
.LBE2994:
.LBE2999:
.LBB3000:
.LBB2998:
	.loc 2 533 0
	call	_ZSt16__ostream_insertIcSt11char_traitsIcEERSt13basic_ostreamIT_T0_ES6_PKS3_l	#
.LVL364:
.LBE2998:
.LBE3000:
.LBB3001:
.LBB3002:
.LBB3003:
.LBB3004:
.LBB3005:
.LBB3006:
.LBB3007:
	.loc 10 290 0
	movq	_ZL8EndTitle(%rip), %rsi	# EndTitle._M_dataplus._M_p, D.80016
.LVL365:
.LBE3007:
.LBE3006:
.LBE3005:
.LBE3004:
.LBE3003:
	.loc 10 2755 0
	movq	%rbx, %rdi	# D.80004,
	movq	-24(%rsi), %rdx	# MEM[(struct _Rep *)D.80016_103 + -24B].D.19289._M_length, MEM[(struct _Rep *)D.80016_103 + -24B].D.19289._M_length
	call	_ZSt16__ostream_insertIcSt11char_traitsIcEERSt13basic_ostreamIT_T0_ES6_PKS3_l	#
.LVL366:
	movq	%rax, %rbp	#, D.80019
.LVL367:
.LBE3002:
.LBE3001:
.LBB3008:
.LBB3009:
.LBB3010:
	.loc 2 563 0
	movq	(%rax), %rax	# D.80019_106->_vptr.basic_ostream, D.80019_106->_vptr.basic_ostream
.LVL368:
.LBE3010:
	.loc 9 220 0
	movq	-24(%rax), %rax	# MEM[(long int *)D.80031_107 + -24B], MEM[(long int *)D.80031_107 + -24B]
	movq	240(%rbp,%rax), %rbx	# MEM[(const struct basic_ios *)D.80028_110 + 240B], D.80040
.LVL369:
.LBB3024:
.LBB3011:
.LBB3012:
.LBB3013:
	.loc 4 50 0
	testq	%rbx, %rbx	# D.80040
	je	.L209	#,
.LVL370:
.LBE3013:
.LBE3012:
.LBB3015:
.LBB3016:
	.loc 17 869 0
	cmpb	$0, 56(%rbx)	#, MEM[(const struct ctype *)D.80040_111]._M_widen_ok
	je	.L206	#,
	.loc 17 870 0
	movzbl	67(%rbx), %eax	# MEM[(const struct ctype *)D.80040_111]._M_widen, D.80045
.LVL371:
.L207:
.LBE3016:
.LBE3015:
.LBE3011:
	.loc 2 563 0
	movsbl	%al, %esi	# D.80045, D.80045
	movq	%rbp, %rdi	# D.80019,
.LBE3024:
.LBE3009:
.LBE3008:
.LBB3031:
	.loc 9 111 0
	xorl	%ebx, %ebx	# ivtmp.692
.LVL372:
.LBE3031:
.LBB3075:
.LBB3028:
.LBB3025:
	.loc 2 563 0
	call	_ZNSo3putEc	#
.LVL373:
.LBB3020:
.LBB3021:
	.loc 2 585 0
	movq	%rax, %rdi	# D.80025,
	call	_ZNSo5flushEv	#
.LVL374:
	.loc 9 220 0
	movq	(%r12), %rax	# MEM[(const struct vector *)histogram_8(D)], prephitmp.686
.LVL375:
.LBE3021:
.LBE3020:
.LBE3025:
.LBE3028:
.LBE3075:
.LBB3076:
.LBB3077:
	.file 18 "/usr/libexec/openshift/cartridges/c9-0.1/root/cloud9-gcc-linux-toolchain/bin/../lib/gcc/x86_64-redhat-linux/4.7.2/../../../../include/c++/4.7.2/bits/stl_vector.h"
	.loc 18 626 0
	movq	8(%r12), %r13	# MEM[(const struct vector *)histogram_8(D) + 8B], tmp158
	subq	%rax, %r13	# prephitmp.686, tmp158
.LBE3077:
.LBE3076:
	.loc 9 110 0
	shrq	$3, %r13	#, last
.LVL376:
.LBB3078:
	.loc 9 111 0
	testl	%r13d, %r13d	# last
	jg	.L224	#,
	jmp	.L214	#
.LVL377:
	.p2align 4,,10
	.p2align 3
.L211:
	addq	$1, %rbx	#, ivtmp.692
.LVL378:
	cmpl	%ebx, %r13d	# ivtmp.692, last
	jle	.L214	#,
.LVL379:
.L227:
	movq	(%r12), %rax	# MEM[(const struct vector *)histogram_8(D)], prephitmp.686
.LVL380:
.L224:
.LBB3032:
.LBB3033:
	.loc 2 533 0
	movl	$1, %edx	#,
	movl	$.LC10, %esi	#,
	movl	$_ZSt4cout, %edi	#,
.LBE3033:
.LBE3032:
	.loc 9 113 0
	movq	(%rax,%rbx,8), %r15	# *D.76661_61, D.75692
.LVL381:
.LBB3035:
.LBB3034:
	.loc 2 533 0
	call	_ZSt16__ostream_insertIcSt11char_traitsIcEERSt13basic_ostreamIT_T0_ES6_PKS3_l	#
.LVL382:
.LBE3034:
.LBE3035:
.LBB3036:
.LBB3037:
	.file 19 "/usr/libexec/openshift/cartridges/c9-0.1/root/cloud9-gcc-linux-toolchain/bin/../lib/gcc/x86_64-redhat-linux/4.7.2/../../../../include/c++/4.7.2/iomanip"
	.loc 19 239 0
	movq	_ZSt4cout(%rip), %rax	# cout._vptr.basic_ostream, cout._vptr.basic_ostream
.LBE3037:
.LBE3036:
	.loc 9 113 0
	movl	%ebx, %esi	# ivtmp.692,
	movl	$_ZSt4cout, %edi	#,
.LVL383:
.LBB3041:
.LBB3040:
.LBB3038:
.LBB3039:
	.loc 3 658 0
	movq	-24(%rax), %rax	# MEM[(long int *)D.76677_64 + -24B], MEM[(long int *)D.76677_64 + -24B]
.LVL384:
	movq	$2, _ZSt4cout+16(%rax)	#, MEM[(streamsize *)D.76674_67 + 16B]
.LBE3039:
.LBE3038:
.LBE3040:
.LBE3041:
	.loc 9 113 0
	call	_ZNSolsEi	#
.LVL385:
.LBB3042:
.LBB3043:
	.loc 2 533 0
	movl	$3, %edx	#,
.LBE3043:
.LBE3042:
	.loc 9 113 0
	movq	%rax, %rbp	#, D.75697
.LVL386:
.LBB3045:
.LBB3044:
	.loc 2 533 0
	movl	$.LC11, %esi	#,
	movq	%rax, %rdi	# D.75697,
	call	_ZSt16__ostream_insertIcSt11char_traitsIcEERSt13basic_ostreamIT_T0_ES6_PKS3_l	#
.LVL387:
.LBE3044:
.LBE3045:
.LBB3046:
.LBB3047:
	.loc 19 239 0
	movq	0(%rbp), %rax	# D.75697_23->_vptr.basic_ostream, D.75697_23->_vptr.basic_ostream
.LBE3047:
.LBE3046:
.LBB3051:
.LBB3052:
	.loc 2 169 0
	movq	%r15, %rsi	# D.75692,
	movq	%rbp, %rdi	# D.75697,
.LBE3052:
.LBE3051:
.LBB3054:
.LBB3050:
.LBB3048:
.LBB3049:
	.loc 3 658 0
	movq	-24(%rax), %rax	# MEM[(long int *)D.76689_70 + -24B], MEM[(long int *)D.76689_70 + -24B]
	movq	$4, 16(%rbp,%rax)	#, MEM[(streamsize *)D.76686_73 + 16B]
.LVL388:
.LBE3049:
.LBE3048:
.LBE3050:
.LBE3054:
.LBB3055:
.LBB3053:
	.loc 2 169 0
	call	_ZNSo9_M_insertImEERSoT_	#
.LVL389:
.LBE3053:
.LBE3055:
.LBB3056:
.LBB3057:
	.loc 2 533 0
	movl	$4, %edx	#,
	movl	$.LC12, %esi	#,
	movq	%rax, %rdi	# D.76695,
	call	_ZSt16__ostream_insertIcSt11char_traitsIcEERSt13basic_ostreamIT_T0_ES6_PKS3_l	#
.LVL390:
.LBE3057:
.LBE3056:
	.loc 9 114 0
	movl	$1717986919, %eax	#,
	movl	%ebx, %ecx	# i, tmp179
	imull	%ebx	# i
	movl	%ebx, %eax	# i, tmp174
	sarl	$31, %eax	#, tmp174
	sarl	$2, %edx	#, tmp170
	subl	%eax, %edx	# tmp174, tmp170
	leal	(%rdx,%rdx,4), %eax	#, tmp177
	addl	%eax, %eax	# tmp178
	subl	%eax, %ecx	# tmp178, tmp179
	cmpl	$9, %ecx	#, tmp179
	jne	.L211	#,
.LVL391:
.LBB3058:
.LBB3059:
.LBB3060:
	.loc 2 563 0
	movq	_ZSt4cout(%rip), %rax	# cout._vptr.basic_ostream, cout._vptr.basic_ostream
.LBE3060:
	.loc 9 220 0
	movq	-24(%rax), %rax	# MEM[(long int *)D.80082_135 + -24B], MEM[(long int *)D.80082_135 + -24B]
	movq	_ZSt4cout+240(%rax), %rbp	# MEM[(const struct basic_ios *)D.80079_138 + 240B], D.80091
.LVL392:
.LBB3071:
.LBB3061:
.LBB3062:
.LBB3063:
	.loc 4 50 0
	testq	%rbp, %rbp	# D.80091
	je	.L209	#,
.LVL393:
.LBE3063:
.LBE3062:
.LBB3064:
.LBB3065:
	.loc 17 869 0
	cmpb	$0, 56(%rbp)	#, MEM[(const struct ctype *)D.80091_139]._M_widen_ok
	je	.L212	#,
	.loc 17 870 0
	movzbl	67(%rbp), %eax	# MEM[(const struct ctype *)D.80091_139]._M_widen, D.80096
.LVL394:
.L213:
.LBE3065:
.LBE3064:
.LBE3061:
	.loc 2 563 0
	movsbl	%al, %esi	# D.80096, D.80096
	movl	$_ZSt4cout, %edi	#,
	addq	$1, %rbx	#, ivtmp.692
.LVL395:
	call	_ZNSo3putEc	#
.LVL396:
.LBB3068:
.LBB3069:
	.loc 2 585 0
	movq	%rax, %rdi	# D.80076,
	call	_ZNSo5flushEv	#
.LVL397:
.LBE3069:
.LBE3068:
.LBE3071:
.LBE3059:
.LBE3058:
	.loc 9 111 0
	cmpl	%ebx, %r13d	# ivtmp.692, last
	jg	.L227	#,
.LVL398:
	.p2align 4,,10
	.p2align 3
.L214:
.LBE3078:
.LBB3079:
.LBB3080:
.LBB3081:
	.loc 2 563 0
	movq	_ZSt4cout(%rip), %rax	# cout._vptr.basic_ostream, cout._vptr.basic_ostream
.LBE3081:
	.loc 9 220 0
	movq	-24(%rax), %rax	# MEM[(long int *)D.80115_157 + -24B], MEM[(long int *)D.80115_157 + -24B]
	movq	_ZSt4cout+240(%rax), %rbx	# MEM[(const struct basic_ios *)D.80112_160 + 240B], D.80124
.LVL399:
.LBB3094:
.LBB3082:
.LBB3083:
.LBB3084:
	.loc 4 50 0
	testq	%rbx, %rbx	# D.80124
	je	.L209	#,
.LVL400:
.LBE3084:
.LBE3083:
.LBB3085:
.LBB3086:
	.loc 17 869 0
	cmpb	$0, 56(%rbx)	#, MEM[(const struct ctype *)D.80124_161]._M_widen_ok
	je	.L215	#,
	.loc 17 870 0
	movzbl	67(%rbx), %eax	# MEM[(const struct ctype *)D.80124_161]._M_widen, D.80129
.LVL401:
.L216:
.LBE3086:
.LBE3085:
.LBE3082:
	.loc 2 563 0
	movl	$_ZSt4cout, %edi	#,
	movsbl	%al, %esi	# D.80129, D.80129
	call	_ZNSo3putEc	#
.LVL402:
.LBE3094:
.LBE3080:
.LBE3079:
.LBE3107:
	.loc 9 117 0
	addq	$8, %rsp	#,
	.cfi_remember_state
	.cfi_def_cfa_offset 56
.LBB3108:
.LBB3101:
.LBB3098:
.LBB3095:
.LBB3089:
.LBB3090:
	.loc 2 585 0
	movq	%rax, %rdi	# D.80109,
.LBE3090:
.LBE3089:
.LBE3095:
.LBE3098:
.LBE3101:
.LBE3108:
	.loc 9 117 0
	popq	%rbx	#
	.cfi_def_cfa_offset 48
.LVL403:
	popq	%rbp	#
	.cfi_def_cfa_offset 40
	popq	%r12	#
	.cfi_def_cfa_offset 32
.LVL404:
	popq	%r13	#
	.cfi_def_cfa_offset 24
.LVL405:
	popq	%r14	#
	.cfi_def_cfa_offset 16
	popq	%r15	#
	.cfi_def_cfa_offset 8
.LBB3109:
.LBB3102:
.LBB3099:
.LBB3096:
.LBB3092:
.LBB3091:
	.loc 2 585 0
	jmp	_ZNSo5flushEv	#
.LVL406:
	.p2align 4,,10
	.p2align 3
.L212:
	.cfi_restore_state
.LBE3091:
.LBE3092:
.LBE3096:
.LBE3099:
.LBE3102:
.LBB3103:
.LBB3074:
.LBB3073:
.LBB3072:
.LBB3070:
.LBB3067:
.LBB3066:
	.loc 17 871 0
	movq	%rbp, %rdi	# D.80091,
	call	_ZNKSt5ctypeIcE13_M_widen_initEv	#
.LVL407:
	.loc 17 872 0
	movq	0(%rbp), %rax	# MEM[(const struct ctype *)D.80091_139].D.22576._vptr.facet, MEM[(const struct ctype *)D.80091_139].D.22576._vptr.facet
	movl	$10, %esi	#,
	movq	%rbp, %rdi	# D.80091,
	call	*48(%rax)	# MEM[(int (*__vtbl_ptr_type) () *)D.80099_152 + 48B]
.LVL408:
	jmp	.L213	#
.LVL409:
	.p2align 4,,10
	.p2align 3
.L206:
.LBE3066:
.LBE3067:
.LBE3070:
.LBE3072:
.LBE3073:
.LBE3074:
.LBE3103:
.LBB3104:
.LBB3029:
.LBB3026:
.LBB3022:
.LBB3018:
.LBB3017:
	.loc 17 871 0
	movq	%rbx, %rdi	# D.80040,
	call	_ZNKSt5ctypeIcE13_M_widen_initEv	#
.LVL410:
	.loc 17 872 0
	movq	(%rbx), %rax	# MEM[(const struct ctype *)D.80040_111].D.22576._vptr.facet, MEM[(const struct ctype *)D.80040_111].D.22576._vptr.facet
	movl	$10, %esi	#,
	movq	%rbx, %rdi	# D.80040,
	call	*48(%rax)	# MEM[(int (*__vtbl_ptr_type) () *)D.80048_124 + 48B]
.LVL411:
	jmp	.L207	#
.LVL412:
	.p2align 4,,10
	.p2align 3
.L215:
.LBE3017:
.LBE3018:
.LBE3022:
.LBE3026:
.LBE3029:
.LBE3104:
.LBB3105:
.LBB3100:
.LBB3097:
.LBB3093:
.LBB3088:
.LBB3087:
	.loc 17 871 0
	movq	%rbx, %rdi	# D.80124,
	call	_ZNKSt5ctypeIcE13_M_widen_initEv	#
.LVL413:
	.loc 17 872 0
	movq	(%rbx), %rax	# MEM[(const struct ctype *)D.80124_161].D.22576._vptr.facet, MEM[(const struct ctype *)D.80124_161].D.22576._vptr.facet
	movl	$10, %esi	#,
	movq	%rbx, %rdi	# D.80124,
	call	*48(%rax)	# MEM[(int (*__vtbl_ptr_type) () *)D.80132_174 + 48B]
.LVL414:
	jmp	.L216	#
.LVL415:
.L209:
.LBE3087:
.LBE3088:
.LBE3093:
.LBE3097:
.LBE3100:
.LBE3105:
.LBB3106:
.LBB3030:
.LBB3027:
.LBB3023:
.LBB3019:
.LBB3014:
	.loc 4 51 0
	call	_ZSt16__throw_bad_castv	#
.LVL416:
.LBE3014:
.LBE3019:
.LBE3023:
.LBE3027:
.LBE3030:
.LBE3106:
.LBE3109:
	.cfi_endproc
.LFE3486:
	.size	_ZN11Performance4ShowERKSt6vectorImSaImEE, .-_ZN11Performance4ShowERKSt6vectorImSaImEE
	.section	.text._ZNSt6vectorIiSaIiEED2Ev,"axG",@progbits,_ZNSt6vectorIiSaIiEED5Ev,comdat
	.align 2
	.p2align 4,,15
	.weak	_ZNSt6vectorIiSaIiEED2Ev
	.type	_ZNSt6vectorIiSaIiEED2Ev, @function
_ZNSt6vectorIiSaIiEED2Ev:
.LFB3609:
	.loc 18 402 0
	.cfi_startproc
.LVL417:
.LBB3123:
.LBB3124:
	.loc 18 161 0
	movq	(%rdi), %rdi	# MEM[(struct _Vector_base *)this_1(D)]._M_impl._M_start, D.80193
.LVL418:
.LBB3125:
.LBB3126:
	.loc 18 174 0
	testq	%rdi, %rdi	# D.80193
	je	.L228	#,
.LVL419:
.LBB3127:
.LBB3128:
	.loc 11 100 0
	jmp	_ZdlPv	#
.LVL420:
	.p2align 4,,10
	.p2align 3
.L228:
	rep
	ret
.LBE3128:
.LBE3127:
.LBE3126:
.LBE3125:
.LBE3124:
.LBE3123:
	.cfi_endproc
.LFE3609:
	.size	_ZNSt6vectorIiSaIiEED2Ev, .-_ZNSt6vectorIiSaIiEED2Ev
	.weak	_ZNSt6vectorIiSaIiEED1Ev
	.set	_ZNSt6vectorIiSaIiEED1Ev,_ZNSt6vectorIiSaIiEED2Ev
	.section	.text._ZNSt24uniform_int_distributionImEclISt26linear_congruential_engineImLm16807ELm0ELm2147483647EEEEmRT_RKNS0_10param_typeE,"axG",@progbits,_ZNSt24uniform_int_distributionImEclISt26linear_congruential_engineImLm16807ELm0ELm2147483647EEEEmRT_RKNS0_10param_typeE,comdat
	.align 2
	.p2align 4,,15
	.weak	_ZNSt24uniform_int_distributionImEclISt26linear_congruential_engineImLm16807ELm0ELm2147483647EEEEmRT_RKNS0_10param_typeE
	.type	_ZNSt24uniform_int_distributionImEclISt26linear_congruential_engineImLm16807ELm0ELm2147483647EEEEmRT_RKNS0_10param_typeE, @function
_ZNSt24uniform_int_distributionImEclISt26linear_congruential_engineImLm16807ELm0ELm2147483647EEEEmRT_RKNS0_10param_typeE:
.LFB3756:
	.file 20 "/usr/libexec/openshift/cartridges/c9-0.1/root/cloud9-gcc-linux-toolchain/bin/../lib/gcc/x86_64-redhat-linux/4.7.2/../../../../include/c++/4.7.2/bits/random.tcc"
	.loc 20 864 0
	.cfi_startproc
.LVL421:
	pushq	%r15	#
	.cfi_def_cfa_offset 16
	.cfi_offset 15, -16
	pushq	%r14	#
	.cfi_def_cfa_offset 24
	.cfi_offset 14, -24
	movq	%rsi, %r14	# __urng, __urng
.LVL422:
	pushq	%r13	#
	.cfi_def_cfa_offset 32
	.cfi_offset 13, -32
	pushq	%r12	#
	.cfi_def_cfa_offset 40
	.cfi_offset 12, -40
	pushq	%rbp	#
	.cfi_def_cfa_offset 48
	.cfi_offset 6, -48
	movq	%rdi, %rbp	# this, this
	pushq	%rbx	#
	.cfi_def_cfa_offset 56
	.cfi_offset 3, -56
	movq	%rdx, %rbx	# __param, __param
	subq	$24, %rsp	#,
	.cfi_def_cfa_offset 80
	.loc 9 220 0
	movq	(%rdx), %rdi	# MEM[(const struct param_type *)__param_5(D)], prephitmp.711
.LVL423:
.LBB3129:
	.loc 20 878 0
	movq	8(%rdx), %r15	# MEM[(const struct param_type *)__param_5(D) + 8B], __urange
	subq	%rdi, %r15	# prephitmp.711, __urange
.LVL424:
.LBB3130:
	.loc 20 882 0
	cmpq	$2147483644, %r15	#, __urange
	ja	.L231	#,
.LBB3131:
	.loc 20 885 0
	addq	$1, %r15	#, __uerange
.LVL425:
	.loc 20 886 0
	movl	$2147483645, %eax	#, tmp121
	xorl	%edx, %edx	# tmp120
.LVL426:
	divq	%r15	# __uerange
	movq	(%rsi), %rcx	# __urng_14(D)->_M_x, __x
.LBB3132:
.LBB3133:
.LBB3134:
.LBB3135:
	.loc 20 67 0
	movabsq	$4730756183288445817, %r8	#, tmp166
.LBE3135:
.LBE3134:
.LBE3133:
.LBE3132:
	.loc 20 887 0
	imulq	%rax, %r15	# tmp119, __past
.LVL427:
	.loc 20 886 0
	movq	%rax, %r9	# tmp121, tmp119
.LVL428:
	.p2align 4,,10
	.p2align 3
.L234:
.LBB3139:
.LBB3138:
.LBB3137:
.LBB3136:
	.loc 20 67 0 discriminator 1
	movq	%rcx, %rax	# __x,
	mulq	%r8	# tmp166
	shrq	$15, %rdx	#, tmp122
	imulq	$127773, %rdx, %rsi	#, tmp122, tmp125
	.loc 20 68 0 discriminator 1
	imulq	$2836, %rdx, %rdx	#, tmp122, __t2
	.loc 20 67 0 discriminator 1
	subq	%rsi, %rcx	# tmp125, tmp126
.LVL429:
	imulq	$16807, %rcx, %rcx	#, tmp126, __t1
.LVL430:
	.loc 20 69 0 discriminator 1
	cmpq	%rdx, %rcx	# __t2, __t1
	jae	.L247	#,
	.loc 20 72 0
	addq	$2147483647, %rcx	#, __x
.LVL431:
.L247:
	subq	%rdx, %rcx	# __t2, __x
.LVL432:
.LBE3136:
.LBE3137:
.LBE3138:
.LBE3139:
	.loc 20 889 0
	leaq	-1(%rcx), %rax	#, __ret
.LVL433:
	.loc 20 888 0
	cmpq	%rax, %r15	# __ret, __past
	jbe	.L234	#,
	.loc 20 891 0
	xorl	%edx, %edx	# tmp132
.LVL434:
	movq	%rcx, (%r14)	# __x, __urng_14(D)->_M_x
	divq	%r9	# tmp119
.LVL435:
.L235:
.LBE3131:
.LBE3130:
.LBE3129:
	.loc 20 924 0
	addq	$24, %rsp	#,
	.cfi_remember_state
	.cfi_def_cfa_offset 56
.LBB3168:
	.loc 20 923 0
	addq	%rdi, %rax	# prephitmp.711, tmp164
.LVL436:
.LBE3168:
	.loc 20 924 0
	popq	%rbx	#
	.cfi_def_cfa_offset 48
.LVL437:
	popq	%rbp	#
	.cfi_def_cfa_offset 40
.LVL438:
	popq	%r12	#
	.cfi_def_cfa_offset 32
	popq	%r13	#
	.cfi_def_cfa_offset 24
	popq	%r14	#
	.cfi_def_cfa_offset 16
.LVL439:
	popq	%r15	#
	.cfi_def_cfa_offset 8
	ret
.LVL440:
	.p2align 4,,10
	.p2align 3
.L231:
	.cfi_restore_state
.LBB3169:
.LBB3167:
.LBB3140:
	.loc 20 893 0
	cmpq	$2147483645, %r15	#, __urange
	je	.L236	#,
	movq	%r15, %r12	# __urange, tmp133
	movabsq	$-9223372028264841207, %rcx	#, tmp135
.LBB3141:
.LBB3142:
.LBB3143:
.LBB3144:
.LBB3145:
.LBB3146:
.LBB3147:
	.loc 20 67 0
	movabsq	$4730756183288445817, %r13	#, tmp167
	shrq	%r12	# tmp133
	movq	%r12, %rax	# tmp133,
	mulq	%rcx	# tmp135
.LVL441:
	movq	%rdx, %r12	#, pretmp.712
	shrq	$29, %r12	#, pretmp.712
.LVL442:
	.p2align 4,,10
	.p2align 3
.L245:
.LBE3147:
.LBE3146:
.LBE3145:
.LBE3144:
.LBE3143:
	.loc 20 914 0
	movq	%rsp, %rdx	#,
	movq	%r14, %rsi	# __urng,
	movq	%rbp, %rdi	# this,
.LBB3153:
.LBB3154:
	.file 21 "/usr/libexec/openshift/cartridges/c9-0.1/root/cloud9-gcc-linux-toolchain/bin/../lib/gcc/x86_64-redhat-linux/4.7.2/../../../../include/c++/4.7.2/bits/random.h"
	.loc 21 1634 0
	movq	$0, (%rsp)	#, D.71705._M_a
	movq	%r12, 8(%rsp)	# pretmp.712, D.71705._M_b
.LBE3154:
.LBE3153:
	.loc 20 914 0
	call	_ZNSt24uniform_int_distributionImEclISt26linear_congruential_engineImLm16807ELm0ELm2147483647EEEEmRT_RKNS0_10param_typeE	#
.LVL443:
.LBB3155:
.LBB3151:
	.loc 21 271 0
	movq	(%r14), %rsi	# __urng_14(D)->_M_x, D.78287
.LBE3151:
.LBE3155:
	.loc 20 914 0
	leaq	(%rax,%rax), %rdx	#, tmp138
	movq	%rax, %rcx	# D.75434, tmp140
	salq	$31, %rcx	#, tmp140
	subq	%rdx, %rcx	# tmp138, tmp140
.LVL444:
.LBB3156:
.LBB3152:
.LBB3150:
.LBB3149:
.LBB3148:
	.loc 20 67 0
	movq	%rsi, %rax	# D.78287,
	mulq	%r13	# tmp167
	shrq	$15, %rdx	#, tmp141
	imulq	$127773, %rdx, %rax	#, tmp141, tmp144
	.loc 20 68 0
	imulq	$2836, %rdx, %r8	#, tmp141, __t2
	.loc 20 67 0
	subq	%rax, %rsi	# tmp144, tmp145
.LVL445:
	imulq	$16807, %rsi, %rax	#, tmp145, __t1
.LVL446:
	.loc 20 69 0
	cmpq	%r8, %rax	# __t2, __t1
	jae	.L248	#,
	.loc 20 72 0
	addq	$2147483647, %rax	#, __x
.LVL447:
.L248:
	subq	%r8, %rax	# __t2, __x
.LVL448:
.LBE3148:
.LBE3149:
.LBE3150:
	.loc 21 271 0
	movq	%rax, (%r14)	# __x, __urng_14(D)->_M_x
.LBE3152:
.LBE3156:
	.loc 20 916 0
	leaq	-1(%rax,%rcx), %rax	#, __ret
.LVL449:
.LBE3142:
	.loc 20 911 0
	cmpq	%rcx, %rax	# tmp140, __ret
	jb	.L245	#,
	cmpq	%r15, %rax	# __urange, __ret
	ja	.L245	#,
	movq	(%rbx), %rdi	# MEM[(const struct param_type *)__param_5(D)], prephitmp.711
	jmp	.L235	#
.LVL450:
	.p2align 4,,10
	.p2align 3
.L236:
.LBE3141:
.LBB3157:
.LBB3158:
	.loc 21 271 0
	movq	(%rsi), %rcx	# __urng_14(D)->_M_x, D.78298
.LVL451:
.LBB3159:
.LBB3160:
.LBB3161:
	.loc 20 67 0
	movabsq	$4730756183288445817, %rdx	#, tmp157
.LVL452:
	movq	%rcx, %rax	# D.78298,
	mulq	%rdx	# tmp157
	shrq	$15, %rdx	#, tmp155
	imulq	$127773, %rdx, %rax	#, tmp155, tmp158
	.loc 20 68 0
	imulq	$2836, %rdx, %rdx	#, tmp155, __t2
	.loc 20 67 0
	subq	%rax, %rcx	# tmp158, tmp159
.LVL453:
	imulq	$16807, %rcx, %rax	#, tmp159, __t1
.LVL454:
	.loc 20 69 0
	cmpq	%rdx, %rax	# __t2, __t1
	jb	.L240	#,
	.loc 20 72 0
	subq	%rdx, %rax	# __t2, __x
.LVL455:
.LBE3161:
.LBE3160:
.LBE3159:
	.loc 21 271 0
	movq	%rax, (%r14)	# __x, __urng_14(D)->_M_x
.LBE3158:
.LBE3157:
	.loc 20 921 0
	subq	$1, %rax	#, __ret
.LVL456:
	jmp	.L235	#
.LVL457:
	.p2align 4,,10
	.p2align 3
.L240:
.LBB3166:
.LBB3165:
.LBB3164:
.LBB3163:
.LBB3162:
	.loc 20 72 0
	addq	$2147483647, %rax	#, __x
.LVL458:
	subq	%rdx, %rax	# __t2, __x
.LVL459:
.LBE3162:
.LBE3163:
.LBE3164:
	.loc 21 271 0
	movq	%rax, (%r14)	# __x, __urng_14(D)->_M_x
.LBE3165:
.LBE3166:
	.loc 20 921 0
	subq	$1, %rax	#, __ret
.LVL460:
	jmp	.L235	#
.LBE3140:
.LBE3167:
.LBE3169:
	.cfi_endproc
.LFE3756:
	.size	_ZNSt24uniform_int_distributionImEclISt26linear_congruential_engineImLm16807ELm0ELm2147483647EEEEmRT_RKNS0_10param_typeE, .-_ZNSt24uniform_int_distributionImEclISt26linear_congruential_engineImLm16807ELm0ELm2147483647EEEEmRT_RKNS0_10param_typeE
	.section	.rodata.str1.1
.LC14:
	.string	"Random order:"
.LC15:
	.string	" "
	.text
	.p2align 4,,15
	.globl	_Z19GenerateRandomOrderm
	.type	_Z19GenerateRandomOrderm, @function
_Z19GenerateRandomOrderm:
.LFB3490:
	.loc 9 132 0
	.cfi_startproc
	.cfi_personality 0x3,__gxx_personality_v0
	.cfi_lsda 0x3,.LLSDA3490
.LVL461:
	pushq	%r13	#
	.cfi_def_cfa_offset 16
	.cfi_offset 13, -16
	pushq	%r12	#
	.cfi_def_cfa_offset 24
	.cfi_offset 12, -24
	movq	%rdi, %r12	# .result_ptr, <retval>
	pushq	%rbp	#
	.cfi_def_cfa_offset 32
	.cfi_offset 6, -32
	pushq	%rbx	#
	.cfi_def_cfa_offset 40
	.cfi_offset 3, -40
	movq	%rsi, %rbx	# size, size
	subq	$72, %rsp	#,
	.cfi_def_cfa_offset 112
.LBB3272:
.LBB3273:
.LBB3274:
.LBB3275:
.LBB3276:
.LBB3277:
.LBB3278:
	.loc 18 169 0
	testq	%rsi, %rsi	# size
.LBE3278:
.LBE3277:
.LBE3276:
.LBE3275:
.LBB3290:
.LBB3291:
	.loc 18 88 0
	movq	$0, (%rdi)	#, MEM[(struct _Vector_impl *)<retval>_1(D)]._M_start
	movq	$0, 8(%rdi)	#, MEM[(struct _Vector_impl *)<retval>_1(D)]._M_finish
	movq	$0, 16(%rdi)	#, MEM[(struct _Vector_impl *)<retval>_1(D)]._M_end_of_storage
.LVL462:
.LBE3291:
.LBE3290:
.LBB3292:
.LBB3287:
.LBB3285:
.LBB3283:
	.loc 18 169 0
	je	.L251	#,
.LVL463:
.LBB3279:
.LBB3280:
	.loc 11 91 0
	movabsq	$4611686018427387903, %rax	#, tmp210
	cmpq	%rax, %rsi	# tmp210, size
	ja	.L302	#,
	.loc 11 94 0
	leaq	0(,%rsi,4), %rbp	#, D.80259
	movq	%rbp, %rdi	# D.80259,
.LVL464:
.LEHB0:
	call	_Znwm	#
.LEHE0:
.LVL465:
.LBE3280:
.LBE3279:
.LBE3283:
.LBE3285:
	.loc 9 131 0
	movq	%rax, %rsi	# __first$_M_current, D.80441
	.loc 18 184 0
	leaq	(%rax,%rbp), %r9	#, D.80245
	movq	%rbx, %r8	# size, size
	.loc 9 131 0
	andl	$15, %esi	#, D.80441
	.loc 18 182 0
	movq	%rax, (%r12)	# __first$_M_current, MEM[(struct _Vector_base *)<retval>_1(D)]._M_impl._M_start
	.loc 18 183 0
	movq	%rax, 8(%r12)	# __first$_M_current, MEM[(struct _Vector_base *)<retval>_1(D)]._M_impl._M_finish
	.loc 9 131 0
	shrq	$2, %rsi	#, D.80441
	.loc 18 184 0
	movq	%r9, 16(%r12)	# D.80245, MEM[(struct _Vector_base *)<retval>_1(D)]._M_impl._M_end_of_storage
.LVL466:
	.loc 9 131 0
	negq	%rsi	# D.80441
	andl	$3, %esi	#, D.80441
	cmpq	%rbx, %rsi	# size, D.80441
	cmovbe	%rsi, %r8	# D.80441,, size
	cmpq	$6, %rbx	#, size
	ja	.L303	#,
.LBE3287:
.LBE3292:
.LBE3274:
.LBE3273:
.LBE3272:
	movq	%rbx, %r8	# size, size
.L253:
	movq	%rbx, %rdi	# size, size
	movq	%rax, %rdx	# __first$_M_current, __first$_M_current
	xorl	%ecx, %ecx	# ivtmp.792
.LVL467:
	.p2align 4,,10
	.p2align 3
.L255:
	addq	$1, %rcx	#, ivtmp.792
.LBB3440:
.LBB3334:
.LBB3295:
.LBB3296:
.LBB3297:
.LBB3298:
.LBB3299:
.LBB3300:
.LBB3301:
.LBB3302:
.LBB3303:
.LBB3304:
.LBB3305:
	.file 22 "/usr/libexec/openshift/cartridges/c9-0.1/root/cloud9-gcc-linux-toolchain/bin/../lib/gcc/x86_64-redhat-linux/4.7.2/../../../../include/c++/4.7.2/bits/stl_algobase.h"
	.loc 22 745 0
	movl	$0, (%rdx)	#, MEM[base: __first$_M_current_287, offset: 0B]
	.loc 22 743 0
	subq	$1, %rdi	#, size
.LVL468:
	addq	$4, %rdx	#, __first$_M_current
.LVL469:
	cmpq	%rcx, %r8	# ivtmp.792, size
	ja	.L255	#,
	cmpq	%r8, %rbx	# size, size
	je	.L256	#,
.L254:
	subq	%r8, %rbx	# size, niters.772
.LVL470:
	movq	%rbx, %r10	# niters.772, bnd.773
	shrq	$2, %r10	#, bnd.773
	leaq	0(,%r10,4), %r11	#, ratio_mult_vf.774
	testq	%r11, %r11	# ratio_mult_vf.774
	je	.L257	#,
	.loc 22 745 0
	pxor	%xmm0, %xmm0	# tmp256
	leaq	(%rax,%r8,4), %r8	#, ivtmp.833
.LBE3305:
.LBE3304:
.LBE3303:
.LBE3302:
.LBE3301:
.LBE3300:
.LBE3299:
.LBE3298:
.LBE3297:
.LBE3296:
.LBE3295:
.LBE3334:
.LBE3440:
	.loc 18 169 0
	xorl	%ecx, %ecx	# ivtmp.832
.LVL471:
	.p2align 4,,10
	.p2align 3
.L258:
	addq	$1, %rcx	#, ivtmp.832
.LBB3441:
.LBB3335:
.LBB3328:
.LBB3324:
.LBB3322:
.LBB3320:
.LBB3318:
.LBB3316:
.LBB3314:
.LBB3312:
.LBB3310:
.LBB3308:
.LBB3306:
	.loc 22 745 0
	movdqa	%xmm0, (%r8)	# tmp256, MEM[base: D.80524_276, offset: 0B]
	addq	$16, %r8	#, ivtmp.833
	cmpq	%r10, %rcx	# bnd.773, ivtmp.832
	jb	.L258	#,
	subq	%r11, %rdi	# ratio_mult_vf.774, size
	cmpq	%r11, %rbx	# ratio_mult_vf.774, niters.772
	leaq	(%rdx,%r11,4), %rdx	#, __first$_M_current
	je	.L256	#,
.L257:
.LBE3306:
.LBE3308:
.LBE3310:
.LBE3312:
.LBE3314:
.LBE3316:
.LBE3318:
.LBE3320:
.LBE3322:
.LBE3324:
.LBE3328:
.LBE3335:
.LBE3441:
	.loc 18 169 0
	xorl	%ecx, %ecx	# ivtmp.784
	.p2align 4,,10
	.p2align 3
.L260:
.LBB3442:
.LBB3336:
.LBB3329:
.LBB3325:
.LBB3323:
.LBB3321:
.LBB3319:
.LBB3317:
.LBB3315:
.LBB3313:
.LBB3311:
.LBB3309:
.LBB3307:
	.loc 22 745 0
	movl	$0, (%rdx,%rcx,4)	#, MEM[base: __first$_M_current_317, index: ivtmp.784_49, step: 4, offset: 0B]
	addq	$1, %rcx	#, ivtmp.784
	.loc 22 743 0
	cmpq	%rdi, %rcx	# size, ivtmp.784
	jne	.L260	#,
.L256:
.LBE3307:
.LBE3309:
.LBE3311:
.LBE3313:
.LBE3315:
.LBE3317:
.LBE3319:
.LBE3321:
.LBE3323:
.LBE3325:
.LBE3329:
.LBE3336:
.LBB3337:
.LBB3338:
	.file 23 "/usr/libexec/openshift/cartridges/c9-0.1/root/cloud9-gcc-linux-toolchain/bin/../lib/gcc/x86_64-redhat-linux/4.7.2/../../../../include/c++/4.7.2/bits/stl_numeric.h"
	.loc 23 92 0
	cmpq	%r9, %rax	# D.80245, __first$_M_current
.LBE3338:
.LBE3337:
.LBB3346:
.LBB3330:
.LBB3326:
	.loc 18 1193 0
	movq	%r9, 8(%r12)	# D.80245, <retval>_1(D)->D.68050._M_impl._M_finish
.LVL472:
.LBE3326:
.LBE3330:
.LBE3346:
.LBB3347:
.LBB3343:
	.loc 23 92 0
	je	.L261	#,
	.loc 9 131 0
	leaq	4(%rax), %rdx	#, tmp217
	movq	%r9, %r8	# D.80245, tmp219
	movq	%rsi, %rdi	# D.80441, prologue_after_cost_adjust.747
	subq	%rdx, %r8	# tmp217, tmp219
	shrq	$2, %r8	#, tmp219
	addq	$1, %r8	#, prologue_after_cost_adjust.747
	cmpq	%rsi, %r8	# D.80441, prologue_after_cost_adjust.747
.LBE3343:
.LBE3347:
.LBE3442:
	movq	%rax, %rsi	# __first$_M_current, __first$_M_current
	cmovbe	%r8, %rdi	# prologue_after_cost_adjust.747,, prologue_after_cost_adjust.747
	cmpq	$5, %r8	#, prologue_after_cost_adjust.747
	cmovbe	%r8, %rdi	# prologue_after_cost_adjust.747,, prologue_after_cost_adjust.747, prologue_after_cost_adjust.747
	testq	%rdi, %rdi	# prologue_after_cost_adjust.747
	je	.L283	#,
	xorl	%edx, %edx	# ivtmp.808
.LVL473:
	.p2align 4,,10
	.p2align 3
.L264:
.LBB3443:
.LBB3348:
.LBB3344:
	.loc 23 94 0
	movl	%edx, (%rsi)	# ivtmp.808, MEM[base: __first$_M_current_207, offset: 0]
	.loc 9 131 0
	leal	1(%rdx), %ecx	#, __value
.LVL474:
	addq	$1, %rdx	#, ivtmp.808
.LBB3339:
.LBB3340:
	.loc 15 750 0
	addq	$4, %rsi	#, __first$_M_current
.LVL475:
	cmpq	%rdx, %rdi	# ivtmp.808, prologue_after_cost_adjust.747
	ja	.L264	#,
	cmpq	%rdi, %r8	# prologue_after_cost_adjust.747, prologue_after_cost_adjust.747
	je	.L261	#,
.LVL476:
.L263:
	movq	%r8, %r11	# prologue_after_cost_adjust.747, niters.749
	subq	%rdi, %r11	# prologue_after_cost_adjust.747, niters.749
	movq	%r11, %r8	# niters.749, bnd.750
	shrq	$2, %r8	#, bnd.750
	leaq	0(,%r8,4), %r10	#, ratio_mult_vf.751
	testq	%r10, %r10	# ratio_mult_vf.751
	je	.L266	#,
	leal	1(%rcx), %edx	#,
	movl	%ecx, (%rsp)	# __value,
	movl	%edx, 4(%rsp)	#, %sfp
	leal	2(%rcx), %edx	#,
	movd	4(%rsp), %xmm2	# %sfp,
	movl	%edx, 8(%rsp)	#, %sfp
	leal	3(%rcx), %edx	#,
	movd	8(%rsp), %xmm1	# %sfp,
	movl	%edx, 12(%rsp)	#, %sfp
	leaq	(%rax,%rdi,4), %rdx	#, ivtmp.827
.LBE3340:
.LBE3339:
.LBE3344:
.LBE3348:
.LBE3443:
	.loc 18 169 0
	xorl	%eax, %eax	# ivtmp.826
.LVL477:
	movd	12(%rsp), %xmm0	# %sfp,
	punpckldq	%xmm0, %xmm1	#, tmp224
	movd	(%rsp), %xmm0	#,
	punpckldq	%xmm2, %xmm0	#, tmp225
	punpcklqdq	%xmm1, %xmm0	# tmp224, vect_vec_iv_.757
	movdqa	.LC13(%rip), %xmm1	#, vect_cst_.756
.LVL478:
	.p2align 4,,10
	.p2align 3
.L267:
	addq	$1, %rax	#, ivtmp.826
.LBB3444:
.LBB3349:
.LBB3345:
.LBB3342:
.LBB3341:
	.loc 23 94 0
	movdqa	%xmm0, (%rdx)	# vect_vec_iv_.757, MEM[base: D.80517_48, offset: 0]
.LVL479:
	paddd	%xmm1, %xmm0	# vect_cst_.756, vect_vec_iv_.757
	addq	$16, %rdx	#, ivtmp.827
	cmpq	%r8, %rax	# bnd.750, ivtmp.826
	jb	.L267	#,
	addl	%r10d, %ecx	# ratio_mult_vf.751, __value
	cmpq	%r10, %r11	# ratio_mult_vf.751, niters.749
	leaq	(%rsi,%r10,4), %rsi	#, __first$_M_current
	je	.L261	#,
.LVL480:
.L266:
	movq	%rsi, %rax	# __first$_M_current, ivtmp.803
	.p2align 4,,10
	.p2align 3
.L269:
.LVL481:
.LBE3341:
.LBE3342:
	movl	%ecx, (%rax)	# __value, MEM[base: D.80485_259, offset: 0]
	addq	$4, %rax	#, ivtmp.803
	.loc 23 95 0
	addl	$1, %ecx	#, __value
.LVL482:
	.loc 23 92 0
	cmpq	%rax, %r9	# ivtmp.803, D.80245
	jne	.L269	#,
.LVL483:
.L261:
.LBE3345:
.LBE3349:
	.loc 9 142 0
	call	_ZNSt6chrono12system_clock3nowEv	#
.LVL484:
.LBB3350:
.LBB3351:
	.loc 9 131 0
	movl	%eax, %ecx	# D.68244, SR.508
.LBB3352:
.LBB3353:
.LBB3354:
.LBB3355:
.LBB3356:
	.loc 20 61 0
	movabsq	$8589934597, %rdx	#, tmp230
.LBE3356:
.LBE3355:
.LBE3354:
.LBE3353:
.LBE3352:
.LBE3351:
.LBE3350:
.LBB3369:
.LBB3370:
.LBB3371:
	.loc 15 728 0
	movq	8(%r12), %r13	# MEM[(int * const &)<retval>_1(D) + 8], D.78670
.LBE3371:
.LBE3370:
.LBE3369:
.LBB3372:
.LBB3367:
.LBB3365:
.LBB3363:
.LBB3361:
.LBB3359:
.LBB3357:
	.loc 20 61 0
	movq	%rcx, %rax	# SR.508,
.LVL485:
.LBE3357:
.LBE3359:
.LBE3361:
.LBE3363:
.LBE3365:
.LBE3367:
.LBE3372:
.LBB3373:
.LBB3374:
.LBB3375:
	.loc 15 728 0
	movq	(%r12), %rbp	# MEM[(int * const &)<retval>_1(D)], D.78677
.LBE3375:
.LBE3374:
.LBE3373:
.LBB3376:
.LBB3368:
.LBB3366:
.LBB3364:
.LBB3362:
.LBB3360:
.LBB3358:
	.loc 20 61 0
	mulq	%rdx	# tmp230
	movq	%rcx, %rax	# SR.508, tmp232
	subq	%rdx, %rax	# tmp229, tmp232
	shrq	%rax	# tmp232
	addq	%rax, %rdx	# tmp232, __x
	shrq	$30, %rdx	#, __x
	movq	%rdx, %rax	# __x, tmp236
	salq	$31, %rax	#, tmp236
	subq	%rdx, %rax	# __x, tmp236
.LVL486:
.LBE3358:
.LBE3360:
.LBE3362:
	.loc 20 140 0
	movq	%rcx, %rdx	# SR.508, __x
	subq	%rax, %rdx	# tmp236, __x
.LVL487:
	movl	$1, %eax	#, tmp255
	cmove	%rax, %rdx	# __x,, tmp255, __x
.LVL488:
.LBE3364:
.LBE3366:
.LBE3368:
.LBE3376:
.LBB3377:
.LBB3378:
	.file 24 "/usr/libexec/openshift/cartridges/c9-0.1/root/cloud9-gcc-linux-toolchain/bin/../lib/gcc/x86_64-redhat-linux/4.7.2/../../../../include/c++/4.7.2/bits/stl_algo.h"
	.loc 24 4400 0
	cmpq	%rbp, %r13	# D.78677, D.78670
	movq	%rdx, 16(%rsp)	# __x, D.68437._M_x
.LVL489:
	je	.L274	#,
.LVL490:
.LBB3379:
.LBB3380:
.LBB3381:
	.loc 15 781 0
	leaq	4(%rbp), %rbx	#, __i$_M_current
.LBE3381:
.LBE3380:
.LBE3379:
.LBB3399:
.LBB3400:
.LBB3401:
	.loc 21 1634 0
	movq	$0, 32(%rsp)	#, MEM[(struct param_type *)&__d]._M_a
	movq	$-1, 40(%rsp)	#, MEM[(struct param_type *)&__d]._M_b
.LVL491:
.LBE3401:
.LBE3400:
.LBE3399:
.LBB3402:
	.loc 24 4411 0
	cmpq	%rbx, %r13	# __i$_M_current, D.78670
	je	.L274	#,
.LVL492:
	.p2align 4,,10
	.p2align 3
.L273:
.LBB3382:
.LBB3383:
	.loc 15 900 0
	movq	%rbx, %rax	# ivtmp.821, tmp239
.LBE3383:
.LBE3382:
	.loc 24 4412 0
	leaq	48(%rsp), %rdx	#,
.LVL493:
	leaq	16(%rsp), %rsi	#,
.LVL494:
.LBB3386:
.LBB3384:
	.loc 15 900 0
	subq	%rbp, %rax	# D.78677, tmp239
.LBE3384:
.LBE3386:
	.loc 24 4412 0
	leaq	32(%rsp), %rdi	#,
.LVL495:
.LBB3387:
.LBB3388:
	.loc 21 1634 0
	movq	$0, 48(%rsp)	#, D.80297._M_a
.LBE3388:
.LBE3387:
.LBB3390:
.LBB3385:
	.loc 15 900 0
	sarq	$2, %rax	#, tmp239
.LBE3385:
.LBE3390:
.LBB3391:
.LBB3389:
	.loc 21 1634 0
	movq	%rax, 56(%rsp)	# tmp239, D.80297._M_b
.LBE3389:
.LBE3391:
	.loc 24 4412 0
	call	_ZNSt24uniform_int_distributionImEclISt26linear_congruential_engineImLm16807ELm0ELm2147483647EEEEmRT_RKNS0_10param_typeE	#
.LVL496:
.LBB3392:
.LBB3393:
	.loc 15 781 0
	leaq	0(%rbp,%rax,4), %rax	#, D.80289
.LVL497:
.LBE3393:
.LBE3392:
.LBB3394:
.LBB3395:
.LBB3396:
.LBB3397:
.LBB3398:
	.file 25 "/usr/libexec/openshift/cartridges/c9-0.1/root/cloud9-gcc-linux-toolchain/bin/../lib/gcc/x86_64-redhat-linux/4.7.2/../../../../include/c++/4.7.2/bits/move.h"
	.loc 25 176 0
	movl	(%rbx), %edx	# MEM[base: D.80509_318, offset: 0], __tmp.85
.LVL498:
	.loc 25 177 0
	movl	(%rax), %ecx	# MEM[(type &)D.80289_125], D.80287
	movl	%ecx, (%rbx)	# D.80287, MEM[base: D.80509_318, offset: 0]
.LVL499:
	addq	$4, %rbx	#, ivtmp.821
.LVL500:
	.loc 25 178 0
	movl	%edx, (%rax)	# __tmp.85, *D.80289_125
.LVL501:
.LBE3398:
.LBE3397:
.LBE3396:
.LBE3395:
.LBE3394:
	.loc 24 4411 0
	cmpq	%rbx, %r13	# ivtmp.821, D.78670
	jne	.L273	#,
.LVL502:
.L274:
.LBE3402:
.LBE3378:
.LBE3377:
.LBB3403:
.LBB3404:
	.loc 2 533 0
	movl	$13, %edx	#,
	movl	$.LC14, %esi	#,
	movl	$_ZSt4cout, %edi	#,
.LEHB1:
	call	_ZSt16__ostream_insertIcSt11char_traitsIcEERSt13basic_ostreamIT_T0_ES6_PKS3_l	#
.LVL503:
.LBE3404:
.LBE3403:
.LBB3405:
.LBB3406:
.LBB3407:
.LBB3408:
	.loc 15 728 0
	movq	(%r12), %rbx	# MEM[(int * const &)<retval>_1(D)], SR.515
.LVL504:
.LBE3408:
.LBE3407:
.LBE3406:
.LBB3409:
.LBB3410:
.LBB3411:
	movq	8(%r12), %r13	# MEM[(int * const &)<retval>_1(D) + 8], D.78693
.LVL505:
.LBE3411:
.LBE3410:
.LBE3409:
	.loc 9 145 0
	cmpq	%r13, %rbx	# D.78693, SR.515
	je	.L275	#,
.LVL506:
	.p2align 4,,10
	.p2align 3
.L276:
.LBB3412:
.LBB3413:
	.loc 2 533 0
	movl	$1, %edx	#,
	movl	$.LC15, %esi	#,
	movl	$_ZSt4cout, %edi	#,
.LBE3413:
.LBE3412:
	.loc 9 145 0
	movl	(%rbx), %ebp	# MEM[base: D.80501_339, offset: 0], r
.LVL507:
.LBB3415:
.LBB3414:
	.loc 2 533 0
	call	_ZSt16__ostream_insertIcSt11char_traitsIcEERSt13basic_ostreamIT_T0_ES6_PKS3_l	#
.LVL508:
.LBE3414:
.LBE3415:
	.loc 9 145 0
	movl	%ebp, %esi	# r,
	movl	$_ZSt4cout, %edi	#,
	call	_ZNSolsEi	#
.LVL509:
	addq	$4, %rbx	#, ivtmp.816
	cmpq	%rbx, %r13	# ivtmp.816, D.78693
	jne	.L276	#,
.LVL510:
.L275:
.LBE3405:
.LBB3416:
.LBB3417:
.LBB3418:
	.loc 2 563 0
	movq	_ZSt4cout(%rip), %rax	# cout._vptr.basic_ostream, cout._vptr.basic_ostream
.LBE3418:
	.loc 9 220 0
	movq	-24(%rax), %rax	# MEM[(long int *)D.80321_133 + -24B], MEM[(long int *)D.80321_133 + -24B]
	movq	_ZSt4cout+240(%rax), %rbx	# MEM[(const struct basic_ios *)D.80318_136 + 240B], D.80330
.LVL511:
.LBB3432:
.LBB3419:
.LBB3420:
.LBB3421:
	.loc 4 50 0
	testq	%rbx, %rbx	# D.80330
	je	.L304	#,
.LVL512:
.LBE3421:
.LBE3420:
.LBB3423:
.LBB3424:
	.loc 17 869 0
	cmpb	$0, 56(%rbx)	#, MEM[(const struct ctype *)D.80330_137]._M_widen_ok
	je	.L278	#,
	.loc 17 870 0
	movzbl	67(%rbx), %eax	# MEM[(const struct ctype *)D.80330_137]._M_widen, D.80335
.LVL513:
.L279:
.LBE3424:
.LBE3423:
.LBE3419:
	.loc 2 563 0
	movsbl	%al, %esi	# D.80335, D.80335
	movl	$_ZSt4cout, %edi	#,
	call	_ZNSo3putEc	#
.LVL514:
.LBB3428:
.LBB3429:
	.loc 2 585 0
	movq	%rax, %rdi	# D.80315,
	call	_ZNSo5flushEv	#
.LVL515:
.LBE3429:
.LBE3428:
.LBE3432:
.LBE3417:
.LBE3416:
.LBE3444:
	.loc 9 148 0
	addq	$72, %rsp	#,
	.cfi_remember_state
	.cfi_def_cfa_offset 40
	movq	%r12, %rax	# <retval>,
	popq	%rbx	#
	.cfi_def_cfa_offset 32
.LVL516:
	popq	%rbp	#
	.cfi_def_cfa_offset 24
	popq	%r12	#
	.cfi_def_cfa_offset 16
.LVL517:
	popq	%r13	#
	.cfi_def_cfa_offset 8
.LVL518:
	ret
.LVL519:
	.p2align 4,,10
	.p2align 3
.L278:
	.cfi_restore_state
.LBB3445:
.LBB3437:
.LBB3435:
.LBB3433:
.LBB3430:
.LBB3426:
.LBB3425:
	.loc 17 871 0
	movq	%rbx, %rdi	# D.80330,
	call	_ZNKSt5ctypeIcE13_M_widen_initEv	#
.LVL520:
	.loc 17 872 0
	movq	(%rbx), %rax	# MEM[(const struct ctype *)D.80330_137].D.22576._vptr.facet, MEM[(const struct ctype *)D.80330_137].D.22576._vptr.facet
	movl	$10, %esi	#,
	movq	%rbx, %rdi	# D.80330,
	call	*48(%rax)	# MEM[(int (*__vtbl_ptr_type) () *)D.80338_150 + 48B]
.LEHE1:
.LVL521:
	jmp	.L279	#
.LVL522:
.L251:
.LBE3425:
.LBE3426:
.LBE3430:
.LBE3433:
.LBE3435:
.LBE3437:
.LBB3438:
.LBB3331:
.LBB3293:
.LBB3288:
	.loc 18 184 0
	movq	$0, 16(%rdi)	#, MEM[(struct _Vector_base *)<retval>_1(D)]._M_impl._M_end_of_storage
.LVL523:
.LBE3288:
.LBE3293:
.LBE3331:
.LBB3332:
.LBB3327:
	.loc 18 1193 0
	movq	$0, 8(%rdi)	#, <retval>_1(D)->D.68050._M_impl._M_finish
.LVL524:
	jmp	.L261	#
.LVL525:
.L302:
.LEHB2:
.LBE3327:
.LBE3332:
.LBB3333:
.LBB3294:
.LBB3289:
.LBB3286:
.LBB3284:
.LBB3282:
.LBB3281:
	.loc 11 92 0
	call	_ZSt17__throw_bad_allocv	#
.LEHE2:
.LVL526:
.L304:
.LEHB3:
.LBE3281:
.LBE3282:
.LBE3284:
.LBE3286:
.LBE3289:
.LBE3294:
.LBE3333:
.LBE3438:
.LBB3439:
.LBB3436:
.LBB3434:
.LBB3431:
.LBB3427:
.LBB3422:
	.loc 4 51 0
	call	_ZSt16__throw_bad_castv	#
.LEHE3:
.LVL527:
.L285:
	movq	%rax, %rbx	#, tmp251
.LBE3422:
.LBE3427:
.LBE3431:
.LBE3434:
.LBE3436:
.LBE3439:
	.loc 9 147 0
	movq	%r12, %rdi	# <retval>,
	call	_ZNSt6vectorIiSaIiEED1Ev	#
.LVL528:
	movq	%rbx, %rdi	# tmp251,
.LEHB4:
	call	_Unwind_Resume	#
.LEHE4:
.LVL529:
.L283:
.LBE3445:
	.loc 18 169 0
	xorl	%ecx, %ecx	# __value
	jmp	.L263	#
.LVL530:
.L303:
	testq	%r8, %r8	# size
	jne	.L253	#,
	.loc 9 131 0
	movq	%rbx, %rdi	# size, size
	.loc 18 169 0
	movq	%rax, %rdx	# __first$_M_current, __first$_M_current
	jmp	.L254	#
	.cfi_endproc
.LFE3490:
	.globl	__gxx_personality_v0
	.section	.gcc_except_table,"a",@progbits
.LLSDA3490:
	.byte	0xff
	.byte	0xff
	.byte	0x1
	.uleb128 .LLSDACSE3490-.LLSDACSB3490
.LLSDACSB3490:
	.uleb128 .LEHB0-.LFB3490
	.uleb128 .LEHE0-.LEHB0
	.uleb128 0
	.uleb128 0
	.uleb128 .LEHB1-.LFB3490
	.uleb128 .LEHE1-.LEHB1
	.uleb128 .L285-.LFB3490
	.uleb128 0
	.uleb128 .LEHB2-.LFB3490
	.uleb128 .LEHE2-.LEHB2
	.uleb128 0
	.uleb128 0
	.uleb128 .LEHB3-.LFB3490
	.uleb128 .LEHE3-.LEHB3
	.uleb128 .L285-.LFB3490
	.uleb128 0
	.uleb128 .LEHB4-.LFB3490
	.uleb128 .LEHE4-.LEHB4
	.uleb128 0
	.uleb128 0
.LLSDACSE3490:
	.text
	.size	_Z19GenerateRandomOrderm, .-_Z19GenerateRandomOrderm
	.section	.text._ZNSt23mersenne_twister_engineImLm32ELm624ELm397ELm31ELm2567483615ELm11ELm4294967295ELm7ELm2636928640ELm15ELm4022730752ELm18ELm1812433253EEclEv,"axG",@progbits,_ZNSt23mersenne_twister_engineImLm32ELm624ELm397ELm31ELm2567483615ELm11ELm4294967295ELm7ELm2636928640ELm15ELm4022730752ELm18ELm1812433253EEclEv,comdat
	.align 2
	.p2align 4,,15
	.weak	_ZNSt23mersenne_twister_engineImLm32ELm624ELm397ELm31ELm2567483615ELm11ELm4294967295ELm7ELm2636928640ELm15ELm4022730752ELm18ELm1812433253EEclEv
	.type	_ZNSt23mersenne_twister_engineImLm32ELm624ELm397ELm31ELm2567483615ELm11ELm4294967295ELm7ELm2636928640ELm15ELm4022730752ELm18ELm1812433253EEclEv, @function
_ZNSt23mersenne_twister_engineImLm32ELm624ELm397ELm31ELm2567483615ELm11ELm4294967295ELm7ELm2636928640ELm15ELm4022730752ELm18ELm1812433253EEclEv:
.LFB3847:
	.loc 20 414 0
	.cfi_startproc
.LVL531:
.LBB3446:
.LBB3447:
	.loc 20 419 0
	movq	4992(%rdi), %rax	# this_6(D)->_M_p, D.75606
	cmpq	$623, %rax	#, D.75606
	jbe	.L318	#,
	.loc 20 414 0
	movq	(%rdi), %r8	# this_6(D)->_M_x, this___M_x_I_lsm0.864
	leaq	8(%rdi), %rdx	#, ivtmp.884
.LBE3447:
.LBE3446:
	xorl	%esi, %esi	# __k
.LBB3454:
.LBB3453:
.LBB3448:
.LBB3449:
.LBB3450:
	.loc 20 428 0
	movl	$2567483615, %r10d	#, tmp202
	xorl	%r9d, %r9d	# tmp203
	.p2align 4,,10
	.p2align 3
.L310:
	.loc 20 427 0
	movq	%r8, %rax	# this___M_x_I_lsm0.864, D.75615
	movq	(%rdx), %r8	# MEM[base: D.80590_152, offset: 0B], this___M_x_I_lsm0.864
	addq	$1, %rsi	#, __k
	andq	$-2147483648, %rax	#, D.75615
	movq	%r8, %rcx	# this___M_x_I_lsm0.864, __y
	andl	$2147483647, %ecx	#, __y
	orq	%rax, %rcx	# D.75615, __y
	.loc 20 428 0
	movq	%r9, %rax	# tmp203, tmp176
	testb	$1, %cl	#, __y
	cmovne	%r10, %rax	# tmp202,, tmp176
	xorq	3168(%rdx), %rax	# MEM[base: D.80590_152, offset: 3168B], tmp176
	shrq	%rcx	# tmp175
	xorq	%rcx, %rax	# tmp175, tmp176
	movq	%rax, -8(%rdx)	# tmp176, MEM[base: D.80590_152, offset: -8B]
.LVL532:
	addq	$8, %rdx	#, ivtmp.884
.LBE3450:
	.loc 20 424 0
	cmpq	$227, %rsi	#, __k
	jne	.L310	#,
	.loc 20 414 0
	movq	1816(%rdi), %r8	# this_6(D)->_M_x, this___M_x_I_lsm0.865
	leaq	1824(%rdi), %rdx	#, ivtmp.873
.LBE3449:
.LBB3451:
.LBB3452:
	.loc 20 436 0
	movl	$2567483615, %r10d	#, tmp200
	xorl	%r9d, %r9d	# tmp201
.LVL533:
	.p2align 4,,10
	.p2align 3
.L313:
	.loc 20 435 0
	movq	%r8, %rax	# this___M_x_I_lsm0.865, D.75635
	movq	(%rdx), %r8	# MEM[base: D.80575_148, offset: 0B], this___M_x_I_lsm0.865
	addq	$1, %rsi	#, __k
	andq	$-2147483648, %rax	#, D.75635
	movq	%r8, %rcx	# this___M_x_I_lsm0.865, __y
	andl	$2147483647, %ecx	#, __y
	orq	%rax, %rcx	# D.75635, __y
	.loc 20 436 0
	movq	%r9, %rax	# tmp201, tmp182
	testb	$1, %cl	#, __y
	cmovne	%r10, %rax	# tmp200,, tmp182
	xorq	-1824(%rdx), %rax	# MEM[base: D.80575_148, offset: -1824B], tmp182
	shrq	%rcx	# tmp181
	xorq	%rcx, %rax	# tmp181, tmp182
	movq	%rax, -8(%rdx)	# tmp182, MEM[base: D.80575_148, offset: -8B]
.LVL534:
	addq	$8, %rdx	#, ivtmp.873
.LBE3452:
	.loc 20 432 0
	cmpq	$623, %rsi	#, __k
	jne	.L313	#,
.LBE3451:
	.loc 20 441 0
	movq	(%rdi), %rcx	# this_6(D)->_M_x, prephitmp.857
	movq	4984(%rdi), %rax	# this_6(D)->_M_x, tmp184
	.loc 20 442 0
	movl	$2567483615, %esi	#, iftmp.88
.LVL535:
	.loc 20 441 0
	movq	%rcx, %rdx	# prephitmp.857, __y
	andq	$-2147483648, %rax	#, tmp184
	andl	$2147483647, %edx	#, __y
	orq	%rax, %rdx	# tmp184, __y
.LVL536:
	.loc 20 442 0
	movq	%rdx, %rax	# __y, tmp188
	shrq	%rax	# tmp188
	xorq	3168(%rdi), %rax	# this_6(D)->_M_x, tmp188
	andl	$1, %edx	#, __y
.LVL537:
	movl	$0, %edx	#, tmp199
	cmove	%rdx, %rsi	# tmp199,, iftmp.88
	xorq	%rsi, %rax	# iftmp.88, tmp188
	movq	%rax, 4984(%rdi)	# tmp188, this_6(D)->_M_x
	movl	$1, %eax	#, prephitmp.857
.LVL538:
.L307:
.LBE3448:
.LBE3453:
	.loc 20 449 0
	movq	%rcx, %rdx	# prephitmp.857, tmp189
	.loc 20 448 0
	movq	%rax, 4992(%rdi)	# prephitmp.857, this_6(D)->_M_p
	.loc 20 449 0
	shrq	$11, %rdx	#, tmp189
	movl	%edx, %edx	# tmp189, __z
	xorq	%rcx, %rdx	# prephitmp.857, __z
.LVL539:
	.loc 20 450 0
	movq	%rdx, %rax	# __z, __z
	salq	$7, %rax	#, __z
	andl	$2636928640, %eax	#, __z
	xorq	%rdx, %rax	# __z, __z
.LVL540:
	.loc 20 451 0
	movq	%rax, %rdx	# __z, __z
	salq	$15, %rdx	#, __z
	andl	$4022730752, %edx	#, __z
	xorq	%rax, %rdx	# __z, __z
.LVL541:
	.loc 20 452 0
	movq	%rdx, %rax	# __z, tmp193
	shrq	$18, %rax	#, tmp193
.LVL542:
	xorq	%rdx, %rax	# __z, tmp193
.LVL543:
.LBE3454:
	.loc 20 455 0
	ret
.LVL544:
.L318:
	movq	(%rdi,%rax,8), %rcx	# this_6(D)->_M_x, prephitmp.857
	addq	$1, %rax	#, prephitmp.857
	jmp	.L307	#
	.cfi_endproc
.LFE3847:
	.size	_ZNSt23mersenne_twister_engineImLm32ELm624ELm397ELm31ELm2567483615ELm11ELm4294967295ELm7ELm2636928640ELm15ELm4022730752ELm18ELm1812433253EEclEv, .-_ZNSt23mersenne_twister_engineImLm32ELm624ELm397ELm31ELm2567483615ELm11ELm4294967295ELm7ELm2636928640ELm15ELm4022730752ELm18ELm1812433253EEclEv
	.section	.text._ZNSt24uniform_int_distributionImEclISt23mersenne_twister_engineImLm32ELm624ELm397ELm31ELm2567483615ELm11ELm4294967295ELm7ELm2636928640ELm15ELm4022730752ELm18ELm1812433253EEEEmRT_RKNS0_10param_typeE,"axG",@progbits,_ZNSt24uniform_int_distributionImEclISt23mersenne_twister_engineImLm32ELm624ELm397ELm31ELm2567483615ELm11ELm4294967295ELm7ELm2636928640ELm15ELm4022730752ELm18ELm1812433253EEEEmRT_RKNS0_10param_typeE,comdat
	.align 2
	.p2align 4,,15
	.weak	_ZNSt24uniform_int_distributionImEclISt23mersenne_twister_engineImLm32ELm624ELm397ELm31ELm2567483615ELm11ELm4294967295ELm7ELm2636928640ELm15ELm4022730752ELm18ELm1812433253EEEEmRT_RKNS0_10param_typeE
	.type	_ZNSt24uniform_int_distributionImEclISt23mersenne_twister_engineImLm32ELm624ELm397ELm31ELm2567483615ELm11ELm4294967295ELm7ELm2636928640ELm15ELm4022730752ELm18ELm1812433253EEEEmRT_RKNS0_10param_typeE, @function
_ZNSt24uniform_int_distributionImEclISt23mersenne_twister_engineImLm32ELm624ELm397ELm31ELm2567483615ELm11ELm4294967295ELm7ELm2636928640ELm15ELm4022730752ELm18ELm1812433253EEEEmRT_RKNS0_10param_typeE:
.LFB3734:
	.loc 20 864 0
	.cfi_startproc
.LVL545:
	pushq	%r15	#
	.cfi_def_cfa_offset 16
	.cfi_offset 15, -16
.LBB3531:
.LBB3532:
	.loc 20 882 0
	movl	$4294967294, %eax	#, tmp89
.LBE3532:
.LBE3531:
	.loc 20 864 0
	pushq	%r14	#
	.cfi_def_cfa_offset 24
	.cfi_offset 14, -24
	movq	%rdx, %r14	# __param, __param
	pushq	%r13	#
	.cfi_def_cfa_offset 32
	.cfi_offset 13, -32
	pushq	%r12	#
	.cfi_def_cfa_offset 40
	.cfi_offset 12, -40
	pushq	%rbp	#
	.cfi_def_cfa_offset 48
	.cfi_offset 6, -48
	pushq	%rbx	#
	.cfi_def_cfa_offset 56
	.cfi_offset 3, -56
	movq	%rsi, %rbx	# __urng, __urng
	subq	$24, %rsp	#,
	.cfi_def_cfa_offset 80
.LBB3550:
	.loc 20 878 0
	movq	8(%rdx), %r12	# MEM[(const struct param_type *)__param_5(D) + 8B], __urange
	subq	(%rdx), %r12	# MEM[(const struct param_type *)__param_5(D)], __urange
.LVL546:
.LBB3548:
	.loc 20 882 0
	cmpq	%rax, %r12	# tmp89, __urange
	ja	.L320	#,
.LBB3533:
	.loc 20 885 0
	addq	$1, %r12	#, __uerange
.LVL547:
	.loc 20 886 0
	movb	$-1, %al	#,
	xorl	%edx, %edx	# tmp91
.LVL548:
	divq	%r12	# __uerange
	.loc 20 887 0
	imulq	%rax, %r12	# tmp90, __past
.LVL549:
	.loc 20 886 0
	movq	%rax, %rbp	# tmp92, tmp90
.LVL550:
	.p2align 4,,10
	.p2align 3
.L321:
	.loc 20 889 0 discriminator 1
	movq	%rbx, %rdi	# __urng,
	call	_ZNSt23mersenne_twister_engineImLm32ELm624ELm397ELm31ELm2567483615ELm11ELm4294967295ELm7ELm2636928640ELm15ELm4022730752ELm18ELm1812433253EEclEv	#
.LVL551:
	.loc 20 888 0 discriminator 1
	cmpq	%rax, %r12	# __ret, __past
	jbe	.L321	#,
	.loc 20 891 0
	xorl	%edx, %edx	# tmp94
	divq	%rbp	# tmp90
.LVL552:
.L322:
.LBE3533:
.LBE3548:
	.loc 20 923 0
	addq	(%r14), %rax	# MEM[(const struct param_type *)__param_5(D)], tmp106
.LVL553:
.LBE3550:
	.loc 20 924 0
	addq	$24, %rsp	#,
	.cfi_remember_state
	.cfi_def_cfa_offset 56
	popq	%rbx	#
	.cfi_def_cfa_offset 48
.LVL554:
	popq	%rbp	#
	.cfi_def_cfa_offset 40
	popq	%r12	#
	.cfi_def_cfa_offset 32
	popq	%r13	#
	.cfi_def_cfa_offset 24
	popq	%r14	#
	.cfi_def_cfa_offset 16
.LVL555:
	popq	%r15	#
	.cfi_def_cfa_offset 8
	ret
.LVL556:
	.p2align 4,,10
	.p2align 3
.L320:
	.cfi_restore_state
.LBB3551:
.LBB3549:
.LBB3534:
	.loc 20 893 0
	movl	$4294967295, %r13d	#, tmp95
	cmpq	%r13, %r12	# tmp95, __urange
	je	.L323	#,
	movq	%r12, %r15	# __urange, pretmp.893
	shrq	$32, %r15	#, pretmp.893
.LBB3535:
.LBB3536:
.LBB3537:
.LBB3538:
.LBB3539:
.LBB3540:
	.loc 20 885 0
	leaq	1(%r15), %rax	#,
	movq	%rax, 8(%rsp)	#, %sfp
	jmp	.L332	#
.LVL557:
	.p2align 4,,10
	.p2align 3
.L324:
.LBE3540:
.LBB3541:
	.loc 20 921 0
	movq	%rbx, %rdi	# __urng,
	call	_ZNSt23mersenne_twister_engineImLm32ELm624ELm397ELm31ELm2567483615ELm11ELm4294967295ELm7ELm2636928640ELm15ELm4022730752ELm18ELm1812433253EEclEv	#
.LVL558:
.L326:
.LBE3541:
.LBE3539:
.LBE3538:
.LBE3537:
	.loc 20 914 0
	movq	%rax, %rbp	# __ret, __tmp
	.loc 20 916 0
	movq	%rbx, %rdi	# __urng,
	.loc 20 914 0
	salq	$32, %rbp	#, __tmp
.LVL559:
	.loc 20 916 0
	call	_ZNSt23mersenne_twister_engineImLm32ELm624ELm397ELm31ELm2567483615ELm11ELm4294967295ELm7ELm2636928640ELm15ELm4022730752ELm18ELm1812433253EEclEv	#
.LVL560:
.LBE3536:
	.loc 20 911 0
	addq	%rbp, %rax	# __tmp, __ret
.LVL561:
	jae	.L334	#,
.LVL562:
.L332:
.LBB3546:
.LBB3545:
.LBB3544:
.LBB3543:
	.loc 20 882 0
	cmpq	%r13, %r15	# tmp108, pretmp.893
	je	.L324	#,
.LVL563:
.LBB3542:
	.loc 20 886 0
	movq	%r13, %rax	# tmp108,
	xorl	%edx, %edx	# tmp98
	divq	8(%rsp)	# %sfp
	.loc 20 887 0
	movq	%rax, %rbp	#, __past
	.loc 20 886 0
	movq	%rax, (%rsp)	#, %sfp
.LVL564:
	.loc 20 887 0
	imulq	8(%rsp), %rbp	# %sfp, __past
.LVL565:
	.p2align 4,,10
	.p2align 3
.L325:
	.loc 20 889 0
	movq	%rbx, %rdi	# __urng,
	call	_ZNSt23mersenne_twister_engineImLm32ELm624ELm397ELm31ELm2567483615ELm11ELm4294967295ELm7ELm2636928640ELm15ELm4022730752ELm18ELm1812433253EEclEv	#
.LVL566:
	.loc 20 888 0
	cmpq	%rax, %rbp	# __ret, __past
	jbe	.L325	#,
	.loc 20 891 0
	xorl	%edx, %edx	# tmp101
	divq	(%rsp)	# %sfp
.LVL567:
	jmp	.L326	#
.LVL568:
	.p2align 4,,10
	.p2align 3
.L323:
.LBE3542:
.LBE3543:
.LBE3544:
.LBE3545:
.LBE3546:
.LBE3535:
	.loc 20 921 0
	movq	%rsi, %rdi	# __urng,
.LVL569:
	call	_ZNSt23mersenne_twister_engineImLm32ELm624ELm397ELm31ELm2567483615ELm11ELm4294967295ELm7ELm2636928640ELm15ELm4022730752ELm18ELm1812433253EEclEv	#
.LVL570:
	jmp	.L322	#
.LVL571:
	.p2align 4,,10
	.p2align 3
.L334:
.LBB3547:
	.loc 20 911 0
	cmpq	%r12, %rax	# __urange, __ret
	ja	.L332	#,
	.p2align 4,,8
	jmp	.L322	#
.LBE3547:
.LBE3534:
.LBE3549:
.LBE3551:
	.cfi_endproc
.LFE3734:
	.size	_ZNSt24uniform_int_distributionImEclISt23mersenne_twister_engineImLm32ELm624ELm397ELm31ELm2567483615ELm11ELm4294967295ELm7ELm2636928640ELm15ELm4022730752ELm18ELm1812433253EEEEmRT_RKNS0_10param_typeE, .-_ZNSt24uniform_int_distributionImEclISt23mersenne_twister_engineImLm32ELm624ELm397ELm31ELm2567483615ELm11ELm4294967295ELm7ELm2636928640ELm15ELm4022730752ELm18ELm1812433253EEEEmRT_RKNS0_10param_typeE
	.text
	.align 2
	.p2align 4,,15
	.globl	_ZN11Performance10SetupTestsERSt6vectorINS_4testESaIS1_EERS0_ImSaImEE
	.type	_ZN11Performance10SetupTestsERSt6vectorINS_4testESaIS1_EERS0_ImSaImEE, @function
_ZN11Performance10SetupTestsERSt6vectorINS_4testESaIS1_EERS0_ImSaImEE:
.LFB3488:
	.loc 9 120 0
	.cfi_startproc
.LVL572:
	pushq	%r15	#
	.cfi_def_cfa_offset 16
	.cfi_offset 15, -16
.LBB3585:
.LBB3586:
.LBB3587:
.LBB3588:
	.loc 20 347 0
	movl	$5489, %eax	#, __x
	.loc 20 350 0
	movl	$1, %ecx	#, __i
.LBE3588:
.LBE3587:
.LBE3586:
.LBE3585:
	.loc 9 120 0
	pushq	%r14	#
	.cfi_def_cfa_offset 24
	.cfi_offset 14, -24
	movq	%rsi, %r14	# histogram, histogram
	pushq	%r13	#
	.cfi_def_cfa_offset 32
	.cfi_offset 13, -32
	pushq	%r12	#
	.cfi_def_cfa_offset 40
	.cfi_offset 12, -40
	pushq	%rbp	#
	.cfi_def_cfa_offset 48
	.cfi_offset 6, -48
	pushq	%rbx	#
	.cfi_def_cfa_offset 56
	.cfi_offset 3, -56
	subq	$5064, %rsp	#,
	.cfi_def_cfa_offset 5120
.LVL573:
	.loc 9 120 0
	movq	%rdi, 8(%rsp)	# tests, %sfp
.LBB3646:
.LBB3608:
.LBB3609:
.LBB3610:
	.loc 21 1634 0
	movq	$0, 16(%rsp)	#, MEM[(struct param_type *)&uint_dist]._M_a
.LBE3610:
.LBE3609:
.LBE3608:
.LBB3613:
.LBB3605:
.LBB3602:
.LBB3589:
.LBB3590:
.LBB3591:
.LBB3592:
.LBB3593:
	.loc 20 61 0
	movabsq	$945986875574848801, %rdi	#, tmp156
.LVL574:
.LBE3593:
.LBE3592:
.LBE3591:
.LBE3590:
.LBE3589:
.LBE3602:
.LBE3605:
.LBE3613:
.LBB3614:
.LBB3612:
.LBB3611:
	.loc 21 1634 0
	movq	$93, 24(%rsp)	#, MEM[(struct param_type *)&uint_dist]._M_b
.LVL575:
.LBE3611:
.LBE3612:
.LBE3614:
.LBB3615:
.LBB3606:
.LBB3603:
	.loc 20 347 0
	movq	$5489, 48(%rsp)	#, rng._M_x
.LVL576:
	.p2align 4,,10
	.p2align 3
.L336:
.LBB3601:
.LBB3600:
	.loc 20 353 0
	movq	%rax, %rdx	# __x, __x
	shrq	$30, %rdx	#, __x
	xorq	%rax, %rdx	# __x, __x
.LVL577:
	.loc 20 354 0
	imulq	$1812433253, %rdx, %rsi	#, __x, __x
.LVL578:
.LBB3596:
.LBB3595:
.LBB3594:
	.loc 20 61 0
	movq	%rcx, %rdx	# __i, tmp122
	shrq	$4, %rdx	#, tmp122
	movq	%rdx, %rax	# tmp122,
	mulq	%rdi	# tmp156
	movq	%rcx, %rax	# __i, tmp126
	shrq	%rdx	# tmp121
	imulq	$624, %rdx, %rdx	#, tmp121, tmp125
	subq	%rdx, %rax	# tmp125, tmp126
.LBE3594:
.LBE3595:
.LBE3596:
.LBB3597:
.LBB3598:
.LBB3599:
	addl	%esi, %eax	# __x, __x
.LVL579:
.LBE3599:
.LBE3598:
.LBE3597:
	.loc 20 356 0
	movq	%rax, 48(%rsp,%rcx,8)	# __x, MEM[symbol: rng, index: __i_54, step: 8, offset: 0B]
.LBE3600:
	.loc 20 350 0
	addq	$1, %rcx	#, __i
.LVL580:
	cmpq	$624, %rcx	#, __i
	jne	.L336	#,
.LBE3601:
	.loc 20 359 0
	xorl	%r12d, %r12d	# prephitmp.913
	movl	$93, %ebx	#, prephitmp.913
.LBE3603:
.LBE3606:
.LBE3615:
.LBB3616:
.LBB3617:
.LBB3618:
.LBB3619:
.LBB3620:
.LBB3621:
	.loc 20 882 0
	movl	$4294967294, %ecx	#,
.LVL581:
.LBE3621:
	.loc 20 878 0
	subq	%r12, %rbx	# prephitmp.913, __urange
.LBE3620:
.LBE3619:
.LBE3618:
.LBE3617:
.LBE3616:
.LBB3644:
.LBB3607:
.LBB3604:
	.loc 20 359 0
	xorl	%ebp, %ebp	# ivtmp.931
	movq	$624, 5040(%rsp)	#, rng._M_p
.LVL582:
.LBE3604:
.LBE3607:
.LBE3644:
.LBB3645:
.LBB3642:
.LBB3637:
.LBB3634:
.LBB3631:
.LBB3628:
	.loc 20 882 0
	cmpq	%rcx, %rbx	#, __urange
	ja	.L337	#,
.LVL583:
	.p2align 4,,10
	.p2align 3
.L350:
.LBB3622:
	.loc 20 885 0
	addq	$1, %rbx	#, __uerange
.LVL584:
	.loc 20 886 0
	movl	$4294967295, %eax	#,
	xorl	%edx, %edx	# tmp131
	divq	%rbx	# __uerange
	.loc 20 887 0
	imulq	%rax, %rbx	# tmp130, __past
.LVL585:
	.loc 20 886 0
	movq	%rax, %r15	#, tmp130
.LVL586:
	.p2align 4,,10
	.p2align 3
.L338:
	.loc 20 889 0
	leaq	48(%rsp), %rdi	#,
.LVL587:
	call	_ZNSt23mersenne_twister_engineImLm32ELm624ELm397ELm31ELm2567483615ELm11ELm4294967295ELm7ELm2636928640ELm15ELm4022730752ELm18ELm1812433253EEclEv	#
.LVL588:
	.loc 20 888 0
	cmpq	%rax, %rbx	# __ret, __past
	jbe	.L338	#,
	.loc 20 891 0
	xorl	%edx, %edx	# tmp135
	divq	%r15	# tmp130
.LVL589:
.L339:
.LBE3622:
.LBE3628:
.LBE3631:
.LBE3634:
.LBE3637:
	.loc 9 127 0
	movq	8(%rsp), %rcx	# %sfp,
.LBB3638:
.LBB3635:
.LBB3632:
	.loc 20 923 0
	addq	%r12, %rax	# prephitmp.913, n
.LVL590:
.LBE3632:
.LBE3635:
.LBE3638:
	.loc 9 127 0
	movq	(%rcx), %rdx	# MEM[(struct vector *)tests_7(D)], MEM[(struct vector *)tests_7(D)]
	movq	%rax, (%rdx,%rbp)	# n, D.77911_38->param
.LVL591:
.LBB3639:
.LBB3640:
	.loc 18 751 0
	movq	(%r14), %rdx	# MEM[(struct vector *)histogram_10(D)], MEM[(struct vector *)histogram_10(D)]
	addq	$16, %rbp	#, ivtmp.931
.LBE3640:
.LBE3639:
	.loc 9 128 0
	addq	$1, (%rdx,%rax,8)	#, *D.77918_41
.LBE3642:
	.loc 9 124 0
	cmpq	$4000000, %rbp	#, ivtmp.931
	je	.L335	#,
	movq	16(%rsp), %r12	# MEM[(const struct uniform_int_distribution *)&uint_dist]._M_a, prephitmp.913
	movq	24(%rsp), %rbx	# MEM[(const struct uniform_int_distribution *)&uint_dist]._M_b, prephitmp.913
.LBB3643:
.LBB3641:
.LBB3636:
.LBB3633:
.LBB3629:
	.loc 20 882 0
	movl	$4294967294, %ecx	#,
.LVL592:
.LBE3629:
	.loc 20 878 0
	subq	%r12, %rbx	# prephitmp.913, __urange
.LVL593:
.LBB3630:
	.loc 20 882 0
	cmpq	%rcx, %rbx	#, __urange
	jbe	.L350	#,
.LVL594:
.L337:
.LBB3623:
	.loc 20 893 0
	movl	$4294967295, %ecx	#,
	cmpq	%rcx, %rbx	#, __urange
	je	.L340	#,
	movq	%rbx, %r15	# __urange, pretmp.915
	shrq	$32, %r15	#, pretmp.915
	.p2align 4,,10
	.p2align 3
.L348:
.LVL595:
.LBB3624:
.LBB3625:
	.loc 20 914 0
	leaq	32(%rsp), %rdx	#,
.LVL596:
	leaq	48(%rsp), %rsi	#,
.LVL597:
	leaq	16(%rsp), %rdi	#,
.LVL598:
.LBB3626:
.LBB3627:
	.loc 21 1634 0
	movq	$0, 32(%rsp)	#, D.80815._M_a
	movq	%r15, 40(%rsp)	# pretmp.915, D.80815._M_b
.LBE3627:
.LBE3626:
	.loc 20 914 0
	call	_ZNSt24uniform_int_distributionImEclISt23mersenne_twister_engineImLm32ELm624ELm397ELm31ELm2567483615ELm11ELm4294967295ELm7ELm2636928640ELm15ELm4022730752ELm18ELm1812433253EEEEmRT_RKNS0_10param_typeE	#
.LVL599:
	.loc 20 916 0
	leaq	48(%rsp), %rdi	#,
.LVL600:
	.loc 20 914 0
	movq	%rax, %r13	#, __tmp
	salq	$32, %r13	#, __tmp
.LVL601:
	.loc 20 916 0
	call	_ZNSt23mersenne_twister_engineImLm32ELm624ELm397ELm31ELm2567483615ELm11ELm4294967295ELm7ELm2636928640ELm15ELm4022730752ELm18ELm1812433253EEclEv	#
.LVL602:
.LBE3625:
	.loc 20 911 0
	addq	%r13, %rax	# __tmp, __ret
.LVL603:
	jb	.L348	#,
	cmpq	%rax, %rbx	# __ret, __urange
	jb	.L348	#,
	.p2align 4,,5
	jmp	.L339	#
.LVL604:
	.p2align 4,,10
	.p2align 3
.L340:
.LBE3624:
	.loc 20 921 0
	leaq	48(%rsp), %rdi	#,
.LVL605:
	call	_ZNSt23mersenne_twister_engineImLm32ELm624ELm397ELm31ELm2567483615ELm11ELm4294967295ELm7ELm2636928640ELm15ELm4022730752ELm18ELm1812433253EEclEv	#
.LVL606:
	.p2align 4,,3
	jmp	.L339	#
.LVL607:
.L335:
.LBE3623:
.LBE3630:
.LBE3633:
.LBE3636:
.LBE3641:
.LBE3643:
.LBE3645:
.LBE3646:
	.loc 9 130 0
	addq	$5064, %rsp	#,
	.cfi_def_cfa_offset 56
	popq	%rbx	#
	.cfi_def_cfa_offset 48
	popq	%rbp	#
	.cfi_def_cfa_offset 40
	popq	%r12	#
	.cfi_def_cfa_offset 32
	popq	%r13	#
	.cfi_def_cfa_offset 24
	popq	%r14	#
	.cfi_def_cfa_offset 16
.LVL608:
	popq	%r15	#
	.cfi_def_cfa_offset 8
	ret
	.cfi_endproc
.LFE3488:
	.size	_ZN11Performance10SetupTestsERSt6vectorINS_4testESaIS1_EERS0_ImSaImEE, .-_ZN11Performance10SetupTestsERSt6vectorINS_4testESaIS1_EERS0_ImSaImEE
	.section	.rodata.str1.8
	.align 8
.LC16:
	.string	"\033[31;1mgoodRecursion::fibonacci\033[0m"
	.section	.rodata.str1.1
.LC17:
	.string	"\033[32;1mloop::fibonacci\033[0m"
	.section	.rodata.str1.8
	.align 8
.LC18:
	.string	"\033[33;1mmetaprogrammed::ConstantTime::fibonacci\033[0m"
	.align 8
.LC19:
	.string	"\033[36;1mmatrixMultiplication::UsingMatrix::fibonacci\033[0m"
	.align 8
.LC20:
	.string	"\033[34;1mwithoutLoopsOrRecursion::fibonacci\033[0m"
	.align 8
.LC21:
	.string	"Time to compute Fibonacci values, ordered by speed (fastest to the top)"
	.section	.rodata.str1.1
.LC22:
	.string	"\033[1;37;40m"
	.section	.rodata.str1.8
	.align 8
.LC23:
	.string	"\033[1;43m Potentially inlined array lookup\033[0m"
	.align 8
.LC24:
	.string	"\033[1;42m Potentially inlined standard loop\033[0m"
	.align 8
.LC25:
	.string	"\033[1;46m Potentially inlined matrix potentiation\033[0m"
	.align 8
.LC26:
	.string	"\033[1;44m Potentially inlined floating point version\033[0m"
	.align 8
.LC27:
	.string	"\033[1;41m Potentially inlined recursion\033[0m"
	.section	.rodata.str1.1
.LC28:
	.string	": "
.LC29:
	.string	" calls in \033[35;1m"
.LC30:
	.string	" nanoseconds."
	.text
	.align 2
	.p2align 4,,15
	.globl	_ZN11Performance7CompareEv
	.type	_ZN11Performance7CompareEv, @function
_ZN11Performance7CompareEv:
.LFB3491:
	.loc 9 150 0
	.cfi_startproc
	.cfi_personality 0x3,__gxx_personality_v0
	.cfi_lsda 0x3,.LLSDA3491
	pushq	%r15	#
	.cfi_def_cfa_offset 16
	.cfi_offset 15, -16
.LBB4283:
.LBB4284:
.LBB4285:
.LBB4286:
.LBB4287:
.LBB4288:
.LBB4289:
.LBB4290:
	.loc 11 94 0
	movl	$4000000, %edi	#,
.LBE4290:
.LBE4289:
.LBE4288:
.LBE4287:
.LBE4286:
.LBE4285:
.LBE4284:
.LBE4283:
	.loc 9 150 0
	pushq	%r14	#
	.cfi_def_cfa_offset 24
	.cfi_offset 14, -24
	pushq	%r13	#
	.cfi_def_cfa_offset 32
	.cfi_offset 13, -32
	pushq	%r12	#
	.cfi_def_cfa_offset 40
	.cfi_offset 12, -40
	pushq	%rbp	#
	.cfi_def_cfa_offset 48
	.cfi_offset 6, -48
	pushq	%rbx	#
	.cfi_def_cfa_offset 56
	.cfi_offset 3, -56
	subq	$488, %rsp	#,
	.cfi_def_cfa_offset 544
.LVL609:
.LBB5050:
.LBB4311:
.LBB4298:
.LBB4295:
.LBB4296:
	.loc 18 88 0
	movq	$0, 240(%rsp)	#, MEM[(struct _Vector_impl *)&tests]._M_start
	movq	$0, 248(%rsp)	#, MEM[(struct _Vector_impl *)&tests]._M_finish
	movq	$0, 256(%rsp)	#, MEM[(struct _Vector_impl *)&tests]._M_end_of_storage
.LVL610:
.LEHB5:
.LBE4296:
.LBE4295:
.LBB4297:
.LBB4294:
.LBB4293:
.LBB4292:
.LBB4291:
	.loc 11 94 0
	call	_Znwm	#
.LEHE5:
.LVL611:
.LBE4291:
.LBE4292:
.LBE4293:
	.loc 18 184 0
	leaq	4000000(%rax), %rdx	#, D.80888
	.loc 18 182 0
	movq	%rax, 240(%rsp)	# __first, MEM[(struct _Vector_base *)&tests]._M_impl._M_start
	.loc 18 184 0
	movq	%rdx, 256(%rsp)	# D.80888, MEM[(struct _Vector_base *)&tests]._M_impl._M_end_of_storage
.LVL612:
	.p2align 4,,10
	.p2align 3
.L352:
.LBE4294:
.LBE4297:
.LBE4298:
.LBB4299:
.LBB4300:
.LBB4301:
.LBB4302:
.LBB4303:
.LBB4304:
	.loc 22 733 0
	movq	$0, (%rax)	#, MEM[base: __first_555, offset: 0B]
	movq	$0, 8(%rax)	#, MEM[base: __first_555, offset: 8B]
.LBB4305:
.LBB4306:
.LBB4307:
.LBB4308:
	.loc 22 731 0
	addq	$16, %rax	#, __first
.LVL613:
	cmpq	%rdx, %rax	# D.80888, __first
	jne	.L352	#,
.LBE4308:
.LBE4307:
.LBE4306:
.LBE4305:
.LBE4304:
.LBE4303:
.LBE4302:
.LBE4301:
.LBE4300:
.LBE4299:
.LBE4311:
.LBB4312:
.LBB4313:
.LBB4314:
.LBB4315:
.LBB4316:
.LBB4317:
.LBB4318:
	.loc 11 94 0
	movl	$744, %edi	#,
.LBE4318:
.LBE4317:
.LBE4316:
.LBE4315:
.LBE4314:
.LBE4313:
.LBE4312:
.LBB4369:
.LBB4310:
.LBB4309:
	.loc 18 1193 0
	movq	%rax, 248(%rsp)	# __first, tests.D.64209._M_impl._M_finish
.LVL614:
.LBE4309:
.LBE4310:
.LBE4369:
.LBB4370:
.LBB4362:
.LBB4363:
.LBB4364:
	.loc 18 92 0
	movq	$0, 272(%rsp)	#, MEM[(struct _Vector_impl *)&histogram]._M_start
	movq	$0, 280(%rsp)	#, MEM[(struct _Vector_impl *)&histogram]._M_finish
	movq	$0, 288(%rsp)	#, MEM[(struct _Vector_impl *)&histogram]._M_end_of_storage
.LVL615:
.LEHB6:
.LBE4364:
.LBE4363:
.LBE4362:
.LBB4365:
.LBB4358:
.LBB4354:
.LBB4321:
.LBB4320:
.LBB4319:
	.loc 11 94 0
	call	_Znwm	#
.LEHE6:
.LVL616:
.LBE4319:
.LBE4320:
.LBE4321:
	.loc 9 149 0
	movq	%rax, %rsi	# __first, prolog_loop_niters.1028
	.loc 18 1135 0
	leaq	744(%rax), %r8	#, D.80928
	.loc 18 1134 0
	movq	%rax, 272(%rsp)	# __first, histogram.D.66189._M_impl._M_start
	.loc 9 149 0
	salq	$60, %rsi	#, prolog_loop_niters.1028
	shrq	$63, %rsi	#, prolog_loop_niters.1028
	.loc 18 1135 0
	movq	%r8, 288(%rsp)	# D.80928, histogram.D.66189._M_impl._M_end_of_storage
.LVL617:
	testq	%rsi, %rsi	# prolog_loop_niters.1028
	je	.L456	#,
.LBB4322:
.LBB4323:
.LBB4324:
.LBB4325:
.LBB4326:
.LBB4327:
.LBB4328:
.LBB4329:
.LBB4330:
.LBB4331:
	.loc 22 743 0
	leaq	8(%rax), %r9	#, __first
	.loc 22 745 0
	movq	$0, (%rax)	#, MEM[base: __first_338, offset: 0B]
.LVL618:
	.loc 22 743 0
	movl	$92, %ecx	#, ivtmp.1022
.L353:
	.loc 22 745 0
	pxor	%xmm0, %xmm0	# tmp736
	movl	$93, %edi	#, niters.1031
	leaq	(%rax,%rsi,8), %rdx	#, ivtmp.1088
	subq	%rsi, %rdi	# prolog_loop_niters.1028, niters.1031
	.loc 9 149 0
	xorl	%eax, %eax	# ivtmp.1084
.LVL619:
	.p2align 4,,10
	.p2align 3
.L354:
	addq	$1, %rax	#, ivtmp.1084
	.loc 22 745 0
	movdqa	%xmm0, (%rdx)	# tmp736, MEM[base: D.82161_927, offset: 0B]
	addq	$16, %rdx	#, ivtmp.1088
	cmpq	$45, %rax	#, ivtmp.1084
	jbe	.L354	#,
	subq	$92, %rcx	#, tmp.1036
	cmpq	$92, %rdi	#, niters.1031
	leaq	736(%r9), %rdx	#, tmp.1034
	je	.L355	#,
	xorl	%eax, %eax	# ivtmp.1044
	.p2align 4,,10
	.p2align 3
.L356:
	movq	$0, (%rdx,%rax,8)	#, MEM[base: tmp.1034_383, index: ivtmp.1044_546, step: 8, offset: 0B]
	addq	$1, %rax	#, ivtmp.1044
	.loc 22 743 0
	cmpq	%rax, %rcx	# ivtmp.1044, tmp.1036
	jne	.L356	#,
.L355:
.LBE4331:
.LBE4330:
.LBE4329:
.LBE4328:
.LBE4327:
.LBE4326:
.LBE4325:
.LBE4324:
.LBE4323:
.LBE4322:
.LBE4354:
.LBE4358:
.LBE4365:
.LBE4370:
	.loc 9 154 0
	leaq	240(%rsp), %rdi	#,
.LVL620:
	leaq	272(%rsp), %rsi	#,
.LVL621:
.LBB4371:
.LBB4366:
.LBB4359:
.LBB4355:
.LBB4351:
.LBB4348:
	.loc 18 1183 0
	movq	%r8, 280(%rsp)	# D.80928, histogram.D.66189._M_impl._M_finish
.LVL622:
.LBE4348:
.LBE4351:
.LBE4355:
.LBE4359:
.LBE4366:
.LBE4371:
	.loc 9 154 0
	call	_ZN11Performance10SetupTestsERSt6vectorINS_4testESaIS1_EERS0_ImSaImEE	#
.LVL623:
	.loc 9 155 0
	leaq	272(%rsp), %rdi	#,
.LVL624:
.LEHB7:
	call	_ZN11Performance4ShowERKSt6vectorImSaImEE	#
.LEHE7:
.LVL625:
	.loc 9 174 0
	leaq	384(%rsp), %r13	#, tmp710
	leaq	31(%rsp), %rdx	#,
	movl	$.LC16, %esi	#,
	.loc 9 165 0
	movq	$_ZN17goodRecursionImplIyE9fibonacciEm, 336(%rsp)	#, functors
	movq	$_ZN4loop9fibonacciEm, 344(%rsp)	#, functors
	.loc 9 174 0
	movq	%r13, %rdi	# tmp710,
	.loc 9 165 0
	movq	$_ZN14metaprogrammed12ConstantTime9fibonacciEm, 352(%rsp)	#, functors
	movq	$_ZN20matrixMultiplication11UsingMatrix9fibonacciEm, 360(%rsp)	#, functors
	movq	$_ZN23withoutLoopsOrRecursion9fibonacciEm, 368(%rsp)	#, functors
.LVL626:
.LEHB8:
	.loc 9 174 0
	call	_ZNSsC1EPKcRKSaIcE	#
.LEHE8:
.LVL627:
	.loc 9 174 0 is_stmt 0 discriminator 1
	leaq	8(%r13), %rdi	#, tmp442
	leaq	31(%rsp), %rdx	#,
.LVL628:
	movl	$.LC17, %esi	#,
.LEHB9:
	call	_ZNSsC1EPKcRKSaIcE	#
.LEHE9:
.LVL629:
	.loc 9 174 0 discriminator 2
	leaq	16(%r13), %rdi	#, tmp445
	leaq	31(%rsp), %rdx	#,
.LVL630:
	movl	$.LC18, %esi	#,
.LEHB10:
	call	_ZNSsC1EPKcRKSaIcE	#
.LEHE10:
.LVL631:
	.loc 9 174 0 discriminator 3
	leaq	24(%r13), %rdi	#, tmp448
	leaq	31(%rsp), %rdx	#,
.LVL632:
	movl	$.LC19, %esi	#,
.LEHB11:
	call	_ZNSsC1EPKcRKSaIcE	#
.LEHE11:
.LVL633:
	.loc 9 174 0 discriminator 4
	leaq	32(%r13), %rdi	#, tmp451
	leaq	31(%rsp), %rdx	#,
.LVL634:
	movl	$.LC20, %esi	#,
.LEHB12:
	call	_ZNSsC1EPKcRKSaIcE	#
.LEHE12:
.LVL635:
.LBB4372:
.LBB4373:
.LBB4374:
.LBB4375:
.LBB4376:
.LBB4377:
.LBB4378:
	.loc 10 290 0 is_stmt 1 discriminator 5
	movq	_ZL10BeginTitle(%rip), %rsi	# BeginTitle._M_dataplus._M_p, D.80962
.LBE4378:
.LBE4377:
.LBE4376:
.LBE4375:
.LBE4374:
.LBE4373:
.LBE4372:
.LBB4383:
.LBB4384:
.LBB4385:
.LBB4386:
.LBB4387:
.LBB4388:
	.loc 8 466 0 discriminator 5
	leaq	440(%rsp), %rax	#, tmp453
.LBE4388:
.LBE4387:
.LBE4386:
.LBE4385:
.LBE4384:
.LBE4383:
.LBB4399:
.LBB4379:
	.loc 10 2755 0 discriminator 5
	movl	$_ZSt4cout, %edi	#,
.LBE4379:
.LBE4399:
.LBB4400:
.LBB4397:
.LBB4395:
.LBB4393:
	.loc 8 445 0 discriminator 5
	movl	$0, 440(%rsp)	#, MEM[(struct _Rb_tree_impl *)&results]._M_header._M_color
	movq	$0, 448(%rsp)	#, MEM[(struct _Rb_tree_impl *)&results]._M_header._M_parent
	movq	$0, 472(%rsp)	#, MEM[(struct _Rb_tree_impl *)&results]._M_node_count
.LVL636:
.LBB4391:
.LBB4389:
	.loc 8 466 0 discriminator 5
	movq	%rax, 456(%rsp)	# tmp453, MEM[(struct _Rb_tree_impl *)&results]._M_header._M_left
.LBE4389:
.LBE4391:
.LBE4393:
.LBE4395:
.LBE4397:
.LBE4400:
.LBB4401:
.LBB4380:
	.loc 10 2755 0 discriminator 5
	movq	-24(%rsi), %rdx	# MEM[(struct _Rep *)D.80962_340 + -24B].D.19289._M_length, MEM[(struct _Rep *)D.80962_340 + -24B].D.19289._M_length
.LBE4380:
.LBE4401:
.LBB4402:
.LBB4398:
.LBB4396:
.LBB4394:
.LBB4392:
.LBB4390:
	.loc 8 467 0 discriminator 5
	movq	%rax, 464(%rsp)	# tmp453, MEM[(struct _Rb_tree_impl *)&results]._M_header._M_right
.LVL637:
.LEHB13:
.LBE4390:
.LBE4392:
.LBE4394:
.LBE4396:
.LBE4398:
.LBE4402:
.LBB4403:
.LBB4381:
	.loc 10 2755 0 discriminator 5
	call	_ZSt16__ostream_insertIcSt11char_traitsIcEERSt13basic_ostreamIT_T0_ES6_PKS3_l	#
.LVL638:
.LBE4381:
.LBE4403:
.LBB4404:
.LBB4405:
	.loc 2 533 0 discriminator 5
	movl	$71, %edx	#,
	movl	$.LC21, %esi	#,
	movq	%rax, %rdi	# D.80965,
.LBE4405:
.LBE4404:
.LBB4407:
.LBB4382:
	.loc 10 2755 0 discriminator 5
	movq	%rax, %rbx	#, D.80965
.LVL639:
.LBE4382:
.LBE4407:
.LBB4408:
.LBB4406:
	.loc 2 533 0 discriminator 5
	call	_ZSt16__ostream_insertIcSt11char_traitsIcEERSt13basic_ostreamIT_T0_ES6_PKS3_l	#
.LVL640:
.LBE4406:
.LBE4408:
.LBB4409:
.LBB4410:
.LBB4411:
.LBB4412:
.LBB4413:
.LBB4414:
.LBB4415:
	.loc 10 290 0
	movq	_ZL8EndTitle(%rip), %rsi	# EndTitle._M_dataplus._M_p, D.80977
.LVL641:
.LBE4415:
.LBE4414:
.LBE4413:
.LBE4412:
.LBE4411:
	.loc 10 2755 0
	movq	%rbx, %rdi	# D.80965,
	movq	-24(%rsi), %rdx	# MEM[(struct _Rep *)D.80977_346 + -24B].D.19289._M_length, MEM[(struct _Rep *)D.80977_346 + -24B].D.19289._M_length
	call	_ZSt16__ostream_insertIcSt11char_traitsIcEERSt13basic_ostreamIT_T0_ES6_PKS3_l	#
.LVL642:
	movq	%rax, %rbp	#, D.80980
.LVL643:
.LBE4410:
.LBE4409:
.LBB4416:
.LBB4417:
.LBB4418:
	.loc 2 563 0
	movq	(%rax), %rax	# D.80980_349->_vptr.basic_ostream, D.80980_349->_vptr.basic_ostream
.LVL644:
.LBE4418:
	.loc 9 220 0
	movq	-24(%rax), %rax	# MEM[(long int *)D.80992_350 + -24B], MEM[(long int *)D.80992_350 + -24B]
	movq	240(%rbp,%rax), %rbx	# MEM[(const struct basic_ios *)D.80989_353 + 240B], D.81001
.LVL645:
.LBB4432:
.LBB4419:
.LBB4420:
.LBB4421:
	.loc 4 50 0
	testq	%rbx, %rbx	# D.81001
	je	.L614	#,
.LVL646:
.LBE4421:
.LBE4420:
.LBB4423:
.LBB4424:
	.loc 17 869 0
	cmpb	$0, 56(%rbx)	#, MEM[(const struct ctype *)D.81001_354]._M_widen_ok
	je	.L369	#,
	.loc 17 870 0
	movzbl	67(%rbx), %eax	# MEM[(const struct ctype *)D.81001_354]._M_widen, D.81006
.LVL647:
.L370:
.LBE4424:
.LBE4423:
.LBE4419:
	.loc 2 563 0
	movsbl	%al, %esi	# D.81006, D.81006
	movq	%rbp, %rdi	# D.80980,
	call	_ZNSo3putEc	#
.LVL648:
.LBB4428:
.LBB4429:
	.loc 2 585 0
	movq	%rax, %rdi	# D.80986,
	call	_ZNSo5flushEv	#
.LVL649:
.LBE4429:
.LBE4428:
.LBE4432:
.LBE4417:
.LBE4416:
	.loc 9 195 0
	leaq	304(%rsp), %rdi	#,
	movl	$5, %esi	#,
	call	_Z19GenerateRandomOrderm	#
.LEHE13:
.LVL650:
.LBB4437:
.LBB4438:
.LBB4439:
.LBB4440:
.LBB4441:
	.loc 9 181 0
	leaq	136(%rsp), %r14	#, tmp735
.LBE4441:
.LBE4440:
.LBE4439:
.LBE4438:
.LBE4437:
	.loc 9 195 0
	movl	$5, 12(%rsp)	#, %sfp
.LVL651:
.L371:
.LBB4555:
.LBB4367:
.LBB4360:
.LBB4356:
.LBB4352:
.LBB4349:
.LBB4346:
.LBB4344:
.LBB4342:
.LBB4340:
.LBB4338:
.LBB4336:
.LBB4334:
.LBB4332:
	.loc 22 745 0 discriminator 1
	xorl	%r12d, %r12d	# ivtmp.1077
.LVL652:
	.p2align 4,,10
	.p2align 3
.L382:
.LBE4332:
.LBE4334:
.LBE4336:
.LBE4338:
.LBE4340:
.LBE4342:
.LBE4344:
.LBE4346:
.LBE4349:
.LBE4352:
.LBE4356:
.LBE4360:
.LBE4367:
.LBE4555:
.LBB4556:
.LBB4551:
.LBB4547:
	.loc 9 203 0
	movq	304(%rsp), %rax	# MEM[(struct vector *)&randomOrder], MEM[(struct vector *)&randomOrder]
	.loc 9 204 0
	leaq	112(%rsp), %rdi	#,
	.loc 9 203 0
	movslq	(%rax,%r12), %rax	# *D.79001_267, j
	.loc 9 204 0
	leaq	0(%r13,%rax,8), %rsi	#, tmp471
	.loc 9 203 0
	movq	336(%rsp,%rax,8), %rbp	# functors, f
.LVL653:
.LEHB14:
	.loc 9 204 0
	call	_ZNSsC1ERKSs	#
.LEHE14:
.LVL654:
	.loc 9 207 0
	leaq	112(%rsp), %rsi	#,
	leaq	32(%rsp), %rdi	#,
.LEHB15:
	call	_ZNSsC1ERKSs	#
.LEHE15:
.LVL655:
.LBB4444:
.LBB4445:
.LBB4446:
.LBB4447:
.LBB4448:
	.loc 14 12 0
	call	_ZNSt6chrono12system_clock3nowEv	#
.LVL656:
.LBE4448:
.LBE4447:
.LBE4446:
.LBB4451:
.LBB4452:
.LBB4453:
.LBB4454:
	.loc 15 728 0
	movq	240(%rsp), %rdx	# MEM[(struct test * const &)&tests], SR.314
.LBE4454:
.LBE4453:
.LBE4452:
.LBB4455:
.LBB4456:
.LBB4457:
	movq	248(%rsp), %rbx	# MEM[(struct test * const &)&tests + 8], D.81039
.LBE4457:
.LBE4456:
.LBE4455:
.LBE4451:
.LBB4458:
.LBB4450:
.LBB4449:
	.loc 14 12 0
	movq	%rax, 224(%rsp)	# tmp475, sw.start_
.LVL657:
.LBE4449:
.LBE4450:
.LBE4458:
.LBB4459:
	.loc 9 30 0
	cmpq	%rbx, %rdx	# D.81039, SR.314
	je	.L372	#,
	movq	%rdx, %r15	# SR.314, ivtmp.1069
.LVL658:
	.p2align 4,,10
	.p2align 3
.L373:
	.loc 9 32 0
	movq	(%r15), %rdi	# MEM[base: D.82142_321, offset: 0],
	addq	$16, %r15	#, ivtmp.1069
.LVL659:
	call	*%rbp	# f
.LVL660:
	.loc 9 30 0
	cmpq	%r15, %rbx	# ivtmp.1069, D.81039
	jne	.L373	#,
.LVL661:
.L372:
.LBE4459:
.LBB4460:
.LBB4461:
	.loc 14 15 0
	call	_ZNSt6chrono12system_clock3nowEv	#
.LVL662:
	movq	%rax, 232(%rsp)	# tmp476, sw.end_
.LVL663:
.LBE4461:
.LBE4460:
.LBB4462:
.LBB4463:
.LBB4464:
.LBB4465:
	.loc 16 376 0
	subq	224(%rsp), %rax	# MEM[(const struct time_point *)&sw].__r, tmp477
.LBE4465:
.LBE4464:
.LBE4463:
.LBE4462:
.LBE4445:
.LBE4444:
.LBB4472:
.LBB4442:
	.loc 9 181 0
	leaq	32(%rsp), %rsi	#,
	movq	%r14, %rdi	# tmp735,
.LBE4442:
.LBE4472:
.LBB4473:
.LBB4471:
.LBB4470:
.LBB4466:
.LBB4467:
.LBB4468:
.LBB4469:
	.loc 16 155 0
	imulq	$1000, %rax, %rax	#, tmp477, D.81037
.LVL664:
.LBE4469:
.LBE4468:
.LBE4467:
.LBE4466:
.LBE4470:
.LBE4471:
.LBE4473:
.LBB4474:
.LBB4443:
	.loc 9 181 0
	movq	%rax, 128(%rsp)	# D.81037, D.69770.elapsed
.LEHB16:
	call	_ZNSsC1ERKSs	#
.LEHE16:
.LVL665:
.LBE4443:
.LBE4474:
.LBB4475:
.LBB4476:
	.loc 9 220 0
	movq	448(%rsp), %rbx	# MEM[(struct _Rb_tree *)&results + 16B], __y
.LVL666:
.LBB4477:
	.loc 8 1318 0
	testq	%rbx, %rbx	# __y
	je	.L458	#,
	movq	128(%rsp), %rcx	# MEM[(const struct result *)&D.69770], pretmp.1014
	jmp	.L377	#
.LVL667:
	.p2align 4,,10
	.p2align 3
.L616:
.LBE4477:
	.loc 9 220 0
	movq	16(%rbx), %rax	# MEM[(struct _Rb_tree_node_base *)__y_828 + 16B], __y
.LVL668:
.LBB4505:
	.loc 8 1318 0
	testq	%rax, %rax	# __y
	je	.L615	#,
.LVL669:
.L459:
	movq	%rax, %rbx	# __y, __y
.LVL670:
.L377:
.LBB4478:
	.loc 9 220 0
	movq	32(%rbx), %rdx	# MEM[(const struct result &)__y_828 + 32], D.81071
.LVL671:
.LBE4478:
	.loc 8 1321 0
	cmpq	%rcx, %rdx	# pretmp.1014, D.81071
	jg	.L616	#,
.LBE4505:
	.loc 9 220 0
	movq	24(%rbx), %rax	# MEM[(struct _Rb_tree_node_base *)__y_828 + 24B], __y
.LVL672:
.LBB4506:
	.loc 8 1318 0
	testq	%rax, %rax	# __y
	jne	.L459	#,
.LVL673:
.L615:
.LBB4479:
.LBB4480:
	.loc 8 977 0
	leaq	440(%rsp), %rax	#, tmp484
.LVL674:
	cmpq	%rax, %rbx	# tmp484, __y
	je	.L460	#,
.LVL675:
	cmpq	%rcx, %rdx	# pretmp.1014, D.81071
	setg	%bpl	#, __insert_left
.LVL676:
.L374:
.LBB4481:
.LBB4482:
.LBB4483:
.LBB4484:
.LBB4485:
	.loc 11 94 0
	movl	$48, %edi	#,
.LEHB17:
	call	_Znwm	#
.LEHE17:
.LVL677:
.LBE4485:
.LBE4484:
.LBE4483:
.LBB4486:
.LBB4487:
	.loc 11 110 0
	testq	%rax, %rax	# __z
	je	.L378	#,
.LVL678:
.LBB4488:
.LBB4489:
.LBB4490:
.LBB4491:
	.loc 9 177 0
	movq	128(%rsp), %rdx	# D.69770.elapsed, D.69770.elapsed
.LBE4491:
.LBE4490:
	.loc 8 139 0
	movl	$0, (%rax)	#, __z_407->D.71323._M_color
	movq	$0, 8(%rax)	#, __z_407->D.71323._M_parent
	movq	$0, 16(%rax)	#, __z_407->D.71323._M_left
	movq	$0, 24(%rax)	#, __z_407->D.71323._M_right
.LVL679:
.LBB4500:
.LBB4499:
	.loc 9 177 0
	movq	%rdx, 32(%rax)	# D.69770.elapsed, MEM[(struct result *)__z_407 + 32B].elapsed
.LVL680:
.LBB4492:
.LBB4493:
.LBB4494:
	.loc 10 269 0
	movq	136(%rsp), %rdx	# MEM[(const struct _Alloc_hider &)&D.69770 + 8]._M_p, MEM[(const struct _Alloc_hider &)&D.69770 + 8]._M_p
.LBE4494:
.LBE4493:
.LBB4496:
.LBB4497:
	.loc 10 294 0
	movq	$_ZNSs4_Rep20_S_empty_rep_storageE+24, 136(%rsp)	#, MEM[(struct basic_string *)&D.69770 + 8B]._M_dataplus._M_p
.LBE4497:
.LBE4496:
.LBB4498:
.LBB4495:
	.loc 10 269 0
	movq	%rdx, 40(%rax)	# MEM[(const struct _Alloc_hider &)&D.69770 + 8]._M_p, MEM[(struct _Alloc_hider *)__z_407 + 40B]._M_p
.LVL681:
.L378:
.LBE4495:
.LBE4498:
.LBE4492:
.LBE4499:
.LBE4500:
.LBE4489:
.LBE4488:
.LBE4487:
.LBE4486:
.LBE4482:
.LBE4481:
	.loc 8 981 0
	leaq	440(%rsp), %rcx	#, tmp489
	movq	%rbx, %rdx	# __y,
	movzbl	%bpl, %edi	# __insert_left, __insert_left
	movq	%rax, %rsi	# __z,
	call	_ZSt29_Rb_tree_insert_and_rebalancebPSt18_Rb_tree_node_baseS0_RS_	#
.LVL682:
.LBE4480:
.LBE4479:
.LBE4506:
.LBE4476:
.LBE4475:
.LBB4513:
.LBB4514:
.LBB4515:
	.loc 10 536 0
	movq	136(%rsp), %rbx	# MEM[(const struct basic_string *)&D.69770 + 8B]._M_dataplus._M_p, D.81121
.LBE4515:
.LBE4514:
.LBE4513:
.LBB4524:
.LBB4510:
.LBB4507:
.LBB4503:
.LBB4501:
	.loc 8 984 0
	addq	$1, 472(%rsp)	#, MEM[(struct _Rb_tree *)&results]._M_impl._M_node_count
.LVL683:
.LBE4501:
.LBE4503:
.LBE4507:
.LBE4510:
.LBE4524:
.LBB4525:
.LBB4522:
.LBB4520:
	.loc 10 536 0
	subq	$24, %rbx	#, D.81121
.LVL684:
.LBB4516:
.LBB4517:
	.loc 10 237 0
	cmpq	$_ZNSs4_Rep20_S_empty_rep_storageE, %rbx	#, D.81121
	jne	.L617	#,
.L379:
.LVL685:
.LBE4517:
.LBE4516:
.LBE4520:
.LBE4522:
.LBE4525:
.LBB4526:
.LBB4527:
	.loc 10 536 0
	movq	32(%rsp), %rbx	# D.69769._M_dataplus._M_p, D.81135
.LVL686:
	subq	$24, %rbx	#, D.81135
.LVL687:
.LBB4528:
.LBB4529:
	.loc 10 237 0
	cmpq	$_ZNSs4_Rep20_S_empty_rep_storageE, %rbx	#, D.81135
	jne	.L618	#,
.L380:
.LVL688:
.LBE4529:
.LBE4528:
.LBE4527:
.LBE4526:
.LBB4533:
.LBB4534:
	.loc 10 536 0
	movq	112(%rsp), %rbx	# name._M_dataplus._M_p, D.81149
.LVL689:
	subq	$24, %rbx	#, D.81149
.LVL690:
.LBB4535:
.LBB4536:
	.loc 10 237 0
	cmpq	$_ZNSs4_Rep20_S_empty_rep_storageE, %rbx	#, D.81149
	jne	.L619	#,
.L381:
.LVL691:
	addq	$4, %r12	#, ivtmp.1077
.LBE4536:
.LBE4535:
.LBE4534:
.LBE4533:
.LBE4547:
	.loc 9 199 0
	cmpq	$20, %r12	#, ivtmp.1077
	jne	.L382	#,
.LVL692:
.LBE4551:
	.loc 9 196 0
	subl	$1, 12(%rsp)	#, %sfp
	jne	.L371	#,
.LVL693:
.LBE4556:
.LBB4557:
.LBB4558:
	.loc 2 533 0
	movl	$10, %edx	#,
	movl	$.LC22, %esi	#,
	movl	$_ZSt4cout, %edi	#,
.LEHB18:
	call	_ZSt16__ostream_insertIcSt11char_traitsIcEERSt13basic_ostreamIT_T0_ES6_PKS3_l	#
.LVL694:
.LBE4558:
.LBE4557:
	.loc 9 212 0
	leaq	30(%rsp), %rdx	#,
.LVL695:
	leaq	48(%rsp), %rdi	#,
	movl	$.LC23, %esi	#,
	call	_ZNSsC1EPKcRKSaIcE	#
.LEHE18:
.LVL696:
	.loc 9 212 0 is_stmt 0 discriminator 1
	leaq	240(%rsp), %rdi	#,
.LVL697:
.LEHB19:
	call	_ZN11Performance18InlinedArrayLookupERSt6vectorINS_4testESaIS1_EE	#
.LVL698:
.LBB4559:
.LBB4560:
	.loc 9 181 0 is_stmt 1 discriminator 1
	leaq	152(%rsp), %rdi	#, tmp505
	leaq	48(%rsp), %rsi	#,
.LVL699:
	movq	%rax, 144(%rsp)	# D.74668, D.69905.elapsed
	call	_ZNSsC1ERKSs	#
.LEHE19:
.LVL700:
.LBE4560:
.LBE4559:
.LBB4561:
.LBB4562:
	.loc 9 220 0
	movq	448(%rsp), %rbx	# MEM[(struct _Rb_tree *)&results + 16B], __y
.LVL701:
.LBB4563:
	.loc 8 1318 0
	testq	%rbx, %rbx	# __y
	je	.L461	#,
	movq	144(%rsp), %rcx	# MEM[(const struct result *)&D.69905], pretmp.1011
	jmp	.L387	#
.LVL702:
	.p2align 4,,10
	.p2align 3
.L621:
.LBE4563:
	.loc 9 220 0
	movq	16(%rbx), %rax	# MEM[(struct _Rb_tree_node_base *)__y_804 + 16B], __y
.LVL703:
.LBB4591:
	.loc 8 1318 0
	testq	%rax, %rax	# __y
	je	.L620	#,
.LVL704:
.L462:
	movq	%rax, %rbx	# __y, __y
.LVL705:
.L387:
.LBB4564:
	.loc 9 220 0
	movq	32(%rbx), %rdx	# MEM[(const struct result &)__y_804 + 32], D.81189
.LVL706:
.LBE4564:
	.loc 8 1321 0
	cmpq	%rcx, %rdx	# pretmp.1011, D.81189
	jg	.L621	#,
.LBE4591:
	.loc 9 220 0
	movq	24(%rbx), %rax	# MEM[(struct _Rb_tree_node_base *)__y_804 + 24B], __y
.LVL707:
.LBB4592:
	.loc 8 1318 0
	testq	%rax, %rax	# __y
	jne	.L462	#,
.LVL708:
.L620:
.LBB4565:
.LBB4566:
	.loc 8 977 0
	leaq	440(%rsp), %rax	#, tmp507
.LVL709:
	cmpq	%rax, %rbx	# tmp507, __y
	je	.L463	#,
.LVL710:
	cmpq	%rcx, %rdx	# pretmp.1011, D.81189
	setg	%bpl	#, __insert_left
.LVL711:
.L384:
.LBB4567:
.LBB4568:
.LBB4569:
.LBB4570:
.LBB4571:
	.loc 11 94 0
	movl	$48, %edi	#,
.LEHB20:
	call	_Znwm	#
.LEHE20:
.LVL712:
.LBE4571:
.LBE4570:
.LBE4569:
.LBB4572:
.LBB4573:
	.loc 11 110 0
	testq	%rax, %rax	# __z
	je	.L388	#,
.LVL713:
.LBB4574:
.LBB4575:
.LBB4576:
.LBB4577:
	.loc 9 177 0
	movq	144(%rsp), %rdx	# D.69905.elapsed, D.69905.elapsed
.LBE4577:
.LBE4576:
	.loc 8 139 0
	movl	$0, (%rax)	#, __z_458->D.71323._M_color
	movq	$0, 8(%rax)	#, __z_458->D.71323._M_parent
	movq	$0, 16(%rax)	#, __z_458->D.71323._M_left
	movq	$0, 24(%rax)	#, __z_458->D.71323._M_right
.LVL714:
.LBB4586:
.LBB4585:
	.loc 9 177 0
	movq	%rdx, 32(%rax)	# D.69905.elapsed, MEM[(struct result *)__z_458 + 32B].elapsed
.LVL715:
.LBB4578:
.LBB4579:
.LBB4580:
	.loc 10 269 0
	movq	152(%rsp), %rdx	# MEM[(const struct _Alloc_hider &)&D.69905 + 8]._M_p, MEM[(const struct _Alloc_hider &)&D.69905 + 8]._M_p
.LBE4580:
.LBE4579:
.LBB4582:
.LBB4583:
	.loc 10 294 0
	movq	$_ZNSs4_Rep20_S_empty_rep_storageE+24, 152(%rsp)	#, MEM[(struct basic_string *)&D.69905 + 8B]._M_dataplus._M_p
.LBE4583:
.LBE4582:
.LBB4584:
.LBB4581:
	.loc 10 269 0
	movq	%rdx, 40(%rax)	# MEM[(const struct _Alloc_hider &)&D.69905 + 8]._M_p, MEM[(struct _Alloc_hider *)__z_458 + 40B]._M_p
.LVL716:
.L388:
.LBE4581:
.LBE4584:
.LBE4578:
.LBE4585:
.LBE4586:
.LBE4575:
.LBE4574:
.LBE4573:
.LBE4572:
.LBE4568:
.LBE4567:
	.loc 8 981 0
	leaq	440(%rsp), %rcx	#, tmp512
	movq	%rbx, %rdx	# __y,
	movzbl	%bpl, %edi	# __insert_left, __insert_left
	movq	%rax, %rsi	# __z,
	call	_ZSt29_Rb_tree_insert_and_rebalancebPSt18_Rb_tree_node_baseS0_RS_	#
.LVL717:
.LBE4566:
.LBE4565:
.LBE4592:
.LBE4562:
.LBE4561:
.LBB4599:
.LBB4600:
.LBB4601:
	.loc 10 536 0
	movq	152(%rsp), %rbx	# MEM[(const struct basic_string *)&D.69905 + 8B]._M_dataplus._M_p, D.81239
.LBE4601:
.LBE4600:
.LBE4599:
.LBB4610:
.LBB4596:
.LBB4593:
.LBB4589:
.LBB4587:
	.loc 8 984 0
	addq	$1, 472(%rsp)	#, MEM[(struct _Rb_tree *)&results]._M_impl._M_node_count
.LVL718:
.LBE4587:
.LBE4589:
.LBE4593:
.LBE4596:
.LBE4610:
.LBB4611:
.LBB4608:
.LBB4606:
	.loc 10 536 0
	subq	$24, %rbx	#, D.81239
.LVL719:
.LBB4602:
.LBB4603:
	.loc 10 237 0
	cmpq	$_ZNSs4_Rep20_S_empty_rep_storageE, %rbx	#, D.81239
	jne	.L622	#,
.L389:
.LVL720:
.LBE4603:
.LBE4602:
.LBE4606:
.LBE4608:
.LBE4611:
.LBB4612:
.LBB4613:
	.loc 10 536 0
	movq	48(%rsp), %rbx	# D.69904._M_dataplus._M_p, D.81253
.LVL721:
	subq	$24, %rbx	#, D.81253
.LVL722:
.LBB4614:
.LBB4615:
	.loc 10 237 0
	cmpq	$_ZNSs4_Rep20_S_empty_rep_storageE, %rbx	#, D.81253
	jne	.L623	#,
.L390:
.LVL723:
.LBE4615:
.LBE4614:
.LBE4613:
.LBE4612:
	.loc 9 213 0
	leaq	30(%rsp), %rdx	#,
.LVL724:
	leaq	64(%rsp), %rdi	#,
	movl	$.LC24, %esi	#,
.LEHB21:
	call	_ZNSsC1EPKcRKSaIcE	#
.LEHE21:
.LVL725:
	.loc 9 213 0 is_stmt 0 discriminator 1
	leaq	240(%rsp), %rdi	#,
.LVL726:
.LEHB22:
	call	_ZN11Performance19InlinedStandardLoopERKSt6vectorINS_4testESaIS1_EE	#
.LVL727:
.LBB4619:
.LBB4620:
	.loc 9 181 0 is_stmt 1 discriminator 1
	leaq	168(%rsp), %rdi	#, tmp525
	leaq	64(%rsp), %rsi	#,
.LVL728:
	movq	%rax, 160(%rsp)	# D.74669, D.69910.elapsed
	call	_ZNSsC1ERKSs	#
.LEHE22:
.LVL729:
.LBE4620:
.LBE4619:
.LBB4621:
.LBB4622:
	.loc 9 220 0
	movq	448(%rsp), %rbx	# MEM[(struct _Rb_tree *)&results + 16B], __y
.LVL730:
.LBB4623:
	.loc 8 1318 0
	testq	%rbx, %rbx	# __y
	je	.L464	#,
	movq	160(%rsp), %rcx	# MEM[(const struct result *)&D.69910], pretmp.1008
	jmp	.L394	#
.LVL731:
	.p2align 4,,10
	.p2align 3
.L625:
.LBE4623:
	.loc 9 220 0
	movq	16(%rbx), %rax	# MEM[(struct _Rb_tree_node_base *)__y_993 + 16B], __y
.LVL732:
.LBB4651:
	.loc 8 1318 0
	testq	%rax, %rax	# __y
	je	.L624	#,
.LVL733:
.L465:
	movq	%rax, %rbx	# __y, __y
.LVL734:
.L394:
.LBB4624:
	.loc 9 220 0
	movq	32(%rbx), %rdx	# MEM[(const struct result &)__y_993 + 32], D.81287
.LVL735:
.LBE4624:
	.loc 8 1321 0
	cmpq	%rcx, %rdx	# pretmp.1008, D.81287
	jg	.L625	#,
.LBE4651:
	.loc 9 220 0
	movq	24(%rbx), %rax	# MEM[(struct _Rb_tree_node_base *)__y_993 + 24B], __y
.LVL736:
.LBB4652:
	.loc 8 1318 0
	testq	%rax, %rax	# __y
	jne	.L465	#,
.LVL737:
.L624:
.LBB4625:
.LBB4626:
	.loc 8 977 0
	leaq	440(%rsp), %rax	#, tmp527
.LVL738:
	cmpq	%rax, %rbx	# tmp527, __y
	je	.L466	#,
.LVL739:
	cmpq	%rcx, %rdx	# pretmp.1008, D.81287
	setg	%bpl	#, __insert_left
.LVL740:
.L391:
.LBB4627:
.LBB4628:
.LBB4629:
.LBB4630:
.LBB4631:
	.loc 11 94 0
	movl	$48, %edi	#,
.LEHB23:
	call	_Znwm	#
.LEHE23:
.LVL741:
.LBE4631:
.LBE4630:
.LBE4629:
.LBB4632:
.LBB4633:
	.loc 11 110 0
	testq	%rax, %rax	# __z
	je	.L395	#,
.LVL742:
.LBB4634:
.LBB4635:
.LBB4636:
.LBB4637:
	.loc 9 177 0
	movq	160(%rsp), %rdx	# D.69910.elapsed, D.69910.elapsed
.LBE4637:
.LBE4636:
	.loc 8 139 0
	movl	$0, (%rax)	#, __z_500->D.71323._M_color
	movq	$0, 8(%rax)	#, __z_500->D.71323._M_parent
	movq	$0, 16(%rax)	#, __z_500->D.71323._M_left
	movq	$0, 24(%rax)	#, __z_500->D.71323._M_right
.LVL743:
.LBB4646:
.LBB4645:
	.loc 9 177 0
	movq	%rdx, 32(%rax)	# D.69910.elapsed, MEM[(struct result *)__z_500 + 32B].elapsed
.LVL744:
.LBB4638:
.LBB4639:
.LBB4640:
	.loc 10 269 0
	movq	168(%rsp), %rdx	# MEM[(const struct _Alloc_hider &)&D.69910 + 8]._M_p, MEM[(const struct _Alloc_hider &)&D.69910 + 8]._M_p
.LBE4640:
.LBE4639:
.LBB4642:
.LBB4643:
	.loc 10 294 0
	movq	$_ZNSs4_Rep20_S_empty_rep_storageE+24, 168(%rsp)	#, MEM[(struct basic_string *)&D.69910 + 8B]._M_dataplus._M_p
.LBE4643:
.LBE4642:
.LBB4644:
.LBB4641:
	.loc 10 269 0
	movq	%rdx, 40(%rax)	# MEM[(const struct _Alloc_hider &)&D.69910 + 8]._M_p, MEM[(struct _Alloc_hider *)__z_500 + 40B]._M_p
.LVL745:
.L395:
.LBE4641:
.LBE4644:
.LBE4638:
.LBE4645:
.LBE4646:
.LBE4635:
.LBE4634:
.LBE4633:
.LBE4632:
.LBE4628:
.LBE4627:
	.loc 8 981 0
	leaq	440(%rsp), %rcx	#, tmp532
	movq	%rbx, %rdx	# __y,
	movzbl	%bpl, %edi	# __insert_left, __insert_left
	movq	%rax, %rsi	# __z,
	call	_ZSt29_Rb_tree_insert_and_rebalancebPSt18_Rb_tree_node_baseS0_RS_	#
.LVL746:
.LBE4626:
.LBE4625:
.LBE4652:
.LBE4622:
.LBE4621:
.LBB4659:
.LBB4660:
.LBB4661:
	.loc 10 536 0
	movq	168(%rsp), %rbx	# MEM[(const struct basic_string *)&D.69910 + 8B]._M_dataplus._M_p, D.81337
.LBE4661:
.LBE4660:
.LBE4659:
.LBB4670:
.LBB4656:
.LBB4653:
.LBB4649:
.LBB4647:
	.loc 8 984 0
	addq	$1, 472(%rsp)	#, MEM[(struct _Rb_tree *)&results]._M_impl._M_node_count
.LVL747:
.LBE4647:
.LBE4649:
.LBE4653:
.LBE4656:
.LBE4670:
.LBB4671:
.LBB4668:
.LBB4666:
	.loc 10 536 0
	subq	$24, %rbx	#, D.81337
.LVL748:
.LBB4662:
.LBB4663:
	.loc 10 237 0
	cmpq	$_ZNSs4_Rep20_S_empty_rep_storageE, %rbx	#, D.81337
	jne	.L626	#,
.L396:
.LVL749:
.LBE4663:
.LBE4662:
.LBE4666:
.LBE4668:
.LBE4671:
.LBB4672:
.LBB4673:
	.loc 10 536 0
	movq	64(%rsp), %rbx	# D.69909._M_dataplus._M_p, D.81351
.LVL750:
	subq	$24, %rbx	#, D.81351
.LVL751:
.LBB4674:
.LBB4675:
	.loc 10 237 0
	cmpq	$_ZNSs4_Rep20_S_empty_rep_storageE, %rbx	#, D.81351
	jne	.L627	#,
.L397:
.LVL752:
.LBE4675:
.LBE4674:
.LBE4673:
.LBE4672:
	.loc 9 214 0
	leaq	30(%rsp), %rdx	#,
.LVL753:
	leaq	80(%rsp), %rdi	#,
	movl	$.LC25, %esi	#,
.LEHB24:
	call	_ZNSsC1EPKcRKSaIcE	#
.LEHE24:
.LVL754:
	.loc 9 214 0 is_stmt 0 discriminator 1
	leaq	240(%rsp), %rdi	#,
.LVL755:
.LEHB25:
	call	_ZN11Performance13InlinedMatrixERSt6vectorINS_4testESaIS1_EE	#
.LVL756:
.LBB4679:
.LBB4680:
	.loc 9 181 0 is_stmt 1 discriminator 1
	leaq	184(%rsp), %rdi	#, tmp545
	leaq	80(%rsp), %rsi	#,
.LVL757:
	movq	%rax, 176(%rsp)	# D.74670, D.69915.elapsed
	call	_ZNSsC1ERKSs	#
.LEHE25:
.LVL758:
.LBE4680:
.LBE4679:
.LBB4681:
.LBB4682:
	.loc 9 220 0
	movq	448(%rsp), %rbx	# MEM[(struct _Rb_tree *)&results + 16B], __y
.LVL759:
.LBB4683:
	.loc 8 1318 0
	testq	%rbx, %rbx	# __y
	je	.L467	#,
	movq	176(%rsp), %rcx	# MEM[(const struct result *)&D.69915], pretmp.1005
	jmp	.L401	#
.LVL760:
	.p2align 4,,10
	.p2align 3
.L629:
.LBE4683:
	.loc 9 220 0
	movq	16(%rbx), %rax	# MEM[(struct _Rb_tree_node_base *)__y_26 + 16B], __y
.LVL761:
.LBB4711:
	.loc 8 1318 0
	testq	%rax, %rax	# __y
	je	.L628	#,
.LVL762:
.L468:
	movq	%rax, %rbx	# __y, __y
.LVL763:
.L401:
.LBB4684:
	.loc 9 220 0
	movq	32(%rbx), %rdx	# MEM[(const struct result &)__y_26 + 32], D.81385
.LVL764:
.LBE4684:
	.loc 8 1321 0
	cmpq	%rcx, %rdx	# pretmp.1005, D.81385
	jg	.L629	#,
.LBE4711:
	.loc 9 220 0
	movq	24(%rbx), %rax	# MEM[(struct _Rb_tree_node_base *)__y_26 + 24B], __y
.LVL765:
.LBB4712:
	.loc 8 1318 0
	testq	%rax, %rax	# __y
	jne	.L468	#,
.LVL766:
.L628:
.LBB4685:
.LBB4686:
	.loc 8 977 0
	leaq	440(%rsp), %rax	#, tmp547
.LVL767:
	cmpq	%rax, %rbx	# tmp547, __y
	je	.L469	#,
.LVL768:
	cmpq	%rdx, %rcx	# D.81385, pretmp.1005
	setl	%bpl	#, __insert_left
.LVL769:
.L398:
.LBB4687:
.LBB4688:
.LBB4689:
.LBB4690:
.LBB4691:
	.loc 11 94 0
	movl	$48, %edi	#,
.LEHB26:
	call	_Znwm	#
.LEHE26:
.LVL770:
.LBE4691:
.LBE4690:
.LBE4689:
.LBB4692:
.LBB4693:
	.loc 11 110 0
	testq	%rax, %rax	# __z
	je	.L402	#,
.LVL771:
.LBB4694:
.LBB4695:
.LBB4696:
.LBB4697:
	.loc 9 177 0
	movq	176(%rsp), %rdx	# D.69915.elapsed, D.69915.elapsed
.LBE4697:
.LBE4696:
	.loc 8 139 0
	movl	$0, (%rax)	#, __z_542->D.71323._M_color
	movq	$0, 8(%rax)	#, __z_542->D.71323._M_parent
	movq	$0, 16(%rax)	#, __z_542->D.71323._M_left
	movq	$0, 24(%rax)	#, __z_542->D.71323._M_right
.LVL772:
.LBB4706:
.LBB4705:
	.loc 9 177 0
	movq	%rdx, 32(%rax)	# D.69915.elapsed, MEM[(struct result *)__z_542 + 32B].elapsed
.LVL773:
.LBB4698:
.LBB4699:
.LBB4700:
	.loc 10 269 0
	movq	184(%rsp), %rdx	# MEM[(const struct _Alloc_hider &)&D.69915 + 8]._M_p, MEM[(const struct _Alloc_hider &)&D.69915 + 8]._M_p
.LBE4700:
.LBE4699:
.LBB4702:
.LBB4703:
	.loc 10 294 0
	movq	$_ZNSs4_Rep20_S_empty_rep_storageE+24, 184(%rsp)	#, MEM[(struct basic_string *)&D.69915 + 8B]._M_dataplus._M_p
.LBE4703:
.LBE4702:
.LBB4704:
.LBB4701:
	.loc 10 269 0
	movq	%rdx, 40(%rax)	# MEM[(const struct _Alloc_hider &)&D.69915 + 8]._M_p, MEM[(struct _Alloc_hider *)__z_542 + 40B]._M_p
.LVL774:
.L402:
.LBE4701:
.LBE4704:
.LBE4698:
.LBE4705:
.LBE4706:
.LBE4695:
.LBE4694:
.LBE4693:
.LBE4692:
.LBE4688:
.LBE4687:
	.loc 8 981 0
	leaq	440(%rsp), %rcx	#, tmp552
	movq	%rbx, %rdx	# __y,
	movzbl	%bpl, %edi	# __insert_left, __insert_left
	movq	%rax, %rsi	# __z,
	call	_ZSt29_Rb_tree_insert_and_rebalancebPSt18_Rb_tree_node_baseS0_RS_	#
.LVL775:
.LBE4686:
.LBE4685:
.LBE4712:
.LBE4682:
.LBE4681:
.LBB4719:
.LBB4720:
.LBB4721:
	.loc 10 536 0
	movq	184(%rsp), %rbx	# MEM[(const struct basic_string *)&D.69915 + 8B]._M_dataplus._M_p, D.81435
.LBE4721:
.LBE4720:
.LBE4719:
.LBB4730:
.LBB4716:
.LBB4713:
.LBB4709:
.LBB4707:
	.loc 8 984 0
	addq	$1, 472(%rsp)	#, MEM[(struct _Rb_tree *)&results]._M_impl._M_node_count
.LVL776:
.LBE4707:
.LBE4709:
.LBE4713:
.LBE4716:
.LBE4730:
.LBB4731:
.LBB4728:
.LBB4726:
	.loc 10 536 0
	subq	$24, %rbx	#, D.81435
.LVL777:
.LBB4722:
.LBB4723:
	.loc 10 237 0
	cmpq	$_ZNSs4_Rep20_S_empty_rep_storageE, %rbx	#, D.81435
	jne	.L630	#,
.L403:
.LVL778:
.LBE4723:
.LBE4722:
.LBE4726:
.LBE4728:
.LBE4731:
.LBB4732:
.LBB4733:
	.loc 10 536 0
	movq	80(%rsp), %rbx	# D.69914._M_dataplus._M_p, D.81449
.LVL779:
	subq	$24, %rbx	#, D.81449
.LVL780:
.LBB4734:
.LBB4735:
	.loc 10 237 0
	cmpq	$_ZNSs4_Rep20_S_empty_rep_storageE, %rbx	#, D.81449
	jne	.L631	#,
.L404:
.LVL781:
.LBE4735:
.LBE4734:
.LBE4733:
.LBE4732:
	.loc 9 215 0
	leaq	30(%rsp), %rdx	#,
.LVL782:
	leaq	96(%rsp), %rdi	#,
	movl	$.LC26, %esi	#,
.LEHB27:
	call	_ZNSsC1EPKcRKSaIcE	#
.LEHE27:
.LVL783:
	.loc 9 215 0 is_stmt 0 discriminator 1
	leaq	240(%rsp), %rdi	#,
.LVL784:
.LEHB28:
	call	_ZN11Performance30InlinedWithoutLoopsOrRecursionERSt6vectorINS_4testESaIS1_EE	#
.LVL785:
.LBB4739:
.LBB4740:
	.loc 9 181 0 is_stmt 1 discriminator 1
	leaq	200(%rsp), %rdi	#, tmp565
	leaq	96(%rsp), %rsi	#,
.LVL786:
	movq	%rax, 192(%rsp)	# D.74671, D.69920.elapsed
	call	_ZNSsC1ERKSs	#
.LEHE28:
.LVL787:
.LBE4740:
.LBE4739:
.LBB4741:
.LBB4742:
	.loc 9 220 0
	movq	448(%rsp), %rbx	# MEM[(struct _Rb_tree *)&results + 16B], __y
.LVL788:
.LBB4743:
	.loc 8 1318 0
	testq	%rbx, %rbx	# __y
	je	.L470	#,
	movq	192(%rsp), %rcx	# MEM[(const struct result *)&D.69920], pretmp.1002
	jmp	.L408	#
.LVL789:
	.p2align 4,,10
	.p2align 3
.L633:
.LBE4743:
	.loc 9 220 0
	movq	16(%rbx), %rax	# MEM[(struct _Rb_tree_node_base *)__y_322 + 16B], __y
.LVL790:
.LBB4771:
	.loc 8 1318 0
	testq	%rax, %rax	# __y
	je	.L632	#,
.LVL791:
.L471:
	movq	%rax, %rbx	# __y, __y
.LVL792:
.L408:
.LBB4744:
	.loc 9 220 0
	movq	32(%rbx), %rdx	# MEM[(const struct result &)__y_322 + 32], D.81483
.LVL793:
.LBE4744:
	.loc 8 1321 0
	cmpq	%rdx, %rcx	# D.81483, pretmp.1002
	jl	.L633	#,
.LBE4771:
	.loc 9 220 0
	movq	24(%rbx), %rax	# MEM[(struct _Rb_tree_node_base *)__y_322 + 24B], __y
.LVL794:
.LBB4772:
	.loc 8 1318 0
	testq	%rax, %rax	# __y
	jne	.L471	#,
.LVL795:
.L632:
.LBB4745:
.LBB4746:
	.loc 8 977 0
	leaq	440(%rsp), %rax	#, tmp567
.LVL796:
	cmpq	%rax, %rbx	# tmp567, __y
	je	.L472	#,
.LVL797:
	cmpq	%rdx, %rcx	# D.81483, pretmp.1002
	setl	%bpl	#, __insert_left
.LVL798:
.L405:
.LBB4747:
.LBB4748:
.LBB4749:
.LBB4750:
.LBB4751:
	.loc 11 94 0
	movl	$48, %edi	#,
.LEHB29:
	call	_Znwm	#
.LEHE29:
.LVL799:
.LBE4751:
.LBE4750:
.LBE4749:
.LBB4752:
.LBB4753:
	.loc 11 110 0
	testq	%rax, %rax	# __z
	je	.L409	#,
.LVL800:
.LBB4754:
.LBB4755:
.LBB4756:
.LBB4757:
	.loc 9 177 0
	movq	192(%rsp), %rdx	# D.69920.elapsed, D.69920.elapsed
.LBE4757:
.LBE4756:
	.loc 8 139 0
	movl	$0, (%rax)	#, __z_584->D.71323._M_color
	movq	$0, 8(%rax)	#, __z_584->D.71323._M_parent
	movq	$0, 16(%rax)	#, __z_584->D.71323._M_left
	movq	$0, 24(%rax)	#, __z_584->D.71323._M_right
.LVL801:
.LBB4766:
.LBB4765:
	.loc 9 177 0
	movq	%rdx, 32(%rax)	# D.69920.elapsed, MEM[(struct result *)__z_584 + 32B].elapsed
.LVL802:
.LBB4758:
.LBB4759:
.LBB4760:
	.loc 10 269 0
	movq	200(%rsp), %rdx	# MEM[(const struct _Alloc_hider &)&D.69920 + 8]._M_p, MEM[(const struct _Alloc_hider &)&D.69920 + 8]._M_p
.LBE4760:
.LBE4759:
.LBB4762:
.LBB4763:
	.loc 10 294 0
	movq	$_ZNSs4_Rep20_S_empty_rep_storageE+24, 200(%rsp)	#, MEM[(struct basic_string *)&D.69920 + 8B]._M_dataplus._M_p
.LBE4763:
.LBE4762:
.LBB4764:
.LBB4761:
	.loc 10 269 0
	movq	%rdx, 40(%rax)	# MEM[(const struct _Alloc_hider &)&D.69920 + 8]._M_p, MEM[(struct _Alloc_hider *)__z_584 + 40B]._M_p
.LVL803:
.L409:
.LBE4761:
.LBE4764:
.LBE4758:
.LBE4765:
.LBE4766:
.LBE4755:
.LBE4754:
.LBE4753:
.LBE4752:
.LBE4748:
.LBE4747:
	.loc 8 981 0
	leaq	440(%rsp), %rcx	#, tmp572
	movq	%rbx, %rdx	# __y,
	movzbl	%bpl, %edi	# __insert_left, __insert_left
	movq	%rax, %rsi	# __z,
	call	_ZSt29_Rb_tree_insert_and_rebalancebPSt18_Rb_tree_node_baseS0_RS_	#
.LVL804:
.LBE4746:
.LBE4745:
.LBE4772:
.LBE4742:
.LBE4741:
.LBB4779:
.LBB4780:
.LBB4781:
	.loc 10 536 0
	movq	200(%rsp), %rbx	# MEM[(const struct basic_string *)&D.69920 + 8B]._M_dataplus._M_p, D.81533
.LBE4781:
.LBE4780:
.LBE4779:
.LBB4790:
.LBB4776:
.LBB4773:
.LBB4769:
.LBB4767:
	.loc 8 984 0
	addq	$1, 472(%rsp)	#, MEM[(struct _Rb_tree *)&results]._M_impl._M_node_count
.LVL805:
.LBE4767:
.LBE4769:
.LBE4773:
.LBE4776:
.LBE4790:
.LBB4791:
.LBB4788:
.LBB4786:
	.loc 10 536 0
	subq	$24, %rbx	#, D.81533
.LVL806:
.LBB4782:
.LBB4783:
	.loc 10 237 0
	cmpq	$_ZNSs4_Rep20_S_empty_rep_storageE, %rbx	#, D.81533
	jne	.L634	#,
.L410:
.LVL807:
.LBE4783:
.LBE4782:
.LBE4786:
.LBE4788:
.LBE4791:
.LBB4792:
.LBB4793:
	.loc 10 536 0
	movq	96(%rsp), %rbx	# D.69919._M_dataplus._M_p, D.81547
.LVL808:
	subq	$24, %rbx	#, D.81547
.LVL809:
.LBB4794:
.LBB4795:
	.loc 10 237 0
	cmpq	$_ZNSs4_Rep20_S_empty_rep_storageE, %rbx	#, D.81547
	jne	.L635	#,
.L411:
.LVL810:
.LBE4795:
.LBE4794:
.LBE4793:
.LBE4792:
	.loc 9 216 0
	leaq	30(%rsp), %rdx	#,
.LVL811:
	leaq	112(%rsp), %rdi	#,
.LVL812:
	movl	$.LC27, %esi	#,
.LEHB30:
	call	_ZNSsC1EPKcRKSaIcE	#
.LEHE30:
.LVL813:
	.loc 9 216 0 is_stmt 0 discriminator 1
	leaq	240(%rsp), %rdi	#,
.LVL814:
.LEHB31:
	call	_ZN11Performance16InlinedRecursionERSt6vectorINS_4testESaIS1_EE	#
.LVL815:
.LBB4799:
.LBB4800:
	.loc 9 181 0 is_stmt 1 discriminator 1
	leaq	216(%rsp), %rdi	#, tmp585
	leaq	112(%rsp), %rsi	#,
.LVL816:
	movq	%rax, 208(%rsp)	# D.74672, D.69925.elapsed
	call	_ZNSsC1ERKSs	#
.LEHE31:
.LVL817:
.LBE4800:
.LBE4799:
.LBB4801:
.LBB4802:
	.loc 9 220 0
	movq	448(%rsp), %rbx	# MEM[(struct _Rb_tree *)&results + 16B], __y
.LVL818:
.LBB4803:
	.loc 8 1318 0
	testq	%rbx, %rbx	# __y
	je	.L473	#,
	movq	208(%rsp), %rcx	# MEM[(const struct result *)&D.69925], pretmp.998
	jmp	.L415	#
.LVL819:
	.p2align 4,,10
	.p2align 3
.L637:
.LBE4803:
	.loc 9 220 0
	movq	16(%rbx), %rax	# MEM[(struct _Rb_tree_node_base *)__y_664 + 16B], __y
.LVL820:
.LBB4829:
	.loc 8 1318 0
	testq	%rax, %rax	# __y
	je	.L636	#,
.LVL821:
.L474:
	movq	%rax, %rbx	# __y, __y
.LVL822:
.L415:
.LBB4804:
	.loc 9 220 0
	movq	32(%rbx), %rdx	# MEM[(const struct result &)__y_664 + 32], D.81581
.LVL823:
.LBE4804:
	.loc 8 1321 0
	cmpq	%rcx, %rdx	# pretmp.998, D.81581
	jg	.L637	#,
.LBE4829:
	.loc 9 220 0
	movq	24(%rbx), %rax	# MEM[(struct _Rb_tree_node_base *)__y_664 + 24B], __y
.LVL824:
.LBB4830:
	.loc 8 1318 0
	testq	%rax, %rax	# __y
	jne	.L474	#,
.LVL825:
.L636:
.LBB4805:
.LBB4806:
	.loc 8 977 0
	leaq	440(%rsp), %rax	#, tmp587
.LVL826:
	cmpq	%rax, %rbx	# tmp587, __y
	je	.L475	#,
.LVL827:
	cmpq	%rdx, %rcx	# D.81581, pretmp.998
	setl	%bpl	#, __insert_left
.LVL828:
.L412:
.LBB4807:
.LBB4808:
.LBB4809:
.LBB4810:
.LBB4811:
	.loc 11 94 0
	movl	$48, %edi	#,
.LEHB32:
	call	_Znwm	#
.LEHE32:
.LVL829:
.LBE4811:
.LBE4810:
.LBE4809:
.LBB4812:
.LBB4813:
	.loc 11 110 0
	testq	%rax, %rax	# __z
	je	.L416	#,
.LVL830:
.LBB4814:
.LBB4815:
.LBB4816:
.LBB4817:
	.loc 9 177 0
	movq	208(%rsp), %rdx	# D.69925.elapsed, D.69925.elapsed
.LBE4817:
.LBE4816:
	.loc 8 139 0
	movq	$0, 8(%rax)	#, __z_626->D.71323._M_parent
	movq	$0, 16(%rax)	#, __z_626->D.71323._M_left
	movq	$0, 24(%rax)	#, __z_626->D.71323._M_right
.LVL831:
	movl	$0, (%rax)	#, __z_626->D.71323._M_color
.LBB4824:
.LBB4823:
	.loc 9 177 0
	movq	%rdx, 32(%rax)	# D.69925.elapsed, MEM[(struct result *)__z_626 + 32B].elapsed
.LVL832:
.LBB4818:
.LBB4819:
.LBB4820:
	.loc 10 269 0
	movq	216(%rsp), %rdx	# MEM[(const struct _Alloc_hider &)&D.69925 + 8]._M_p, MEM[(const struct _Alloc_hider &)&D.69925 + 8]._M_p
	movq	%rdx, 40(%rax)	# MEM[(const struct _Alloc_hider &)&D.69925 + 8]._M_p, MEM[(struct _Alloc_hider *)__z_626 + 40B]._M_p
.LVL833:
.LBE4820:
.LBE4819:
.LBB4821:
.LBB4822:
	.loc 10 294 0
	movq	$_ZNSs4_Rep20_S_empty_rep_storageE+24, 216(%rsp)	#, MEM[(struct basic_string *)&D.69925 + 8B]._M_dataplus._M_p
.LVL834:
.L416:
.LBE4822:
.LBE4821:
.LBE4818:
.LBE4823:
.LBE4824:
.LBE4815:
.LBE4814:
.LBE4813:
.LBE4812:
.LBE4808:
.LBE4807:
	.loc 8 981 0
	leaq	440(%rsp), %rcx	#, tmp592
	movq	%rbx, %rdx	# __y,
	movzbl	%bpl, %edi	# __insert_left, __insert_left
	movq	%rax, %rsi	# __z,
	call	_ZSt29_Rb_tree_insert_and_rebalancebPSt18_Rb_tree_node_baseS0_RS_	#
.LVL835:
.LBE4806:
.LBE4805:
.LBE4830:
.LBE4802:
.LBE4801:
.LBB4837:
.LBB4838:
.LBB4839:
	.loc 10 536 0
	movq	216(%rsp), %rbx	# MEM[(const struct basic_string *)&D.69925 + 8B]._M_dataplus._M_p, D.81631
.LBE4839:
.LBE4838:
.LBE4837:
.LBB4848:
.LBB4834:
.LBB4831:
.LBB4827:
.LBB4825:
	.loc 8 984 0
	addq	$1, 472(%rsp)	#, MEM[(struct _Rb_tree *)&results]._M_impl._M_node_count
.LVL836:
.LBE4825:
.LBE4827:
.LBE4831:
.LBE4834:
.LBE4848:
.LBB4849:
.LBB4846:
.LBB4844:
	.loc 10 536 0
	subq	$24, %rbx	#, D.81631
.LVL837:
.LBB4840:
.LBB4841:
	.loc 10 237 0
	cmpq	$_ZNSs4_Rep20_S_empty_rep_storageE, %rbx	#, D.81631
	jne	.L638	#,
.L417:
.LVL838:
.LBE4841:
.LBE4840:
.LBE4844:
.LBE4846:
.LBE4849:
.LBB4850:
.LBB4851:
	.loc 10 536 0
	movq	112(%rsp), %rbx	# D.69924._M_dataplus._M_p, D.81645
.LVL839:
	subq	$24, %rbx	#, D.81645
.LVL840:
.LBB4852:
.LBB4853:
	.loc 10 237 0
	cmpq	$_ZNSs4_Rep20_S_empty_rep_storageE, %rbx	#, D.81645
	jne	.L639	#,
.L418:
.LVL841:
.LBE4853:
.LBE4852:
.LBE4851:
.LBE4850:
.LBB4857:
.LBB4858:
.LBB4859:
.LBB4860:
.LBB4861:
.LBB4862:
.LBB4863:
	.loc 10 290 0
	movq	_ZL5Reset(%rip), %rsi	# Reset._M_dataplus._M_p, D.81661
.LVL842:
.LBE4863:
.LBE4862:
.LBE4861:
.LBE4860:
.LBE4859:
	.loc 10 2755 0
	movl	$_ZSt4cout, %edi	#,
	movq	-24(%rsi), %rdx	# MEM[(struct _Rep *)D.81661_642 + -24B].D.19289._M_length, MEM[(struct _Rep *)D.81661_642 + -24B].D.19289._M_length
.LEHB33:
	call	_ZSt16__ostream_insertIcSt11char_traitsIcEERSt13basic_ostreamIT_T0_ES6_PKS3_l	#
.LEHE33:
.LVL843:
.LBE4858:
.LBE4857:
.LBB4864:
.LBB4865:
	.loc 9 220 0
	movq	456(%rsp), %rbx	# MEM[(const struct _Rb_tree *)&results + 24B], SR.944
.LVL844:
.LBE4865:
	.loc 9 219 0
	leaq	440(%rsp), %r14	#, tmp603
.LVL845:
	cmpq	%r14, %rbx	# tmp603, SR.944
	je	.L419	#,
.LBB4866:
.LBB4867:
	.loc 9 177 0
	leaq	216(%rsp), %r12	#, tmp728
.LVL846:
	jmp	.L564	#
.LVL847:
	.p2align 4,,10
	.p2align 3
.L642:
.LBE4867:
.LBE4866:
.LBB4869:
.LBB4870:
.LBB4871:
.LBB4872:
.LBB4873:
.LBB4874:
.LBB4875:
.LBB4876:
	.loc 17 870 0
	movzbl	67(%r15), %eax	# MEM[(const struct ctype *)D.81751_684]._M_widen, D.81756
.LVL848:
.L422:
.LBE4876:
.LBE4875:
.LBE4874:
	.loc 2 563 0
	movsbl	%al, %esi	# D.81756, D.81756
	movq	%rbp, %rdi	# D.81724,
.LEHB34:
	call	_ZNSo3putEc	#
.LVL849:
.LBB4883:
.LBB4884:
	.loc 2 585 0
	movq	%rax, %rdi	# D.81736,
	call	_ZNSo5flushEv	#
.LEHE34:
.LVL850:
.LBE4884:
.LBE4883:
.LBE4873:
.LBE4872:
.LBE4871:
.LBE4870:
.LBE4869:
.LBB4944:
.LBB4945:
.LBB4946:
	.loc 10 536 0
	movq	216(%rsp), %rbp	# MEM[(const struct basic_string *)&result + 8B]._M_dataplus._M_p, D.81769
.LVL851:
	subq	$24, %rbp	#, D.81769
.LVL852:
.LBB4947:
.LBB4948:
	.loc 10 237 0
	cmpq	$_ZNSs4_Rep20_S_empty_rep_storageE, %rbp	#, D.81769
	jne	.L640	#,
.L423:
.LVL853:
.LBE4948:
.LBE4947:
.LBE4946:
.LBE4945:
.LBE4944:
.LBB4953:
.LBB4954:
	.loc 8 269 0
	movq	%rbx, %rdi	# SR.944,
	call	_ZSt18_Rb_tree_incrementPKSt18_Rb_tree_node_base	#
.LVL854:
.LBE4954:
.LBE4953:
	.loc 9 219 0
	cmpq	%r14, %rax	# tmp729, SR.944
.LBB4956:
.LBB4955:
	.loc 8 269 0
	movq	%rax, %rbx	#, SR.944
.LVL855:
.LBE4955:
.LBE4956:
	.loc 9 219 0
	je	.L419	#,
.LVL856:
.L564:
.LBB4957:
.LBB4868:
	.loc 9 177 0
	movq	32(%rbx), %rax	# MEM[(const struct result &)SR.944_504 + 32].elapsed, MEM[(const struct result &)SR.944_504 + 32].elapsed
	leaq	40(%rbx), %rsi	#, tmp606
	movq	%r12, %rdi	# tmp728,
	movq	%rax, 208(%rsp)	# MEM[(const struct result &)SR.944_504 + 32].elapsed, result.elapsed
.LEHB35:
	call	_ZNSsC1ERKSs	#
.LEHE35:
.LVL857:
.LBE4868:
.LBE4957:
.LBB4958:
.LBB4942:
.LBB4892:
.LBB4893:
	.loc 19 239 0
	movq	_ZSt4cout(%rip), %rax	# cout._vptr.basic_ostream, cout._vptr.basic_ostream
.LBE4893:
.LBE4892:
.LBB4897:
.LBB4898:
.LBB4899:
.LBB4900:
.LBB4901:
.LBB4902:
.LBB4903:
	.loc 10 290 0
	movq	216(%rsp), %rsi	# MEM[(const struct basic_string *)&result + 8B]._M_dataplus._M_p, D.81700
.LBE4903:
.LBE4902:
.LBE4901:
.LBE4900:
.LBE4899:
	.loc 10 2755 0
	movl	$_ZSt4cout, %edi	#,
.LBE4898:
.LBE4897:
	.loc 9 186 0
	movq	208(%rsp), %r15	# result.elapsed, D.81694
.LVL858:
.LBB4906:
.LBB4896:
.LBB4894:
.LBB4895:
	.loc 3 658 0
	movq	-24(%rax), %rax	# MEM[(long int *)D.81683_651 + -24B], MEM[(long int *)D.81683_651 + -24B]
.LVL859:
	movq	$60, _ZSt4cout+16(%rax)	#, MEM[(streamsize *)D.81686_654 + 16B]
.LVL860:
.LBE4895:
.LBE4894:
.LBE4896:
.LBE4906:
.LBB4907:
.LBB4904:
	.loc 10 2755 0
	movq	-24(%rsi), %rdx	# MEM[(struct _Rep *)D.81700_666 + -24B].D.19289._M_length, MEM[(struct _Rep *)D.81700_666 + -24B].D.19289._M_length
.LEHB36:
	call	_ZSt16__ostream_insertIcSt11char_traitsIcEERSt13basic_ostreamIT_T0_ES6_PKS3_l	#
.LVL861:
.LBE4904:
.LBE4907:
.LBB4908:
.LBB4909:
	.loc 2 533 0
	movl	$2, %edx	#,
	movl	$.LC28, %esi	#,
	movq	%rax, %rdi	# D.81703,
.LBE4909:
.LBE4908:
.LBB4911:
.LBB4905:
	.loc 10 2755 0
	movq	%rax, %rbp	#, D.81703
.LVL862:
.LBE4905:
.LBE4911:
.LBB4912:
.LBB4910:
	.loc 2 533 0
	call	_ZSt16__ostream_insertIcSt11char_traitsIcEERSt13basic_ostreamIT_T0_ES6_PKS3_l	#
.LVL863:
.LBE4910:
.LBE4912:
	.loc 9 186 0
	movl	$250000, %esi	#,
	movq	%rbp, %rdi	# D.81703,
	call	_ZNSolsEi	#
.LVL864:
.LBB4913:
.LBB4914:
	.loc 2 533 0
	movl	$17, %edx	#,
	movl	$.LC29, %esi	#,
	movq	%rax, %rdi	# D.81690,
.LBE4914:
.LBE4913:
	.loc 9 186 0
	movq	%rax, %rbp	#, D.81690
.LVL865:
.LBB4916:
.LBB4915:
	.loc 2 533 0
	call	_ZSt16__ostream_insertIcSt11char_traitsIcEERSt13basic_ostreamIT_T0_ES6_PKS3_l	#
.LVL866:
.LBE4915:
.LBE4916:
.LBB4917:
.LBB4918:
	.loc 19 239 0
	movq	0(%rbp), %rax	# D.81690_657->_vptr.basic_ostream, D.81690_657->_vptr.basic_ostream
.LBE4918:
.LBE4917:
.LBB4922:
.LBB4923:
	.loc 2 200 0
	movq	%r15, %rsi	# D.81694,
	movq	%rbp, %rdi	# D.81690,
.LBE4923:
.LBE4922:
.LBB4925:
.LBB4921:
.LBB4919:
.LBB4920:
	.loc 3 658 0
	movq	-24(%rax), %rax	# MEM[(long int *)D.81679_659 + -24B], MEM[(long int *)D.81679_659 + -24B]
	movq	$10, 16(%rbp,%rax)	#, MEM[(streamsize *)D.81682_662 + 16B]
.LVL867:
.LBE4920:
.LBE4919:
.LBE4921:
.LBE4925:
.LBB4926:
.LBB4924:
	.loc 2 200 0
	call	_ZNSo9_M_insertIxEERSoT_	#
.LVL868:
.LBE4924:
.LBE4926:
.LBB4927:
.LBB4928:
.LBB4929:
.LBB4930:
.LBB4931:
.LBB4932:
.LBB4933:
	.loc 10 290 0
	movq	_ZL5Reset(%rip), %rsi	# Reset._M_dataplus._M_p, D.81721
.LVL869:
.LBE4933:
.LBE4932:
.LBE4931:
.LBE4930:
.LBE4929:
	.loc 10 2755 0
	movq	%rax, %rdi	# D.81678,
	movq	-24(%rsi), %rdx	# MEM[(struct _Rep *)D.81721_674 + -24B].D.19289._M_length, MEM[(struct _Rep *)D.81721_674 + -24B].D.19289._M_length
	call	_ZSt16__ostream_insertIcSt11char_traitsIcEERSt13basic_ostreamIT_T0_ES6_PKS3_l	#
.LVL870:
.LBE4928:
.LBE4927:
.LBB4935:
.LBB4936:
	.loc 2 533 0
	movl	$13, %edx	#,
	movl	$.LC30, %esi	#,
	movq	%rax, %rdi	# D.81724,
.LBE4936:
.LBE4935:
.LBB4938:
.LBB4934:
	.loc 10 2755 0
	movq	%rax, %rbp	#, D.81724
.LVL871:
.LBE4934:
.LBE4938:
.LBB4939:
.LBB4937:
	.loc 2 533 0
	call	_ZSt16__ostream_insertIcSt11char_traitsIcEERSt13basic_ostreamIT_T0_ES6_PKS3_l	#
.LVL872:
.LBE4937:
.LBE4939:
.LBB4940:
.LBB4890:
.LBB4887:
	.loc 2 563 0
	movq	0(%rbp), %rax	# D.81724_677->_vptr.basic_ostream, D.81724_677->_vptr.basic_ostream
.LBE4887:
	.loc 9 220 0
	movq	-24(%rax), %rax	# MEM[(long int *)D.81742_680 + -24B], MEM[(long int *)D.81742_680 + -24B]
	movq	240(%rbp,%rax), %r15	# MEM[(const struct basic_ios *)D.81739_683 + 240B], D.81751
.LVL873:
.LBB4888:
.LBB4885:
.LBB4878:
.LBB4879:
	.loc 4 50 0
	testq	%r15, %r15	# D.81751
	je	.L641	#,
.LVL874:
.LBE4879:
.LBE4878:
.LBB4881:
.LBB4877:
	.loc 17 869 0
	cmpb	$0, 56(%r15)	#, MEM[(const struct ctype *)D.81751_684]._M_widen_ok
	jne	.L642	#,
	.loc 17 871 0
	movq	%r15, %rdi	# D.81751,
	call	_ZNKSt5ctypeIcE13_M_widen_initEv	#
.LVL875:
	.loc 17 872 0
	movq	(%r15), %rax	# MEM[(const struct ctype *)D.81751_684].D.22576._vptr.facet, MEM[(const struct ctype *)D.81751_684].D.22576._vptr.facet
	movl	$10, %esi	#,
	movq	%r15, %rdi	# D.81751,
	call	*48(%rax)	# MEM[(int (*__vtbl_ptr_type) () *)D.81759_697 + 48B]
.LEHE36:
.LVL876:
	jmp	.L422	#
.LVL877:
.L458:
.LBE4877:
.LBE4881:
.LBE4885:
.LBE4888:
.LBE4890:
.LBE4940:
.LBE4942:
.LBE4958:
.LBE4864:
.LBB4961:
.LBB4552:
.LBB4548:
.LBB4540:
.LBB4511:
.LBB4508:
	.loc 8 1317 0
	leaq	440(%rsp), %rbx	#, __y
.LVL878:
	.loc 8 977 0
	movl	$1, %ebp	#, __insert_left
.LVL879:
	jmp	.L374	#
.LVL880:
.L419:
.LBE4508:
.LBE4511:
.LBE4540:
.LBE4548:
.LBE4552:
.LBE4961:
.LBB4962:
.LBB4963:
.LBB4964:
	.loc 18 161 0 discriminator 3
	movq	304(%rsp), %rdi	# MEM[(struct _Vector_base *)&randomOrder]._M_impl._M_start, D.81799
.LVL881:
.LBB4965:
.LBB4966:
	.loc 18 174 0 discriminator 3
	testq	%rdi, %rdi	# D.81799
	je	.L425	#,
.LVL882:
.LBB4967:
.LBB4968:
	.loc 11 100 0
	call	_ZdlPv	#
.LVL883:
.L425:
.LBE4968:
.LBE4967:
.LBE4966:
.LBE4965:
.LBE4964:
.LBE4963:
.LBE4962:
.LBB4969:
.LBB4970:
.LBB4971:
	.loc 8 646 0
	movq	448(%rsp), %rsi	# MEM[(struct _Rb_tree *)&results + 16B],
	leaq	432(%rsp), %rdi	#,
.LVL884:
	call	_ZNSt8_Rb_treeIZN11Performance7CompareEvE6resultS1_St9_IdentityIS1_ESt4lessIS1_ESaIS1_EE8_M_eraseEPSt13_Rb_tree_nodeIS1_E	#
.LVL885:
.LBE4971:
.LBE4970:
.LBE4969:
.LBB4972:
.LBB4973:
	.loc 10 536 0
	movq	416(%rsp), %rbx	# MEM[(const struct basic_string *)&names + 32B]._M_dataplus._M_p, D.81817
.LVL886:
	subq	$24, %rbx	#, D.81817
.LVL887:
.LBB4974:
.LBB4975:
	.loc 10 237 0
	cmpq	$_ZNSs4_Rep20_S_empty_rep_storageE, %rbx	#, D.81817
	jne	.L643	#,
.L426:
.LVL888:
.LBE4975:
.LBE4974:
	.loc 10 536 0
	movq	408(%rsp), %rbx	# MEM[(const struct basic_string *)&names + 24B]._M_dataplus._M_p, D.81817
.LVL889:
	subq	$24, %rbx	#, D.81817
.LVL890:
.LBB4982:
.LBB4976:
	.loc 10 237 0
	cmpq	$_ZNSs4_Rep20_S_empty_rep_storageE, %rbx	#, D.81817
	jne	.L644	#,
.L427:
.LVL891:
.LBE4976:
.LBE4982:
	.loc 10 536 0
	movq	400(%rsp), %rbx	# MEM[(const struct basic_string *)&names + 16B]._M_dataplus._M_p, D.81817
.LVL892:
	subq	$24, %rbx	#, D.81817
.LVL893:
.LBB4983:
.LBB4977:
	.loc 10 237 0
	cmpq	$_ZNSs4_Rep20_S_empty_rep_storageE, %rbx	#, D.81817
	jne	.L645	#,
.L428:
.LVL894:
.LBE4977:
.LBE4983:
	.loc 10 536 0
	movq	392(%rsp), %rbx	# MEM[(const struct basic_string *)&names + 8B]._M_dataplus._M_p, D.81817
.LVL895:
	subq	$24, %rbx	#, D.81817
.LVL896:
.LBB4984:
.LBB4978:
	.loc 10 237 0
	cmpq	$_ZNSs4_Rep20_S_empty_rep_storageE, %rbx	#, D.81817
	jne	.L646	#,
.L429:
.LVL897:
.LBE4978:
.LBE4984:
	.loc 10 536 0
	movq	384(%rsp), %rbx	# MEM[(const struct basic_string *)&names]._M_dataplus._M_p, D.81817
.LVL898:
	subq	$24, %rbx	#, D.81817
.LVL899:
.LBB4985:
.LBB4979:
	.loc 10 237 0
	cmpq	$_ZNSs4_Rep20_S_empty_rep_storageE, %rbx	#, D.81817
	jne	.L647	#,
.L430:
.LVL900:
.LBE4979:
.LBE4985:
.LBE4973:
.LBE4972:
.LBB4990:
.LBB4991:
.LBB4992:
	.loc 18 161 0
	movq	272(%rsp), %rdi	# MEM[(struct _Vector_base *)&histogram]._M_impl._M_start, D.81842
.LVL901:
.LBB4993:
.LBB4994:
	.loc 18 174 0
	testq	%rdi, %rdi	# D.81842
	je	.L431	#,
.LVL902:
.LBB4995:
.LBB4996:
	.loc 11 100 0
	call	_ZdlPv	#
.LVL903:
.L431:
.LBE4996:
.LBE4995:
.LBE4994:
.LBE4993:
.LBE4992:
.LBE4991:
.LBE4990:
.LBB4997:
.LBB4998:
.LBB4999:
	.loc 18 161 0
	movq	240(%rsp), %rdi	# MEM[(struct _Vector_base *)&tests]._M_impl._M_start, D.81866
.LVL904:
.LBB5000:
.LBB5001:
	.loc 18 174 0
	testq	%rdi, %rdi	# D.81866
	je	.L351	#,
.LVL905:
.LBB5002:
.LBB5003:
	.loc 11 100 0
	call	_ZdlPv	#
.LVL906:
.L351:
.LBE5003:
.LBE5002:
.LBE5001:
.LBE5000:
.LBE4999:
.LBE4998:
.LBE4997:
.LBE5050:
	.loc 9 220 0
	addq	$488, %rsp	#,
	.cfi_remember_state
	.cfi_def_cfa_offset 56
	popq	%rbx	#
	.cfi_def_cfa_offset 48
.LVL907:
	popq	%rbp	#
	.cfi_def_cfa_offset 40
	popq	%r12	#
	.cfi_def_cfa_offset 32
	popq	%r13	#
	.cfi_def_cfa_offset 24
.LVL908:
	popq	%r14	#
	.cfi_def_cfa_offset 16
.LVL909:
	popq	%r15	#
	.cfi_def_cfa_offset 8
	ret
.LVL910:
.L369:
	.cfi_restore_state
.LBB5051:
.LBB5004:
.LBB4435:
.LBB4433:
.LBB4430:
.LBB4426:
.LBB4425:
	.loc 17 871 0
	movq	%rbx, %rdi	# D.81001,
.LEHB37:
	call	_ZNKSt5ctypeIcE13_M_widen_initEv	#
.LVL911:
	.loc 17 872 0
	movq	(%rbx), %rax	# MEM[(const struct ctype *)D.81001_354].D.22576._vptr.facet, MEM[(const struct ctype *)D.81001_354].D.22576._vptr.facet
	movl	$10, %esi	#,
	movq	%rbx, %rdi	# D.81001,
	call	*48(%rax)	# MEM[(int (*__vtbl_ptr_type) () *)D.81009_367 + 48B]
.LEHE37:
.LVL912:
	jmp	.L370	#
.LVL913:
.L460:
.LBE4425:
.LBE4426:
.LBE4430:
.LBE4433:
.LBE4435:
.LBE5004:
.LBB5005:
.LBB4553:
.LBB4549:
.LBB4541:
.LBB4512:
.LBB4509:
.LBB4504:
.LBB4502:
	.loc 8 977 0
	movl	$1, %ebp	#, __insert_left
.LVL914:
	jmp	.L374	#
.LVL915:
.L473:
.LBE4502:
.LBE4504:
.LBE4509:
.LBE4512:
.LBE4541:
.LBE4549:
.LBE4553:
.LBE5005:
.LBB5006:
.LBB4835:
.LBB4832:
	.loc 8 1317 0
	leaq	440(%rsp), %rbx	#, __y
.LVL916:
	.loc 8 977 0
	movl	$1, %ebp	#, __insert_left
.LVL917:
	jmp	.L412	#
.LVL918:
.L467:
.LBE4832:
.LBE4835:
.LBE5006:
.LBB5007:
.LBB4717:
.LBB4714:
	.loc 8 1317 0
	leaq	440(%rsp), %rbx	#, __y
.LVL919:
	.loc 8 977 0
	movl	$1, %ebp	#, __insert_left
.LVL920:
	jmp	.L398	#
.LVL921:
.L470:
.LBE4714:
.LBE4717:
.LBE5007:
.LBB5008:
.LBB4777:
.LBB4774:
	.loc 8 1317 0
	leaq	440(%rsp), %rbx	#, __y
.LVL922:
	.loc 8 977 0
	movl	$1, %ebp	#, __insert_left
.LVL923:
	jmp	.L405	#
.LVL924:
.L461:
.LBE4774:
.LBE4777:
.LBE5008:
.LBB5009:
.LBB4597:
.LBB4594:
	.loc 8 1317 0
	leaq	440(%rsp), %rbx	#, __y
.LVL925:
	.loc 8 977 0
	movl	$1, %ebp	#, __insert_left
.LVL926:
	jmp	.L384	#
.LVL927:
.L464:
.LBE4594:
.LBE4597:
.LBE5009:
.LBB5010:
.LBB4657:
.LBB4654:
	.loc 8 1317 0
	leaq	440(%rsp), %rbx	#, __y
.LVL928:
	.loc 8 977 0
	movl	$1, %ebp	#, __insert_left
.LVL929:
	jmp	.L391	#
.LVL930:
.L472:
.LBE4654:
.LBE4657:
.LBE5010:
.LBB5011:
.LBB4778:
.LBB4775:
.LBB4770:
.LBB4768:
	movl	$1, %ebp	#, __insert_left
.LVL931:
	jmp	.L405	#
.LVL932:
.L466:
.LBE4768:
.LBE4770:
.LBE4775:
.LBE4778:
.LBE5011:
.LBB5012:
.LBB4658:
.LBB4655:
.LBB4650:
.LBB4648:
	movl	$1, %ebp	#, __insert_left
.LVL933:
	jmp	.L391	#
.LVL934:
.L469:
.LBE4648:
.LBE4650:
.LBE4655:
.LBE4658:
.LBE5012:
.LBB5013:
.LBB4718:
.LBB4715:
.LBB4710:
.LBB4708:
	movl	$1, %ebp	#, __insert_left
.LVL935:
	jmp	.L398	#
.LVL936:
.L475:
.LBE4708:
.LBE4710:
.LBE4715:
.LBE4718:
.LBE5013:
.LBB5014:
.LBB4836:
.LBB4833:
.LBB4828:
.LBB4826:
	movl	$1, %ebp	#, __insert_left
.LVL937:
	jmp	.L412	#
.LVL938:
.L463:
.LBE4826:
.LBE4828:
.LBE4833:
.LBE4836:
.LBE5014:
.LBB5015:
.LBB4598:
.LBB4595:
.LBB4590:
.LBB4588:
	movl	$1, %ebp	#, __insert_left
.LVL939:
	jmp	.L384	#
.LVL940:
.L484:
.LBE4588:
.LBE4590:
.LBE4595:
.LBE4598:
.LBE5015:
	.loc 9 212 0
	leaq	144(%rsp), %rdi	#,
.LVL941:
	movq	%rax, %rbx	#, tmp663
	call	_ZZN11Performance7CompareEvEN6resultD1Ev	#
.LVL942:
.L442:
	leaq	48(%rsp), %rdi	#,
	call	_ZNSsD1Ev	#
.LVL943:
.L440:
	.loc 9 219 0
	leaq	304(%rsp), %rdi	#,
.LVL944:
	call	_ZNSt6vectorIiSaIiEED1Ev	#
.LVL945:
.L452:
.LBB5016:
.LBB5017:
.LBB5018:
	.loc 8 646 0
	movq	448(%rsp), %rsi	# MEM[(struct _Rb_tree *)&results + 16B],
	leaq	432(%rsp), %rdi	#,
.LVL946:
	call	_ZNSt8_Rb_treeIZN11Performance7CompareEvE6resultS1_St9_IdentityIS1_ESt4lessIS1_ESaIS1_EE8_M_eraseEPSt13_Rb_tree_nodeIS1_E	#
.LVL947:
.LBE5018:
.LBE5017:
.LBE5016:
	.loc 9 219 0
	leaq	32(%r13), %rdi	#, tmp702
	.loc 9 174 0
	call	_ZNSsD1Ev	#
.LVL948:
	.loc 9 219 0
	leaq	24(%r13), %rdi	#, tmp704
	.loc 9 174 0
	call	_ZNSsD1Ev	#
.LVL949:
	.loc 9 219 0
	leaq	16(%r13), %rdi	#, tmp706
	.loc 9 174 0
	call	_ZNSsD1Ev	#
.LVL950:
	.loc 9 219 0
	leaq	8(%r13), %rdi	#, tmp708
	.loc 9 174 0
	call	_ZNSsD1Ev	#
.LVL951:
	movq	%r13, %rdi	# tmp710,
	call	_ZNSsD1Ev	#
.LVL952:
.L436:
.LBB5019:
.LBB5020:
.LBB5021:
	.loc 18 161 0
	movq	272(%rsp), %rdi	# MEM[(struct _Vector_base *)&histogram]._M_impl._M_start, D.81897
.LVL953:
.LBB5022:
.LBB5023:
	.loc 18 174 0
	testq	%rdi, %rdi	# D.81897
	je	.L360	#,
.LVL954:
.LBB5024:
.LBB5025:
	.loc 11 100 0
	call	_ZdlPv	#
.LVL955:
.L360:
.LBE5025:
.LBE5024:
.LBE5023:
.LBE5022:
.LBE5021:
.LBE5020:
.LBE5019:
.LBB5026:
.LBB5027:
.LBB5028:
	.loc 18 161 0
	movq	240(%rsp), %rdi	# MEM[(struct _Vector_base *)&tests]._M_impl._M_start, D.81921
.LVL956:
.LBB5029:
.LBB5030:
	.loc 18 174 0
	testq	%rdi, %rdi	# D.81921
	je	.L454	#,
.LVL957:
.LBB5031:
.LBB5032:
	.loc 11 100 0
	call	_ZdlPv	#
.LVL958:
.L454:
	movq	%rbx, %rdi	# tmp434,
.LEHB38:
	call	_Unwind_Resume	#
.LEHE38:
.LVL959:
.L635:
.LBE5032:
.LBE5031:
.LBE5030:
.LBE5029:
.LBE5028:
.LBE5027:
.LBE5026:
.LBB5033:
.LBB4798:
.LBB4797:
.LBB4796:
	.loc 10 242 0
	leaq	16(%rbx), %rdi	#, tmp578
	call	_ZN9__gnu_cxxL27__exchange_and_add_dispatchEPii.constprop.84	#
.LVL960:
	testl	%eax, %eax	# D.81551
	jg	.L411	#,
	.loc 10 246 0
	leaq	31(%rsp), %rsi	#,
.LVL961:
	movq	%rbx, %rdi	# D.81547,
	call	_ZNSs4_Rep10_M_destroyERKSaIcE	#
.LVL962:
	jmp	.L411	#
.LVL963:
.L634:
.LBE4796:
.LBE4797:
.LBE4798:
.LBE5033:
.LBB5034:
.LBB4789:
.LBB4787:
.LBB4785:
.LBB4784:
	.loc 10 242 0
	leaq	16(%rbx), %rdi	#, tmp575
	call	_ZN9__gnu_cxxL27__exchange_and_add_dispatchEPii.constprop.84	#
.LVL964:
	testl	%eax, %eax	# D.81537
	.p2align 4,,2
	jg	.L410	#,
	.loc 10 246 0
	leaq	31(%rsp), %rsi	#,
.LVL965:
	movq	%rbx, %rdi	# D.81533,
	call	_ZNSs4_Rep10_M_destroyERKSaIcE	#
.LVL966:
	jmp	.L410	#
.LVL967:
.L619:
.LBE4784:
.LBE4785:
.LBE4787:
.LBE4789:
.LBE5034:
.LBB5035:
.LBB4554:
.LBB4550:
.LBB4542:
.LBB4539:
.LBB4538:
.LBB4537:
	.loc 10 242 0
	leaq	16(%rbx), %rdi	#, tmp498
	call	_ZN9__gnu_cxxL27__exchange_and_add_dispatchEPii.constprop.84	#
.LVL968:
	testl	%eax, %eax	# D.81153
	.p2align 4,,2
	jg	.L381	#,
	.loc 10 246 0
	leaq	31(%rsp), %rsi	#,
.LVL969:
	movq	%rbx, %rdi	# D.81149,
	call	_ZNSs4_Rep10_M_destroyERKSaIcE	#
.LVL970:
	jmp	.L381	#
.LVL971:
.L618:
.LBE4537:
.LBE4538:
.LBE4539:
.LBE4542:
.LBB4543:
.LBB4532:
.LBB4531:
.LBB4530:
	.loc 10 242 0
	leaq	16(%rbx), %rdi	#, tmp495
	call	_ZN9__gnu_cxxL27__exchange_and_add_dispatchEPii.constprop.84	#
.LVL972:
	testl	%eax, %eax	# D.81139
	.p2align 4,,2
	jg	.L380	#,
	.loc 10 246 0
	leaq	31(%rsp), %rsi	#,
.LVL973:
	movq	%rbx, %rdi	# D.81135,
	call	_ZNSs4_Rep10_M_destroyERKSaIcE	#
.LVL974:
	jmp	.L380	#
.LVL975:
.L617:
.LBE4530:
.LBE4531:
.LBE4532:
.LBE4543:
.LBB4544:
.LBB4523:
.LBB4521:
.LBB4519:
.LBB4518:
	.loc 10 242 0
	leaq	16(%rbx), %rdi	#, tmp492
	call	_ZN9__gnu_cxxL27__exchange_and_add_dispatchEPii.constprop.84	#
.LVL976:
	testl	%eax, %eax	# D.81125
	.p2align 4,,2
	jg	.L379	#,
	.loc 10 246 0
	leaq	31(%rsp), %rsi	#,
.LVL977:
	movq	%rbx, %rdi	# D.81121,
	call	_ZNSs4_Rep10_M_destroyERKSaIcE	#
.LVL978:
	jmp	.L379	#
.LVL979:
.L481:
.LBE4518:
.LBE4519:
.LBE4521:
.LBE4523:
.LBE4544:
.LBB4545:
.LBB4546:
	.loc 9 177 0
	leaq	136(%rsp), %rdi	#, tmp650
	movq	%rax, %rbx	#, tmp652
.LVL980:
	call	_ZNSsD1Ev	#
.LVL981:
.L438:
.LBE4546:
.LBE4545:
	.loc 9 207 0
	leaq	32(%rsp), %rdi	#,
.LVL982:
	call	_ZNSsD1Ev	#
.LVL983:
.L450:
.LBE4550:
.LBE4554:
.LBE5035:
	.loc 9 216 0
	leaq	112(%rsp), %rdi	#,
	call	_ZNSsD1Ev	#
.LVL984:
	jmp	.L440	#
.LVL985:
.L627:
.LBB5036:
.LBB4678:
.LBB4677:
.LBB4676:
	.loc 10 242 0
	leaq	16(%rbx), %rdi	#, tmp538
	call	_ZN9__gnu_cxxL27__exchange_and_add_dispatchEPii.constprop.84	#
.LVL986:
	testl	%eax, %eax	# D.81355
	.p2align 4,,2
	jg	.L397	#,
	.loc 10 246 0
	leaq	31(%rsp), %rsi	#,
.LVL987:
	movq	%rbx, %rdi	# D.81351,
	call	_ZNSs4_Rep10_M_destroyERKSaIcE	#
.LVL988:
	jmp	.L397	#
.LVL989:
.L626:
.LBE4676:
.LBE4677:
.LBE4678:
.LBE5036:
.LBB5037:
.LBB4669:
.LBB4667:
.LBB4665:
.LBB4664:
	.loc 10 242 0
	leaq	16(%rbx), %rdi	#, tmp535
	call	_ZN9__gnu_cxxL27__exchange_and_add_dispatchEPii.constprop.84	#
.LVL990:
	testl	%eax, %eax	# D.81341
	.p2align 4,,2
	jg	.L396	#,
	.loc 10 246 0
	leaq	31(%rsp), %rsi	#,
.LVL991:
	movq	%rbx, %rdi	# D.81337,
	call	_ZNSs4_Rep10_M_destroyERKSaIcE	#
.LVL992:
	jmp	.L396	#
.LVL993:
.L485:
	movq	%rax, %rbx	#, tmp668
.LVL994:
.L444:
.LBE4664:
.LBE4665:
.LBE4667:
.LBE4669:
.LBE5037:
	.loc 9 213 0
	leaq	64(%rsp), %rdi	#,
	call	_ZNSsD1Ev	#
.LVL995:
	jmp	.L440	#
.LVL996:
.L483:
	movq	%rax, %rbx	#, tmp662
.LVL997:
	jmp	.L442	#
.LVL998:
.L479:
.L612:
	movq	%rax, %rbx	#, tmp686
	.p2align 4,,5
	jmp	.L450	#
.LVL999:
.L482:
	movq	%rax, %rbx	#, tmp659
	.p2align 4,,2
	jmp	.L440	#
.LVL1000:
.L623:
.LBB5038:
.LBB4618:
.LBB4617:
.LBB4616:
	.loc 10 242 0
	leaq	16(%rbx), %rdi	#, tmp518
	call	_ZN9__gnu_cxxL27__exchange_and_add_dispatchEPii.constprop.84	#
.LVL1001:
	testl	%eax, %eax	# D.81257
	jg	.L390	#,
	.loc 10 246 0
	leaq	31(%rsp), %rsi	#,
.LVL1002:
	movq	%rbx, %rdi	# D.81253,
	call	_ZNSs4_Rep10_M_destroyERKSaIcE	#
.LVL1003:
	jmp	.L390	#
.LVL1004:
.L622:
.LBE4616:
.LBE4617:
.LBE4618:
.LBE5038:
.LBB5039:
.LBB4609:
.LBB4607:
.LBB4605:
.LBB4604:
	.loc 10 242 0
	leaq	16(%rbx), %rdi	#, tmp515
	call	_ZN9__gnu_cxxL27__exchange_and_add_dispatchEPii.constprop.84	#
.LVL1005:
	testl	%eax, %eax	# D.81243
	.p2align 4,,2
	jg	.L389	#,
	.loc 10 246 0
	leaq	31(%rsp), %rsi	#,
.LVL1006:
	movq	%rbx, %rdi	# D.81239,
	call	_ZNSs4_Rep10_M_destroyERKSaIcE	#
.LVL1007:
	jmp	.L389	#
.LVL1008:
.L614:
.LEHB39:
.LBE4604:
.LBE4605:
.LBE4607:
.LBE4609:
.LBE5039:
.LBB5040:
.LBB4436:
.LBB4434:
.LBB4431:
.LBB4427:
.LBB4422:
	.loc 4 51 0
	call	_ZSt16__throw_bad_castv	#
.LEHE39:
.LVL1009:
.L478:
	movq	%rax, %rbx	#, tmp695
	.p2align 4,,5
	jmp	.L452	#
.LVL1010:
.L496:
.LBE4422:
.LBE4427:
.LBE4431:
.LBE4434:
.LBE4436:
.LBE5040:
	.loc 9 149 0
	leaq	32(%r13), %rbx	#, D.68608
.LVL1011:
.L563:
	.loc 9 174 0 discriminator 8
	subq	$8, %rbx	#, D.68608
	movq	%rax, (%rsp)	#,
	movq	%rbx, %rdi	# D.68608,
	call	_ZNSsD1Ev	#
.LVL1012:
	cmpq	%r13, %rbx	# tmp710, D.68608
	movq	(%rsp), %rax	#,
	jne	.L563	#,
.LVL1013:
.L610:
	movq	%rax, %rbx	#, tmp645
	jmp	.L436	#
.LVL1014:
.L497:
	.loc 9 149 0
	leaq	24(%r13), %rbx	#, D.68608
	jmp	.L563	#
.LVL1015:
.L498:
	leaq	16(%r13), %rbx	#, D.68608
	jmp	.L563	#
.LVL1016:
.L477:
	leaq	8(%r13), %rbx	#, D.68608
	jmp	.L563	#
.LVL1017:
.L495:
	.p2align 4,,3
	jmp	.L610	#
.LVL1018:
.L476:
	.p2align 4,,7
	jmp	.L610	#
.LVL1019:
.L631:
.LBB5041:
.LBB4738:
.LBB4737:
.LBB4736:
	.loc 10 242 0
	leaq	16(%rbx), %rdi	#, tmp558
	.p2align 4,,7
	call	_ZN9__gnu_cxxL27__exchange_and_add_dispatchEPii.constprop.84	#
.LVL1020:
	testl	%eax, %eax	# D.81453
	.p2align 4,,2
	jg	.L404	#,
	.loc 10 246 0
	leaq	31(%rsp), %rsi	#,
.LVL1021:
	movq	%rbx, %rdi	# D.81449,
	call	_ZNSs4_Rep10_M_destroyERKSaIcE	#
.LVL1022:
	jmp	.L404	#
.LVL1023:
.L630:
.LBE4736:
.LBE4737:
.LBE4738:
.LBE5041:
.LBB5042:
.LBB4729:
.LBB4727:
.LBB4725:
.LBB4724:
	.loc 10 242 0
	leaq	16(%rbx), %rdi	#, tmp555
	call	_ZN9__gnu_cxxL27__exchange_and_add_dispatchEPii.constprop.84	#
.LVL1024:
	testl	%eax, %eax	# D.81439
	.p2align 4,,2
	jg	.L403	#,
	.loc 10 246 0
	leaq	31(%rsp), %rsi	#,
.LVL1025:
	movq	%rbx, %rdi	# D.81435,
	call	_ZNSs4_Rep10_M_destroyERKSaIcE	#
.LVL1026:
	jmp	.L403	#
.LVL1027:
.L480:
	movq	%rax, %rbx	#, tmp651
.LVL1028:
	jmp	.L438	#
.LVL1029:
.L491:
	.p2align 4,,8
	jmp	.L612	#
.LVL1030:
.L641:
.LBE4724:
.LBE4725:
.LBE4727:
.LBE4729:
.LBE5042:
.LBB5043:
.LBB4959:
.LBB4943:
.LBB4941:
.LBB4891:
.LBB4889:
.LBB4886:
.LBB4882:
.LBB4880:
	.loc 4 51 0
	.p2align 4,,8
.LEHB40:
	call	_ZSt16__throw_bad_castv	#
.LEHE40:
.LVL1031:
.L493:
.LBE4880:
.LBE4882:
.LBE4886:
.LBE4889:
.LBE4891:
.LBE4941:
.LBE4943:
.LBE4959:
	.loc 9 219 0
	leaq	208(%rsp), %rdi	#,
.LVL1032:
	movq	%rax, %rbx	#, tmp692
.LVL1033:
	call	_ZZN11Performance7CompareEvEN6resultD1Ev	#
.LVL1034:
	jmp	.L440	#
.LVL1035:
.L639:
.LBE5043:
.LBB5044:
.LBB4856:
.LBB4855:
.LBB4854:
	.loc 10 242 0
	leaq	16(%rbx), %rdi	#, tmp598
	call	_ZN9__gnu_cxxL27__exchange_and_add_dispatchEPii.constprop.84	#
.LVL1036:
	testl	%eax, %eax	# D.81649
	.p2align 4,,2
	jg	.L418	#,
	.loc 10 246 0
	leaq	31(%rsp), %rsi	#,
.LVL1037:
	movq	%rbx, %rdi	# D.81645,
	call	_ZNSs4_Rep10_M_destroyERKSaIcE	#
.LVL1038:
	jmp	.L418	#
.LVL1039:
.L638:
.LBE4854:
.LBE4855:
.LBE4856:
.LBE5044:
.LBB5045:
.LBB4847:
.LBB4845:
.LBB4843:
.LBB4842:
	.loc 10 242 0
	leaq	16(%rbx), %rdi	#, tmp595
	call	_ZN9__gnu_cxxL27__exchange_and_add_dispatchEPii.constprop.84	#
.LVL1040:
	testl	%eax, %eax	# D.81635
	.p2align 4,,2
	jg	.L417	#,
	.loc 10 246 0
	leaq	31(%rsp), %rsi	#,
.LVL1041:
	movq	%rbx, %rdi	# D.81631,
	call	_ZNSs4_Rep10_M_destroyERKSaIcE	#
.LVL1042:
	jmp	.L417	#
.LVL1043:
.L456:
.LBE4842:
.LBE4843:
.LBE4845:
.LBE4847:
.LBE5045:
.LBB5046:
.LBB4368:
.LBB4361:
.LBB4357:
.LBB4353:
.LBB4350:
.LBB4347:
.LBB4345:
.LBB4343:
.LBB4341:
.LBB4339:
.LBB4337:
.LBB4335:
.LBB4333:
	.loc 9 149 0
	movq	%rax, %r9	# __first, __first
	movl	$93, %ecx	#, ivtmp.1022
	jmp	.L353	#
.LVL1044:
.L494:
	.p2align 4,,3
	jmp	.L610	#
.LVL1045:
.L489:
	movq	%rax, %rbx	#, tmp680
.LVL1046:
.L448:
.LBE4333:
.LBE4335:
.LBE4337:
.LBE4339:
.LBE4341:
.LBE4343:
.LBE4345:
.LBE4347:
.LBE4350:
.LBE4353:
.LBE4357:
.LBE4361:
.LBE4368:
.LBE5046:
	.loc 9 215 0
	leaq	96(%rsp), %rdi	#,
	call	_ZNSsD1Ev	#
.LVL1047:
	jmp	.L440	#
.LVL1048:
.L487:
	movq	%rax, %rbx	#, tmp674
.LVL1049:
.L446:
	.loc 9 214 0
	leaq	80(%rsp), %rdi	#,
	call	_ZNSsD1Ev	#
.LVL1050:
	jmp	.L440	#
.LVL1051:
.L486:
	.loc 9 213 0
	leaq	160(%rsp), %rdi	#,
.LVL1052:
	movq	%rax, %rbx	#, tmp669
	call	_ZZN11Performance7CompareEvEN6resultD1Ev	#
.LVL1053:
	jmp	.L444	#
.LVL1054:
.L490:
	.loc 9 215 0
	leaq	192(%rsp), %rdi	#,
.LVL1055:
	movq	%rax, %rbx	#, tmp681
	call	_ZZN11Performance7CompareEvEN6resultD1Ev	#
.LVL1056:
	jmp	.L448	#
.LVL1057:
.L492:
	.loc 9 216 0
	leaq	208(%rsp), %rdi	#,
.LVL1058:
	movq	%rax, %rbx	#, tmp687
	call	_ZZN11Performance7CompareEvEN6resultD1Ev	#
.LVL1059:
	jmp	.L450	#
.LVL1060:
.L488:
	.loc 9 214 0
	leaq	176(%rsp), %rdi	#,
.LVL1061:
	movq	%rax, %rbx	#, tmp675
	call	_ZZN11Performance7CompareEvEN6resultD1Ev	#
.LVL1062:
	jmp	.L446	#
.LVL1063:
.L643:
.LBB5047:
.LBB4988:
.LBB4986:
.LBB4980:
	.loc 10 242 0
	leaq	16(%rbx), %rdi	#, tmp630
	call	_ZN9__gnu_cxxL27__exchange_and_add_dispatchEPii.constprop.84	#
.LVL1064:
	testl	%eax, %eax	# D.81821
	.p2align 4,,2
	jg	.L426	#,
	.loc 10 246 0
	leaq	31(%rsp), %rsi	#,
.LVL1065:
	movq	%rbx, %rdi	# D.81817,
	call	_ZNSs4_Rep10_M_destroyERKSaIcE	#
.LVL1066:
	jmp	.L426	#
.LVL1067:
.L640:
.LBE4980:
.LBE4986:
.LBE4988:
.LBE5047:
.LBB5048:
.LBB4960:
.LBB4952:
.LBB4951:
.LBB4950:
.LBB4949:
	.loc 10 242 0
	leaq	16(%rbp), %rdi	#, tmp623
	call	_ZN9__gnu_cxxL27__exchange_and_add_dispatchEPii.constprop.84	#
.LVL1068:
	testl	%eax, %eax	# D.81773
	.p2align 4,,2
	jg	.L423	#,
	.loc 10 246 0
	leaq	31(%rsp), %rsi	#,
.LVL1069:
	movq	%rbp, %rdi	# D.81769,
	call	_ZNSs4_Rep10_M_destroyERKSaIcE	#
.LVL1070:
	jmp	.L423	#
.LVL1071:
.L647:
.LBE4949:
.LBE4950:
.LBE4951:
.LBE4952:
.LBE4960:
.LBE5048:
.LBB5049:
.LBB4989:
.LBB4987:
.LBB4981:
	.loc 10 242 0
	leaq	16(%rbx), %rdi	#, tmp642
	call	_ZN9__gnu_cxxL27__exchange_and_add_dispatchEPii.constprop.84	#
.LVL1072:
	testl	%eax, %eax	# D.81821
	.p2align 4,,2
	jg	.L430	#,
	.loc 10 246 0
	leaq	31(%rsp), %rsi	#,
.LVL1073:
	movq	%rbx, %rdi	# D.81817,
	call	_ZNSs4_Rep10_M_destroyERKSaIcE	#
.LVL1074:
	jmp	.L430	#
.LVL1075:
.L646:
	.loc 10 242 0
	leaq	16(%rbx), %rdi	#, tmp639
	call	_ZN9__gnu_cxxL27__exchange_and_add_dispatchEPii.constprop.84	#
.LVL1076:
	testl	%eax, %eax	# D.81821
	.p2align 4,,2
	jg	.L429	#,
	.loc 10 246 0
	leaq	31(%rsp), %rsi	#,
.LVL1077:
	movq	%rbx, %rdi	# D.81817,
	call	_ZNSs4_Rep10_M_destroyERKSaIcE	#
.LVL1078:
	jmp	.L429	#
.LVL1079:
.L645:
	.loc 10 242 0
	leaq	16(%rbx), %rdi	#, tmp636
	call	_ZN9__gnu_cxxL27__exchange_and_add_dispatchEPii.constprop.84	#
.LVL1080:
	testl	%eax, %eax	# D.81821
	.p2align 4,,2
	jg	.L428	#,
	.loc 10 246 0
	leaq	31(%rsp), %rsi	#,
.LVL1081:
	movq	%rbx, %rdi	# D.81817,
	call	_ZNSs4_Rep10_M_destroyERKSaIcE	#
.LVL1082:
	jmp	.L428	#
.LVL1083:
.L644:
	.loc 10 242 0
	leaq	16(%rbx), %rdi	#, tmp633
	call	_ZN9__gnu_cxxL27__exchange_and_add_dispatchEPii.constprop.84	#
.LVL1084:
	testl	%eax, %eax	# D.81821
	.p2align 4,,2
	jg	.L427	#,
	.loc 10 246 0
	leaq	31(%rsp), %rsi	#,
.LVL1085:
	movq	%rbx, %rdi	# D.81817,
	call	_ZNSs4_Rep10_M_destroyERKSaIcE	#
.LVL1086:
	jmp	.L427	#
.LBE4981:
.LBE4987:
.LBE4989:
.LBE5049:
.LBE5051:
	.cfi_endproc
.LFE3491:
	.section	.gcc_except_table
.LLSDA3491:
	.byte	0xff
	.byte	0xff
	.byte	0x1
	.uleb128 .LLSDACSE3491-.LLSDACSB3491
.LLSDACSB3491:
	.uleb128 .LEHB5-.LFB3491
	.uleb128 .LEHE5-.LEHB5
	.uleb128 0
	.uleb128 0
	.uleb128 .LEHB6-.LFB3491
	.uleb128 .LEHE6-.LEHB6
	.uleb128 .L494-.LFB3491
	.uleb128 0
	.uleb128 .LEHB7-.LFB3491
	.uleb128 .LEHE7-.LEHB7
	.uleb128 .L476-.LFB3491
	.uleb128 0
	.uleb128 .LEHB8-.LFB3491
	.uleb128 .LEHE8-.LEHB8
	.uleb128 .L495-.LFB3491
	.uleb128 0
	.uleb128 .LEHB9-.LFB3491
	.uleb128 .LEHE9-.LEHB9
	.uleb128 .L477-.LFB3491
	.uleb128 0
	.uleb128 .LEHB10-.LFB3491
	.uleb128 .LEHE10-.LEHB10
	.uleb128 .L498-.LFB3491
	.uleb128 0
	.uleb128 .LEHB11-.LFB3491
	.uleb128 .LEHE11-.LEHB11
	.uleb128 .L497-.LFB3491
	.uleb128 0
	.uleb128 .LEHB12-.LFB3491
	.uleb128 .LEHE12-.LEHB12
	.uleb128 .L496-.LFB3491
	.uleb128 0
	.uleb128 .LEHB13-.LFB3491
	.uleb128 .LEHE13-.LEHB13
	.uleb128 .L478-.LFB3491
	.uleb128 0
	.uleb128 .LEHB14-.LFB3491
	.uleb128 .LEHE14-.LEHB14
	.uleb128 .L482-.LFB3491
	.uleb128 0
	.uleb128 .LEHB15-.LFB3491
	.uleb128 .LEHE15-.LEHB15
	.uleb128 .L479-.LFB3491
	.uleb128 0
	.uleb128 .LEHB16-.LFB3491
	.uleb128 .LEHE16-.LEHB16
	.uleb128 .L480-.LFB3491
	.uleb128 0
	.uleb128 .LEHB17-.LFB3491
	.uleb128 .LEHE17-.LEHB17
	.uleb128 .L481-.LFB3491
	.uleb128 0
	.uleb128 .LEHB18-.LFB3491
	.uleb128 .LEHE18-.LEHB18
	.uleb128 .L482-.LFB3491
	.uleb128 0
	.uleb128 .LEHB19-.LFB3491
	.uleb128 .LEHE19-.LEHB19
	.uleb128 .L483-.LFB3491
	.uleb128 0
	.uleb128 .LEHB20-.LFB3491
	.uleb128 .LEHE20-.LEHB20
	.uleb128 .L484-.LFB3491
	.uleb128 0
	.uleb128 .LEHB21-.LFB3491
	.uleb128 .LEHE21-.LEHB21
	.uleb128 .L482-.LFB3491
	.uleb128 0
	.uleb128 .LEHB22-.LFB3491
	.uleb128 .LEHE22-.LEHB22
	.uleb128 .L485-.LFB3491
	.uleb128 0
	.uleb128 .LEHB23-.LFB3491
	.uleb128 .LEHE23-.LEHB23
	.uleb128 .L486-.LFB3491
	.uleb128 0
	.uleb128 .LEHB24-.LFB3491
	.uleb128 .LEHE24-.LEHB24
	.uleb128 .L482-.LFB3491
	.uleb128 0
	.uleb128 .LEHB25-.LFB3491
	.uleb128 .LEHE25-.LEHB25
	.uleb128 .L487-.LFB3491
	.uleb128 0
	.uleb128 .LEHB26-.LFB3491
	.uleb128 .LEHE26-.LEHB26
	.uleb128 .L488-.LFB3491
	.uleb128 0
	.uleb128 .LEHB27-.LFB3491
	.uleb128 .LEHE27-.LEHB27
	.uleb128 .L482-.LFB3491
	.uleb128 0
	.uleb128 .LEHB28-.LFB3491
	.uleb128 .LEHE28-.LEHB28
	.uleb128 .L489-.LFB3491
	.uleb128 0
	.uleb128 .LEHB29-.LFB3491
	.uleb128 .LEHE29-.LEHB29
	.uleb128 .L490-.LFB3491
	.uleb128 0
	.uleb128 .LEHB30-.LFB3491
	.uleb128 .LEHE30-.LEHB30
	.uleb128 .L482-.LFB3491
	.uleb128 0
	.uleb128 .LEHB31-.LFB3491
	.uleb128 .LEHE31-.LEHB31
	.uleb128 .L491-.LFB3491
	.uleb128 0
	.uleb128 .LEHB32-.LFB3491
	.uleb128 .LEHE32-.LEHB32
	.uleb128 .L492-.LFB3491
	.uleb128 0
	.uleb128 .LEHB33-.LFB3491
	.uleb128 .LEHE33-.LEHB33
	.uleb128 .L482-.LFB3491
	.uleb128 0
	.uleb128 .LEHB34-.LFB3491
	.uleb128 .LEHE34-.LEHB34
	.uleb128 .L493-.LFB3491
	.uleb128 0
	.uleb128 .LEHB35-.LFB3491
	.uleb128 .LEHE35-.LEHB35
	.uleb128 .L482-.LFB3491
	.uleb128 0
	.uleb128 .LEHB36-.LFB3491
	.uleb128 .LEHE36-.LEHB36
	.uleb128 .L493-.LFB3491
	.uleb128 0
	.uleb128 .LEHB37-.LFB3491
	.uleb128 .LEHE37-.LEHB37
	.uleb128 .L478-.LFB3491
	.uleb128 0
	.uleb128 .LEHB38-.LFB3491
	.uleb128 .LEHE38-.LEHB38
	.uleb128 0
	.uleb128 0
	.uleb128 .LEHB39-.LFB3491
	.uleb128 .LEHE39-.LEHB39
	.uleb128 .L478-.LFB3491
	.uleb128 0
	.uleb128 .LEHB40-.LFB3491
	.uleb128 .LEHE40-.LEHB40
	.uleb128 .L493-.LFB3491
	.uleb128 0
.LLSDACSE3491:
	.text
	.size	_ZN11Performance7CompareEv, .-_ZN11Performance7CompareEv
	.section	.rodata.str1.1
.LC31:
	.string	"\033[42m   "
.LC32:
	.string	"\033[0K\033[0m"
.LC33:
	.string	"\033[0K"
.LC34:
	.string	"\033[31;1m"
.LC35:
	.string	""
.LC36:
	.string	"\033[0m"
.LC37:
	.string	"\033[60G"
	.section	.text.startup,"ax",@progbits
	.p2align 4,,15
	.type	_GLOBAL__sub_I__ZN11Performance28TestPerformanceOfOneFunctionERSt6vectorINS_4testESaIS1_EEPFymE, @function
_GLOBAL__sub_I__ZN11Performance28TestPerformanceOfOneFunctionERSt6vectorINS_4testESaIS1_EEPFymE:
.LFB4035:
	.loc 9 220 0
	.cfi_startproc
	.cfi_personality 0x3,__gxx_personality_v0
	.cfi_lsda 0x3,.LLSDA4035
.LVL1087:
	pushq	%rbx	#
	.cfi_def_cfa_offset 16
	.cfi_offset 3, -16
.LBB5061:
.LBB5062:
	.file 26 "/usr/libexec/openshift/cartridges/c9-0.1/root/cloud9-gcc-linux-toolchain/bin/../lib/gcc/x86_64-redhat-linux/4.7.2/../../../../include/c++/4.7.2/iostream"
	.loc 26 75 0
	movl	$_ZStL8__ioinit, %edi	#,
.LBE5062:
.LBE5061:
	.loc 9 220 0
	subq	$16, %rsp	#,
	.cfi_def_cfa_offset 32
.LEHB41:
.LBB5071:
.LBB5069:
	.loc 26 75 0
	call	_ZNSt8ios_base4InitC1Ev	#
.LVL1088:
	movl	$__dso_handle, %edx	#,
	movl	$_ZStL8__ioinit, %esi	#,
	movl	$_ZNSt8ios_base4InitD1Ev, %edi	#,
	call	__cxa_atexit	#
.LVL1089:
	.file 27 "ansi.h"
	.loc 27 5 0
	leaq	15(%rsp), %rdx	#,
.LVL1090:
	movl	$.LC31, %esi	#,
	movl	$_ZL10BeginTitle, %edi	#,
	call	_ZNSsC1EPKcRKSaIcE	#
.LVL1091:
	movl	$__dso_handle, %edx	#,
	movl	$_ZL10BeginTitle, %esi	#,
	movl	$_ZNSsD1Ev, %edi	#,
	call	__cxa_atexit	#
.LVL1092:
	.loc 27 6 0
	leaq	15(%rsp), %rdx	#,
.LVL1093:
	movl	$.LC32, %esi	#,
	movl	$_ZL8EndTitle, %edi	#,
	call	_ZNSsC1EPKcRKSaIcE	#
.LVL1094:
	movl	$__dso_handle, %edx	#,
	movl	$_ZL8EndTitle, %esi	#,
	movl	$_ZNSsD1Ev, %edi	#,
	call	__cxa_atexit	#
.LVL1095:
	.loc 27 7 0
	leaq	15(%rsp), %rdx	#,
.LVL1096:
	movl	$.LC33, %esi	#,
	movl	$_ZL11ToEndOfLine, %edi	#,
	call	_ZNSsC1EPKcRKSaIcE	#
.LVL1097:
	movl	$__dso_handle, %edx	#,
	movl	$_ZL11ToEndOfLine, %esi	#,
	movl	$_ZNSsD1Ev, %edi	#,
	call	__cxa_atexit	#
.LVL1098:
	.loc 27 8 0
	leaq	15(%rsp), %rdx	#,
.LVL1099:
	movl	$.LC34, %esi	#,
	movl	$_ZL3Red, %edi	#,
	call	_ZNSsC1EPKcRKSaIcE	#
.LVL1100:
	movl	$__dso_handle, %edx	#,
	movl	$_ZL3Red, %esi	#,
	movl	$_ZNSsD1Ev, %edi	#,
	call	__cxa_atexit	#
.LVL1101:
	.loc 27 9 0
	leaq	15(%rsp), %rdx	#,
.LVL1102:
	movl	$.LC35, %esi	#,
	movl	$_ZL5Empty, %edi	#,
	call	_ZNSsC1EPKcRKSaIcE	#
.LVL1103:
	movl	$__dso_handle, %edx	#,
	movl	$_ZL5Empty, %esi	#,
	movl	$_ZNSsD1Ev, %edi	#,
	call	__cxa_atexit	#
.LVL1104:
	.loc 27 10 0
	leaq	15(%rsp), %rdx	#,
.LVL1105:
	movl	$.LC36, %esi	#,
	movl	$_ZL5Reset, %edi	#,
	call	_ZNSsC1EPKcRKSaIcE	#
.LVL1106:
	movl	$__dso_handle, %edx	#,
	movl	$_ZL5Reset, %esi	#,
	movl	$_ZNSsD1Ev, %edi	#,
	call	__cxa_atexit	#
.LVL1107:
.LBB5063:
.LBB5064:
	.loc 10 2402 0
	movl	$_ZL11ToEndOfLine, %esi	#,
	movl	$_ZL12GoToColumn60, %edi	#,
	call	_ZNSsC1ERKSs	#
.LEHE41:
.LVL1108:
.LBB5065:
.LBB5066:
	.loc 10 1006 0
	movl	$5, %edx	#,
	movl	$.LC37, %esi	#,
	movl	$_ZL12GoToColumn60, %edi	#,
.LEHB42:
	call	_ZNSs6appendEPKcm	#
.LEHE42:
.LVL1109:
.LBE5066:
.LBE5065:
.LBE5064:
.LBE5063:
	.loc 27 11 0
	movl	$__dso_handle, %edx	#,
	movl	$_ZL12GoToColumn60, %esi	#,
	movl	$_ZNSsD1Ev, %edi	#,
	call	__cxa_atexit	#
.LVL1110:
.LBE5069:
.LBE5071:
	.loc 9 220 0
	addq	$16, %rsp	#,
	.cfi_remember_state
	.cfi_def_cfa_offset 16
	popq	%rbx	#
	.cfi_def_cfa_offset 8
	ret
.L650:
	.cfi_restore_state
	movq	%rax, %rbx	#, tmp66
.LBB5072:
.LBB5070:
.LBB5068:
.LBB5067:
	.loc 10 2404 0
	movl	$_ZL12GoToColumn60, %edi	#,
	call	_ZNSsD1Ev	#
.LVL1111:
	movq	%rbx, %rdi	# tmp66,
.LEHB43:
	call	_Unwind_Resume	#
.LEHE43:
.LVL1112:
.LBE5067:
.LBE5068:
.LBE5070:
.LBE5072:
	.cfi_endproc
.LFE4035:
	.section	.gcc_except_table
.LLSDA4035:
	.byte	0xff
	.byte	0xff
	.byte	0x1
	.uleb128 .LLSDACSE4035-.LLSDACSB4035
.LLSDACSB4035:
	.uleb128 .LEHB41-.LFB4035
	.uleb128 .LEHE41-.LEHB41
	.uleb128 0
	.uleb128 0
	.uleb128 .LEHB42-.LFB4035
	.uleb128 .LEHE42-.LEHB42
	.uleb128 .L650-.LFB4035
	.uleb128 0
	.uleb128 .LEHB43-.LFB4035
	.uleb128 .LEHE43-.LEHB43
	.uleb128 0
	.uleb128 0
.LLSDACSE4035:
	.section	.text.startup
	.size	_GLOBAL__sub_I__ZN11Performance28TestPerformanceOfOneFunctionERSt6vectorINS_4testESaIS1_EEPFymE, .-_GLOBAL__sub_I__ZN11Performance28TestPerformanceOfOneFunctionERSt6vectorINS_4testESaIS1_EEPFymE
	.section	.init_array,"aw"
	.align 8
	.quad	_GLOBAL__sub_I__ZN11Performance28TestPerformanceOfOneFunctionERSt6vectorINS_4testESaIS1_EEPFymE
	.local	_ZL12GoToColumn60
	.comm	_ZL12GoToColumn60,8,8
	.local	_ZL11ToEndOfLine
	.comm	_ZL11ToEndOfLine,8,8
	.local	_ZL10BeginTitle
	.comm	_ZL10BeginTitle,8,8
	.local	_ZL8EndTitle
	.comm	_ZL8EndTitle,8,8
	.local	_ZL5Reset
	.comm	_ZL5Reset,8,8
	.local	_ZStL8__ioinit
	.comm	_ZStL8__ioinit,1,1
	.local	_ZL3Red
	.comm	_ZL3Red,8,8
	.local	_ZL5Empty
	.comm	_ZL5Empty,8,8
	.weakref	_ZL22__gthrw_pthread_cancelm,pthread_cancel
	.section	.rodata.cst8,"aM",@progbits,8
	.align 8
.LC0:
	.long	2610427048
	.long	1073341303
	.align 8
.LC1:
	.long	3317689797
	.long	1071423269
	.align 8
.LC2:
	.long	0
	.long	1071644672
	.align 8
.LC3:
	.long	0
	.long	1138753536
	.section	.rodata.cst16,"aM",@progbits,16
	.align 16
.LC13:
	.long	4
	.long	4
	.long	4
	.long	4
	.text
.Letext0:
	.file 28 "/usr/include/libio.h"
	.file 29 "/usr/include/stdio.h"
	.file 30 "<built-in>"
	.file 31 "/usr/libexec/openshift/cartridges/c9-0.1/root/cloud9-gcc-linux-toolchain/bin/../lib/gcc/x86_64-redhat-linux/4.7.2/include/stddef.h"
	.file 32 "/usr/include/wchar.h"
	.file 33 "/usr/libexec/openshift/cartridges/c9-0.1/root/cloud9-gcc-linux-toolchain/bin/../lib/gcc/x86_64-redhat-linux/4.7.2/../../../../include/c++/4.7.2/cwchar"
	.file 34 "/usr/libexec/openshift/cartridges/c9-0.1/root/cloud9-gcc-linux-toolchain/bin/../lib/gcc/x86_64-redhat-linux/4.7.2/../../../../include/c++/4.7.2/bits/exception_ptr.h"
	.file 35 "/usr/libexec/openshift/cartridges/c9-0.1/root/cloud9-gcc-linux-toolchain/bin/../lib/gcc/x86_64-redhat-linux/4.7.2/../../../../include/c++/4.7.2/x86_64-redhat-linux/bits/c++config.h"
	.file 36 "/usr/libexec/openshift/cartridges/c9-0.1/root/cloud9-gcc-linux-toolchain/bin/../lib/gcc/x86_64-redhat-linux/4.7.2/../../../../include/c++/4.7.2/type_traits"
	.file 37 "/usr/libexec/openshift/cartridges/c9-0.1/root/cloud9-gcc-linux-toolchain/bin/../lib/gcc/x86_64-redhat-linux/4.7.2/../../../../include/c++/4.7.2/bits/cpp_type_traits.h"
	.file 38 "/usr/libexec/openshift/cartridges/c9-0.1/root/cloud9-gcc-linux-toolchain/bin/../lib/gcc/x86_64-redhat-linux/4.7.2/../../../../include/c++/4.7.2/bits/stl_pair.h"
	.file 39 "/usr/libexec/openshift/cartridges/c9-0.1/root/cloud9-gcc-linux-toolchain/bin/../lib/gcc/x86_64-redhat-linux/4.7.2/../../../../include/c++/4.7.2/bits/char_traits.h"
	.file 40 "/usr/libexec/openshift/cartridges/c9-0.1/root/cloud9-gcc-linux-toolchain/bin/../lib/gcc/x86_64-redhat-linux/4.7.2/../../../../include/c++/4.7.2/cstdint"
	.file 41 "/usr/libexec/openshift/cartridges/c9-0.1/root/cloud9-gcc-linux-toolchain/bin/../lib/gcc/x86_64-redhat-linux/4.7.2/../../../../include/c++/4.7.2/clocale"
	.file 42 "/usr/libexec/openshift/cartridges/c9-0.1/root/cloud9-gcc-linux-toolchain/bin/../lib/gcc/x86_64-redhat-linux/4.7.2/../../../../include/c++/4.7.2/new"
	.file 43 "/usr/libexec/openshift/cartridges/c9-0.1/root/cloud9-gcc-linux-toolchain/bin/../lib/gcc/x86_64-redhat-linux/4.7.2/../../../../include/c++/4.7.2/bits/allocator.h"
	.file 44 "/usr/libexec/openshift/cartridges/c9-0.1/root/cloud9-gcc-linux-toolchain/bin/../lib/gcc/x86_64-redhat-linux/4.7.2/../../../../include/c++/4.7.2/cstdlib"
	.file 45 "/usr/libexec/openshift/cartridges/c9-0.1/root/cloud9-gcc-linux-toolchain/bin/../lib/gcc/x86_64-redhat-linux/4.7.2/../../../../include/c++/4.7.2/cstdio"
	.file 46 "/usr/libexec/openshift/cartridges/c9-0.1/root/cloud9-gcc-linux-toolchain/bin/../lib/gcc/x86_64-redhat-linux/4.7.2/../../../../include/c++/4.7.2/bits/basic_string.tcc"
	.file 47 "/usr/libexec/openshift/cartridges/c9-0.1/root/cloud9-gcc-linux-toolchain/bin/../lib/gcc/x86_64-redhat-linux/4.7.2/../../../../include/c++/4.7.2/initializer_list"
	.file 48 "/usr/libexec/openshift/cartridges/c9-0.1/root/cloud9-gcc-linux-toolchain/bin/../lib/gcc/x86_64-redhat-linux/4.7.2/../../../../include/c++/4.7.2/bits/stringfwd.h"
	.file 49 "/usr/libexec/openshift/cartridges/c9-0.1/root/cloud9-gcc-linux-toolchain/bin/../lib/gcc/x86_64-redhat-linux/4.7.2/../../../../include/c++/4.7.2/cwctype"
	.file 50 "/usr/libexec/openshift/cartridges/c9-0.1/root/cloud9-gcc-linux-toolchain/bin/../lib/gcc/x86_64-redhat-linux/4.7.2/../../../../include/c++/4.7.2/bits/ostream.tcc"
	.file 51 "/usr/libexec/openshift/cartridges/c9-0.1/root/cloud9-gcc-linux-toolchain/bin/../lib/gcc/x86_64-redhat-linux/4.7.2/../../../../include/c++/4.7.2/ctime"
	.file 52 "/usr/libexec/openshift/cartridges/c9-0.1/root/cloud9-gcc-linux-toolchain/bin/../lib/gcc/x86_64-redhat-linux/4.7.2/../../../../include/c++/4.7.2/bits/stl_iterator_base_types.h"
	.file 53 "/usr/libexec/openshift/cartridges/c9-0.1/root/cloud9-gcc-linux-toolchain/bin/../lib/gcc/x86_64-redhat-linux/4.7.2/../../../../include/c++/4.7.2/bits/stl_construct.h"
	.file 54 "/usr/libexec/openshift/cartridges/c9-0.1/root/cloud9-gcc-linux-toolchain/bin/../lib/gcc/x86_64-redhat-linux/4.7.2/../../../../include/c++/4.7.2/bits/stl_uninitialized.h"
	.file 55 "/usr/libexec/openshift/cartridges/c9-0.1/root/cloud9-gcc-linux-toolchain/bin/../lib/gcc/x86_64-redhat-linux/4.7.2/../../../../include/c++/4.7.2/limits"
	.file 56 "/usr/libexec/openshift/cartridges/c9-0.1/root/cloud9-gcc-linux-toolchain/bin/../lib/gcc/x86_64-redhat-linux/4.7.2/../../../../include/c++/4.7.2/ratio"
	.file 57 "/usr/libexec/openshift/cartridges/c9-0.1/root/cloud9-gcc-linux-toolchain/bin/../lib/gcc/x86_64-redhat-linux/4.7.2/../../../../include/c++/4.7.2/bits/alloc_traits.h"
	.file 58 "/usr/libexec/openshift/cartridges/c9-0.1/root/cloud9-gcc-linux-toolchain/bin/../lib/gcc/x86_64-redhat-linux/4.7.2/../../../../include/c++/4.7.2/bits/uses_allocator.h"
	.file 59 "/usr/libexec/openshift/cartridges/c9-0.1/root/cloud9-gcc-linux-toolchain/bin/../lib/gcc/x86_64-redhat-linux/4.7.2/../../../../include/c++/4.7.2/tuple"
	.file 60 "/usr/libexec/openshift/cartridges/c9-0.1/root/cloud9-gcc-linux-toolchain/bin/../lib/gcc/x86_64-redhat-linux/4.7.2/../../../../include/c++/4.7.2/bits/vector.tcc"
	.file 61 "/usr/libexec/openshift/cartridges/c9-0.1/root/cloud9-gcc-linux-toolchain/bin/../lib/gcc/x86_64-redhat-linux/4.7.2/../../../../include/c++/4.7.2/bits/stl_function.h"
	.file 62 "/usr/libexec/openshift/cartridges/c9-0.1/root/cloud9-gcc-linux-toolchain/bin/../lib/gcc/x86_64-redhat-linux/4.7.2/../../../../include/c++/4.7.2/bits/stl_multiset.h"
	.file 63 "/usr/libexec/openshift/cartridges/c9-0.1/root/cloud9-gcc-linux-toolchain/bin/../lib/gcc/x86_64-redhat-linux/4.7.2/../../../../include/c++/4.7.2/bits/basic_ios.tcc"
	.file 64 "/usr/libexec/openshift/cartridges/c9-0.1/root/cloud9-gcc-linux-toolchain/bin/../lib/gcc/x86_64-redhat-linux/4.7.2/../../../../include/c++/4.7.2/bits/postypes.h"
	.file 65 "/usr/libexec/openshift/cartridges/c9-0.1/root/cloud9-gcc-linux-toolchain/bin/../lib/gcc/x86_64-redhat-linux/4.7.2/../../../../include/c++/4.7.2/iosfwd"
	.file 66 "/usr/libexec/openshift/cartridges/c9-0.1/root/cloud9-gcc-linux-toolchain/bin/../lib/gcc/x86_64-redhat-linux/4.7.2/../../../../include/c++/4.7.2/functional"
	.file 67 "/usr/libexec/openshift/cartridges/c9-0.1/root/cloud9-gcc-linux-toolchain/bin/../lib/gcc/x86_64-redhat-linux/4.7.2/../../../../include/c++/4.7.2/bits/ostream_insert.h"
	.file 68 "/usr/libexec/openshift/cartridges/c9-0.1/root/cloud9-gcc-linux-toolchain/bin/../lib/gcc/x86_64-redhat-linux/4.7.2/../../../../include/c++/4.7.2/bits/functexcept.h"
	.file 69 "/usr/include/time.h"
	.file 70 "/usr/libexec/openshift/cartridges/c9-0.1/root/cloud9-gcc-linux-toolchain/bin/../lib/gcc/x86_64-redhat-linux/4.7.2/../../../../include/c++/4.7.2/ext/numeric_traits.h"
	.file 71 "/usr/libexec/openshift/cartridges/c9-0.1/root/cloud9-gcc-linux-toolchain/bin/../lib/gcc/x86_64-redhat-linux/4.7.2/../../../../include/c++/4.7.2/ext/type_traits.h"
	.file 72 "/usr/libexec/openshift/cartridges/c9-0.1/root/cloud9-gcc-linux-toolchain/bin/../lib/gcc/x86_64-redhat-linux/4.7.2/../../../../include/c++/4.7.2/ext/alloc_traits.h"
	.file 73 "/usr/libexec/openshift/cartridges/c9-0.1/root/cloud9-gcc-linux-toolchain/bin/../lib/gcc/x86_64-redhat-linux/4.7.2/../../../../include/c++/4.7.2/debug/debug.h"
	.file 74 "/usr/include/stdint.h"
	.file 75 "/usr/include/locale.h"
	.file 76 "/usr/include/bits/types.h"
	.file 77 "/usr/libexec/openshift/cartridges/c9-0.1/root/cloud9-gcc-linux-toolchain/bin/../lib/gcc/x86_64-redhat-linux/4.7.2/../../../../include/c++/4.7.2/x86_64-redhat-linux/bits/atomic_word.h"
	.file 78 "/usr/include/stdlib.h"
	.file 79 "/usr/include/_G_config.h"
	.file 80 "/usr/include/bits/stdio.h"
	.file 81 "/usr/include/wctype.h"
	.file 82 "/usr/include/bits/mathdef.h"
	.file 83 "LogarithmicFibonacciUsingMatrices.h"
	.file 84 "Performance.h"
	.file 85 "/usr/libexec/openshift/cartridges/c9-0.1/root/cloud9-gcc-linux-toolchain/bin/../lib/gcc/x86_64-redhat-linux/4.7.2/../../../../include/c++/4.7.2/x86_64-redhat-linux/bits/gthr-default.h"
	.file 86 "/usr/include/bits/mathcalls.h"